Archive member included to satisfy reference by file (symbol)

..\..\libs\cpu\libplatform.a(audio_mic.o)
                              Output\obj\driver\driver_saradc.o (audio_mic_analog_init)
..\..\libs\cpu\libplatform.a(audio_mic_trim.o)
                              ..\..\libs\cpu\libplatform.a(audio_mic.o) (audio_mic_trim_sta_set)
..\..\libs\cpu\libplatform.a(cm.o)
                              Output\obj\project\wireless_peripheral\bsp\bsp_param.o (cm_sync)
..\..\libs\cpu\libplatform.a(os_flash.o)
                              ..\..\libs\cpu\libplatform.a(cm.o) (os_spiflash_program)
..\..\libs\cpu\libplatform.a(xcfg.o)
                              Output\obj\project\wireless_peripheral\bsp\bsp_sys.o (xcfg_init)
..\..\libs\cpu\libplatform.a(adpcm.o)
                              Output\obj\project\wireless_peripheral\modules\usb\usr\usb_usr_audio.o (adpcm_sample_idx_reset)
..\..\libs\cpu\libplatform.a(device.o)
                              Output\obj\project\wireless_peripheral\bsp\bsp_sys.o (dev_online_filter)
..\..\libs\cpu\libplatform.a(main.o)
                              Output\obj\driver\driver_lowpwr.o (delay_us)
..\..\libs\cpu\libplatform.a(interrupt.o)
                              Output\obj\driver\driver_gpio.o (sys_irq_init)
..\..\libs\cpu\libplatform.a(startup.o)
                              ..\..\libs\cpu\libplatform.a(interrupt.o) (soft_timer_isr_en)
..\..\libs\cpu\libplatform.a(sys_hook.o)
                              ..\..\libs\cpu\libplatform.a(startup.o) (sys_hook_init)
..\..\libs\cpu\libplatform.a(thread_driver.o)
                              Output\obj\project\wireless_peripheral\modules\usb\usr\usb_usr_audio.o (thread_driver_user_msg_post)
..\..\libs\cpu\libplatform.a(pll.o)
                              ..\..\libs\cpu\libplatform.a(main.o) (pll0_disable)
..\..\libs\cpu\libplatform.a(pmu.o)
                              Output\obj\project\wireless_peripheral\bsp\bsp_saradc_vbat.o (pmu_get_vddio)
..\..\libs\cpu\libplatform.a(reset.o)
                              (_start)
..\..\libs\cpu\libplatform.a(context.o)
                              Output\obj\driver\driver_lowpwr.o (lp_sleep)
..\..\libs\cpu\libplatform.a(debug.o)
                              ..\..\libs\cpu\libplatform.a(reset.o) (exception_isr)
..\..\libs\cpu\libplatform.a(key.o)
                              Output\obj\project\wireless_peripheral\bsp\bsp_key.o (multiple_key_init)
..\..\libs\cpu\libplatform.a(lock.o)
                              ..\..\libs\cpu\libplatform.a(main.o) (lock_init)
..\..\libs\cpu\libplatform.a(patch.o)
                              ..\..\libs\cpu\libplatform.a(main.o) (patch_init)
..\..\libs\cpu\libplatform.a(s_sys.o)
                              ..\..\libs\cpu\libplatform.a(startup.o) (dummy_func)
..\..\libs\cpu\libplatform.a(sleep.o)
                              Output\obj\driver\driver_lowpwr.o (lowpwr_sleep_sfr_save)
..\..\libs\cpu\libplatform.a(sys.o)
                              Output\obj\project\wireless_peripheral\main.o (sys_rst_init)
..\..\libs\cpu\libplatform.a(sys_clk.o)
                              ..\..\libs\cpu\libplatform.a(audio_mic.o) (sys_clk_get_cur)
..\..\libs\cpu\libplatform.a(voltage_trim.o)
                              Output\obj\project\wireless_peripheral\bsp\bsp_saradc_vbat.o (pmu_get_vbg_mv)
..\..\libs\cpu\libplatform.a(weak_symbol.o)
                              ..\..\libs\cpu\libplatform.a(main.o) (xosc_24m_div_get)
..\..\libs\cpu\libplatform.a(bt.o)
                              ..\..\libs\cpu\libplatform.a(startup.o) (thread_btstack_entry)
..\..\libs\cpu\libplatform.a(freq_det.o)
                              ..\..\libs\cpu\libplatform.a(sleep.o) (freq_det_kick)
..\..\libs\usb\libusb.a(usb_comm.o)
                              Output\obj\project\wireless_peripheral\modules\usb\src\usb_com.o (usb_handler_register)
..\..\libs\usb\libusb.a(usb_detect.o)
                              ..\..\libs\usb\libusb.a(usb_comm.o) (usbchk_switch_otg_device)
..\..\libs\usb\libusb.a(usb_device_enum.o)
                              Output\obj\project\wireless_peripheral\modules\usb\src\usb_dev_enum.o (usb_ep0_transfer)
..\..\libs\usb\libusb.a(usb_device_ep.o)
                              ..\..\libs\usb\libusb.a(usb_device_enum.o) (usb_set_cur_ep)
..\..\libs\usb\libusb.a(usb_device_run_loop.o)
                              ..\..\libs\usb\libusb.a(usb_comm.o) (usb_dev_isr)
..\..\libs\wireless\libwireless_slave.a(wireless_api.o)
                              Output\obj\project\wireless_peripheral\modules\wireless\wireless_service.o (wireless_event_handler_register)
..\..\libs\wireless\libwireless_slave.a(bb_api.o)
                              Output\obj\project\wireless_peripheral\modules\wireless\wireless_init.o (soft_timer_init)
..\..\libs\wireless\libwireless_slave.a(bb.o)
                              ..\..\libs\wireless\libwireless_slave.a(wireless_api.o) (bb_var_init)
..\..\libs\wireless\libwireless_slave.a(bb_alarm.o)
                              ..\..\libs\wireless\libwireless_slave.a(bb.o) (bb_timer_init)
..\..\libs\wireless\libwireless_slave.a(bb_int.o)
                              ..\..\libs\wireless\libwireless_slave.a(bb_api.o) (bb_sleep)
..\..\libs\wireless\libwireless_slave.a(bb_sleep.o)
                              ..\..\libs\wireless\libwireless_slave.a(bb_int.o) (bb_sleep_suspend)
..\..\libs\wireless\libwireless_slave.a(ble.o)
                              ..\..\libs\wireless\libwireless_slave.a(bb.o) (ble_var_init)
..\..\libs\wireless\libwireless_slave.a(ble_buf.o)
                              ..\..\libs\wireless\libwireless_slave.a(ble.o) (ble_buf_init)
..\..\libs\wireless\libwireless_slave.a(ble_adv.o)
                              ..\..\libs\wireless\libwireless_slave.a(ble.o) (ble_get_adv_var)
..\..\libs\wireless\libwireless_slave.a(ble_con.o)
                              ..\..\libs\wireless\libwireless_slave.a(ble.o) (ble_get_con_var)
..\..\libs\wireless\libwireless_slave.a(ble_hal.o)
                              ..\..\libs\wireless\libwireless_slave.a(ble.o) (ble_get_rslv_var)
..\..\libs\wireless\libwireless_slave.a(ble_init.o)
                              ..\..\libs\wireless\libwireless_slave.a(ble.o) (ble_get_init_var)
..\..\libs\wireless\libwireless_slave.a(ble_scan.o)
                              ..\..\libs\wireless\libwireless_slave.a(ble.o) (ble_get_scan_var)
..\..\libs\wireless\libwireless_slave.a(ble_sync.o)
                              ..\..\libs\wireless\libwireless_slave.a(ble.o) (ble_get_sync_var)
..\..\libs\wireless\libwireless_slave.a(ble_test.o)
                              ..\..\libs\wireless\libwireless_slave.a(ble_hal.o) (ble_test_init)
..\..\libs\wireless\libwireless_slave.a(ll.o)
                              ..\..\libs\wireless\libwireless_slave.a(ble.o) (ll_init)
..\..\libs\wireless\libwireless_slave.a(ll_cntl.o)
                              ..\..\libs\wireless\libwireless_slave.a(bb.o) (ll_cntl_pdu_tbl)
..\..\libs\wireless\libwireless_slave.a(ll_con_upd.o)
                              ..\..\libs\wireless\libwireless_slave.a(ll_cntl.o) (ll_con_update_ind_func)
..\..\libs\wireless\libwireless_slave.a(ll_encrypt.o)
                              ..\..\libs\wireless\libwireless_slave.a(ll_cntl.o) (ll_pause_enc_req_func)
..\..\libs\wireless\libwireless_slave.a(ll_feature.o)
                              ..\..\libs\wireless\libwireless_slave.a(ll_cntl.o) (ll_feature_req_func)
..\..\libs\wireless\libwireless_slave.a(ll_length.o)
                              ..\..\libs\wireless\libwireless_slave.a(ll_cntl.o) (ll_length_req_func)
..\..\libs\wireless\libwireless_slave.a(ll_phy_upd.o)
                              ..\..\libs\wireless\libwireless_slave.a(ll_cntl.o) (ll_phy_req_func)
..\..\libs\wireless\libwireless_slave.a(ll_proc.o)
                              ..\..\libs\wireless\libwireless_slave.a(ll_con_upd.o) (ll_cmd_cmp_send)
..\..\libs\wireless\libwireless_slave.a(ll_version.o)
                              ..\..\libs\wireless\libwireless_slave.a(ll_cntl.o) (ll_version_ind_func)
..\..\libs\wireless\libwireless_slave.a(mgr.o)
                              ..\..\libs\wireless\libwireless_slave.a(ble.o) (mgr_init)
..\..\libs\wireless\libwireless_slave.a(mgr_proc.o)
                              ..\..\libs\wireless\libwireless_slave.a(mgr.o) (mgr_msg_env)
..\..\libs\wireless\libwireless_slave.a(mgr_test.o)
                              ..\..\libs\wireless\libwireless_slave.a(mgr_proc.o) (ble_test_end_ind_func)
..\..\libs\wireless\libwireless_slave.a(hct.o)
                              ..\..\libs\wireless\libwireless_slave.a(bb.o) (hct_init)
..\..\libs\wireless\libwireless_slave.a(hct_msg.o)
                              ..\..\libs\wireless\libwireless_slave.a(hct.o) (hci_look_for_cmd_desc)
..\..\libs\wireless\libwireless_slave.a(hct_proc.o)
                              ..\..\libs\wireless\libwireless_slave.a(hct.o) (hct_acl_block_request)
..\..\libs\wireless\libwireless_slave.a(hct_tl.o)
                              ..\..\libs\wireless\libwireless_slave.a(bb_int.o) (hct_queue_is_empty)
..\..\libs\wireless\libwireless_slave.a(ble_hook.o)
                              ..\..\libs\wireless\libwireless_slave.a(ble_hal.o) (ble_hal_init_hook)
..\..\libs\wireless\libwireless_slave.a(rf.o)
                              ..\..\libs\wireless\libwireless_slave.a(ble_con.o) (rf_rssi_calc_dbm)
..\..\libs\wireless\libwireless_slave.a(rf_mate.o)
                              ..\..\libs\wireless\libwireless_slave.a(rf.o) (rfphy_sw_ctrl)
..\..\libs\wireless\libwireless_slave.a(vs.o)
                              ..\..\libs\wireless\libwireless_slave.a(bb.o) (vs_init)
..\..\libs\wireless\libwireless_slave.a(vs_proc.o)
                              ..\..\libs\wireless\libwireless_slave.a(vs.o) (vs_env)
..\..\libs\wireless\libwireless_slave.a(wireless.o)
                              ..\..\libs\wireless\libwireless_slave.a(wireless_api.o) (wireless_init_sanity_check)
..\..\libs\wireless\libwireless_slave.a(wireless_proc.o)
                              ..\..\libs\wireless\libwireless_slave.a(wireless_api.o) (wl_con_env)
..\..\libs\wireless\libwireless_slave.a(extern.o)
                              ..\..\libs\wireless\libwireless_slave.a(bb_int.o) (sys_sleep_cb)
..\..\libs\wireless\libwireless_slave.a(aes.o)
                              ..\..\libs\wireless\libwireless_slave.a(bb.o) (aes_init)
..\..\libs\wireless\libwireless_slave.a(platform.o)
                              ..\..\libs\wireless\libwireless_slave.a(ble_hook.o) (bb_ll_tx_cb)
..\..\libs\wireless\libwireless_slave.a(bb_clk.o)
                              ..\..\libs\wireless\libwireless_slave.a(bb.o) (bb_lpcycles_2_hus_hook)
..\..\libs\wireless\libwireless_slave.a(bb_dbg.o)
                              ..\..\libs\wireless\libwireless_slave.a(bb.o) (bb_dbg_init)
..\..\libs\wireless\libwireless_slave.a(patch.o)
                              ..\..\libs\wireless\libwireless_slave.a(bb.o) (bb_patch_dummy)
..\..\libs\wireless\libwireless_slave.a(patch_asm.o)
                              ..\..\libs\wireless\libwireless_slave.a(patch.o) (ll_cntl_tx_check_fix_cb)
..\..\libs\wireless\libwireless_slave.a(bb_sche.o)
                              ..\..\libs\wireless\libwireless_slave.a(bb.o) (bb_sche_init)
..\..\libs\wireless\libwireless_slave.a(nanos.o)
                              ..\..\libs\wireless\libwireless_slave.a(bb.o) (nanos_init)
..\..\libs\wireless\libwireless_slave.a(bb_utils.o)
                              ..\..\libs\wireless\libwireless_slave.a(ll_phy_upd.o) (bb_phy_value_to_mask)
..\..\libs\wireless\libwireless_slave.a(ll_chmap_upd.o)
                              ..\..\libs\wireless\libwireless_slave.a(ll_cntl.o) (ll_channel_map_ind_func)
..\..\libs\wireless\libwireless_slave.a(ll_clk_acc.o)
                              ..\..\libs\wireless\libwireless_slave.a(ll_cntl.o) (ll_clk_acc_req_func)
..\..\libs\wireless\libwireless_slave.a(ll_disconnect.o)
                              ..\..\libs\wireless\libwireless_slave.a(ll_proc.o) (ll_stopped_ind_func)
..\..\libs\wireless\libwireless_slave.a(ll_adv.o)
                              ..\..\libs\wireless\libwireless_slave.a(mgr_proc.o) (ble_adv_end_ind_func)
..\..\libs\wireless\libwireless_slave.a(mgr_hci.o)
                              ..\..\libs\wireless\libwireless_slave.a(mgr_proc.o) (hci_command_mgr_func)
..\..\libs\wireless\libwireless_slave.a(adv_hook.o)
                              ..\..\libs\wireless\libwireless_slave.a(ll_adv.o) (ble_adv_end_ind_hook)
..\..\libs\wireless\libwireless_slave.a(vs_fcc.o)
                              ..\..\libs\wireless\libwireless_slave.a(vs_proc.o) (vs_fcc_test_cmd)
..\..\libs\wireless\libwireless_slave.a(thread.o)
                              ..\..\libs\wireless\libwireless_slave.a(nanos.o) (thread_nanos_task_trigger)

Allocating common symbols
Common symbol       size              file

ude_cb              0x4               Output\obj\project\wireless_peripheral\modules\usb\src\usb_dev_enum.o
tmr5ms_cnt          0x2               Output\obj\project\wireless_peripheral\bsp\bsp_sys.o
ep_cb               0x20              Output\obj\project\wireless_peripheral\modules\usb\src\usb_com.o
usb_handler_cb      0x8               Output\obj\project\wireless_peripheral\modules\usb\src\usb_com.o
soft_timer_5ms_handle
                    0x4               Output\obj\project\wireless_peripheral\modules\wireless\wireless_init.o
alarm_timer_5ms_scan_pool
                    0x1c              Output\obj\project\wireless_peripheral\modules\wireless\wireless_init.o
cfg_bt_rf_def_txpwr
                    0x1               Output\obj\project\wireless_peripheral\strong_symbol.o
xcfg_cb             0x33              Output\obj\project\wireless_peripheral\bsp\bsp_sys.o

Discarded input sections

 .text          0x0000000000000000        0x0 Output\obj\driver\driver_clk.o
 .data          0x0000000000000000        0x0 Output\obj\driver\driver_clk.o
 .bss           0x0000000000000000        0x0 Output\obj\driver\driver_clk.o
 .text.clk_gate1_cmd
                0x0000000000000000       0x16 Output\obj\driver\driver_clk.o
 .text.clk_gate2_cmd
                0x0000000000000000       0x16 Output\obj\driver\driver_clk.o
 .text.clk_clkout_set
                0x0000000000000000       0x4e Output\obj\driver\driver_clk.o
 .text.clk_clk32k_rtc_set
                0x0000000000000000       0x28 Output\obj\driver\driver_clk.o
 .text.clk_clk32k_rtc_get
                0x0000000000000000       0x46 Output\obj\driver\driver_clk.o
 .text.clk_hsut0_clk_set
                0x0000000000000000       0x18 Output\obj\driver\driver_clk.o
 .text.clk_hsut0_clk_get
                0x0000000000000000       0x1e Output\obj\driver\driver_clk.o
 .text.clk_clk2m_ks_set
                0x0000000000000000       0x2e Output\obj\driver\driver_clk.o
 .text.clk_clk2m_ks_get
                0x0000000000000000       0x3e Output\obj\driver\driver_clk.o
 .text.clk_ledc_clk_set
                0x0000000000000000       0x18 Output\obj\driver\driver_clk.o
 .text.clk_ledc_clk_get
                0x0000000000000000       0x24 Output\obj\driver\driver_clk.o
 .text.clk_irtx_mod_clk_set
                0x0000000000000000       0x16 Output\obj\driver\driver_clk.o
 .text.clk_irtx_mod_clk_get
                0x0000000000000000       0x24 Output\obj\driver\driver_clk.o
 .text.clk_irrx_clk_set
                0x0000000000000000       0x16 Output\obj\driver\driver_clk.o
 .text.clk_irtx_clk_set
                0x0000000000000000        0x8 Output\obj\driver\driver_clk.o
 .text.clk_irrx_clk_get
                0x0000000000000000       0x34 Output\obj\driver\driver_clk.o
 .text.clk_irtx_clk_get
                0x0000000000000000        0x8 Output\obj\driver\driver_clk.o
 .rodata        0x0000000000000000       0x20 Output\obj\driver\driver_clk.o
 .text          0x0000000000000000        0x0 Output\obj\driver\driver_gpio.o
 .data          0x0000000000000000        0x0 Output\obj\driver\driver_gpio.o
 .bss           0x0000000000000000        0x0 Output\obj\driver\driver_gpio.o
 .text.gpio_deinit
                0x0000000000000000       0x10 Output\obj\driver\driver_gpio.o
 .com_periph.gpio.dir
                0x0000000000000000       0x12 Output\obj\driver\driver_gpio.o
 .com_periph.gpio.set
                0x0000000000000000        0x4 Output\obj\driver\driver_gpio.o
 .com_periph.gpio.reset
                0x0000000000000000        0x4 Output\obj\driver\driver_gpio.o
 .com_periph.gpio.write
                0x0000000000000000        0x4 Output\obj\driver\driver_gpio.o
 .com_periph.gpio.toggle
                0x0000000000000000        0x8 Output\obj\driver\driver_gpio.o
 .com_periph.gpio.read_data
                0x0000000000000000        0x8 Output\obj\driver\driver_gpio.o
 .com_periph.gpio.read_bit
                0x0000000000000000        0xa Output\obj\driver\driver_gpio.o
 .text.gpio_func_mapping_clear
                0x0000000000000000       0x7e Output\obj\driver\driver_gpio.o
 .text.gpio_edge_capture_config_custom
                0x0000000000000000      0x116 Output\obj\driver\driver_gpio.o
 .text.gpio_set_reset_pin
                0x0000000000000000       0x4c Output\obj\driver\driver_gpio.o
 .text.gpio_get_edge_pin
                0x0000000000000000        0x8 Output\obj\driver\driver_gpio.o
 .com_periph.gpio.rise.src
                0x0000000000000000        0x8 Output\obj\driver\driver_gpio.o
 .com_periph.gpio.fall.src
                0x0000000000000000        0xc Output\obj\driver\driver_gpio.o
 .com_periph.gpio.pending_is
                0x0000000000000000       0x12 Output\obj\driver\driver_gpio.o
 .text          0x0000000000000000        0x0 Output\obj\driver\driver_hsuart.o
 .data          0x0000000000000000        0x0 Output\obj\driver\driver_hsuart.o
 .bss           0x0000000000000000        0x0 Output\obj\driver\driver_hsuart.o
 .text.hsuart_init
                0x0000000000000000       0xa0 Output\obj\driver\driver_hsuart.o
 .text.hsuart_deinit
                0x0000000000000000       0x14 Output\obj\driver\driver_hsuart.o
 .text.hsuart_cmd
                0x0000000000000000       0x16 Output\obj\driver\driver_hsuart.o
 .com_periph.hsuart.send
                0x0000000000000000       0x1a Output\obj\driver\driver_hsuart.o
 .com_periph.hsuart.recv
                0x0000000000000000        0xa Output\obj\driver\driver_hsuart.o
 .com_periph.hsuart.receive_data
                0x0000000000000000       0x44 Output\obj\driver\driver_hsuart.o
 .com_periph.hsuart.fifo_get
                0x0000000000000000        0xa Output\obj\driver\driver_hsuart.o
 .text.hsuart_clear_fifo_counter
                0x0000000000000000        0xe Output\obj\driver\driver_hsuart.o
 .text.hsuart_baud_config
                0x0000000000000000       0x2c Output\obj\driver\driver_hsuart.o
 .text.hsuart_pic_config
                0x0000000000000000       0x92 Output\obj\driver\driver_hsuart.o
 .com_periph.hsuart.get_flag
                0x0000000000000000       0x3e Output\obj\driver\driver_hsuart.o
 .com_periph.hsuart.clear
                0x0000000000000000       0x38 Output\obj\driver\driver_hsuart.o
 .text.hsuart_rx_idle_config
                0x0000000000000000       0x1e Output\obj\driver\driver_hsuart.o
 .com_periph.hsuart.dma
                0x0000000000000000       0x20 Output\obj\driver\driver_hsuart.o
 .com_periph.hsuart.stop
                0x0000000000000000       0x18 Output\obj\driver\driver_hsuart.o
 .com_periph.hsuart.hfc
                0x0000000000000000       0x32 Output\obj\driver\driver_hsuart.o
 .comment       0x0000000000000000       0x12 Output\obj\driver\driver_hsuart.o
 .text          0x0000000000000000        0x0 Output\obj\driver\driver_keyscan.o
 .data          0x0000000000000000        0x0 Output\obj\driver\driver_keyscan.o
 .bss           0x0000000000000000        0x0 Output\obj\driver\driver_keyscan.o
 .text.keyscan_init
                0x0000000000000000       0xde Output\obj\driver\driver_keyscan.o
 .text.keyscan_deinit
                0x0000000000000000        0xc Output\obj\driver\driver_keyscan.o
 .com_periph.keyscan.en_ctrl
                0x0000000000000000       0x16 Output\obj\driver\driver_keyscan.o
 .text.keyscan_pic_config
                0x0000000000000000       0x3a Output\obj\driver\driver_keyscan.o
 .com_periph.keyscan.flag
                0x0000000000000000       0x44 Output\obj\driver\driver_keyscan.o
 .com_periph.keyscan.query
                0x0000000000000000       0xca Output\obj\driver\driver_keyscan.o
 .com_periph.keyscan.lowpwr_mode
                0x0000000000000000        0xc Output\obj\driver\driver_keyscan.o
 .comment       0x0000000000000000       0x12 Output\obj\driver\driver_keyscan.o
 .text          0x0000000000000000        0x0 Output\obj\driver\driver_ledc.o
 .data          0x0000000000000000        0x0 Output\obj\driver\driver_ledc.o
 .bss           0x0000000000000000        0x0 Output\obj\driver\driver_ledc.o
 .text.ledc_init
                0x0000000000000000       0x3c Output\obj\driver\driver_ledc.o
 .text.ledc_timing_init
                0x0000000000000000       0x5c Output\obj\driver\driver_ledc.o
 .text.ledc_deinit
                0x0000000000000000       0x20 Output\obj\driver\driver_ledc.o
 .text.ledc_cmd
                0x0000000000000000       0x16 Output\obj\driver\driver_ledc.o
 .com_periph.ledc.transport
                0x0000000000000000       0x20 Output\obj\driver\driver_ledc.o
 .text.ledc_pic_config
                0x0000000000000000       0x44 Output\obj\driver\driver_ledc.o
 .com_periph.ledc.flag
                0x0000000000000000       0x42 Output\obj\driver\driver_ledc.o
 .text.ledc_set_frame_length
                0x0000000000000000        0xe Output\obj\driver\driver_ledc.o
 .text.ledc_set_loop_number
                0x0000000000000000        0xc Output\obj\driver\driver_ledc.o
 .text.ledc_get_frame_length
                0x0000000000000000       0x10 Output\obj\driver\driver_ledc.o
 .text.ledc_get_loop_number
                0x0000000000000000        0xc Output\obj\driver\driver_ledc.o
 .comment       0x0000000000000000       0x12 Output\obj\driver\driver_ledc.o
 .text          0x0000000000000000        0x0 Output\obj\driver\driver_lowpwr.o
 .data          0x0000000000000000        0x0 Output\obj\driver\driver_lowpwr.o
 .bss           0x0000000000000000       0x5c Output\obj\driver\driver_lowpwr.o
 .com_sleep.sys
                0x0000000000000000       0x8e Output\obj\driver\driver_lowpwr.o
 .com_sleep.lp_proc
                0x0000000000000000       0xc6 Output\obj\driver\driver_lowpwr.o
 .com_sleep.lp_wakeup
                0x0000000000000000      0x146 Output\obj\driver\driver_lowpwr.o
 .text.lowpwr_clr_wakeup_pending
                0x0000000000000000       0x1c Output\obj\driver\driver_lowpwr.o
 .text.lowpwr_gpio_wakeup_config_custom
                0x0000000000000000       0x4a Output\obj\driver\driver_lowpwr.o
 .text.lowpwr_wakeup_source_enable
                0x0000000000000000       0x7c Output\obj\driver\driver_lowpwr.o
 .text.lowpwr_wakeup_source_disable
                0x0000000000000000       0x92 Output\obj\driver\driver_lowpwr.o
 .com_pwroff.mode1
                0x0000000000000000       0xba Output\obj\driver\driver_lowpwr.o
 .com_sleep.sfr_save
                0x0000000000000000        0x2 Output\obj\driver\driver_lowpwr.o
 .com_sleep.sfr_resume
                0x0000000000000000        0x2 Output\obj\driver\driver_lowpwr.o
 .com_sleep.proc_do
                0x0000000000000000       0xb4 Output\obj\driver\driver_lowpwr.o
 .com_sleep.sleep
                0x0000000000000000        0x8 Output\obj\driver\driver_lowpwr.o
 .text          0x0000000000000000        0x0 Output\obj\driver\driver_rtc.o
 .data          0x0000000000000000        0x0 Output\obj\driver\driver_rtc.o
 .bss           0x0000000000000000        0x0 Output\obj\driver\driver_rtc.o
 .com_periph.rtc.cnt_set
                0x0000000000000000        0x8 Output\obj\driver\driver_rtc.o
 .com_periph.rtc.cnt_get
                0x0000000000000000        0x8 Output\obj\driver\driver_rtc.o
 .com_periph.rtc.alarm_set
                0x0000000000000000        0x8 Output\obj\driver\driver_rtc.o
 .com_periph.rtc.alarm_get
                0x0000000000000000        0x8 Output\obj\driver\driver_rtc.o
 .text.rtc_prescale_set
                0x0000000000000000       0x16 Output\obj\driver\driver_rtc.o
 .text.rtc_prescale_get
                0x0000000000000000        0xc Output\obj\driver\driver_rtc.o
 .text.rtc_pic_config
                0x0000000000000000       0x90 Output\obj\driver\driver_rtc.o
 .com_periph.rct.get
                0x0000000000000000       0x36 Output\obj\driver\driver_rtc.o
 .com_periph.rct.clear
                0x0000000000000000       0x1a Output\obj\driver\driver_rtc.o
 .comment       0x0000000000000000       0x12 Output\obj\driver\driver_rtc.o
 .text          0x0000000000000000        0x0 Output\obj\driver\driver_saradc.o
 .data          0x0000000000000000        0x0 Output\obj\driver\driver_saradc.o
 .bss           0x0000000000000000        0x0 Output\obj\driver\driver_saradc.o
 .text.saradc_mic_init
                0x0000000000000000       0x64 Output\obj\driver\driver_saradc.o
 .text.saradc_mic_cmd
                0x0000000000000000       0x1a Output\obj\driver\driver_saradc.o
 .text.saradc_mic_dma_cmd
                0x0000000000000000       0x38 Output\obj\driver\driver_saradc.o
 .text.saradc_remove_channel
                0x0000000000000000       0xac Output\obj\driver\driver_saradc.o
 .text.saradc_set_baud
                0x0000000000000000       0x2e Output\obj\driver\driver_saradc.o
 .text.saradc_pic_config
                0x0000000000000000       0x70 Output\obj\driver\driver_saradc.o
 .text          0x0000000000000000        0x0 Output\obj\driver\driver_spi.o
 .data          0x0000000000000000        0x0 Output\obj\driver\driver_spi.o
 .bss           0x0000000000000000        0x0 Output\obj\driver\driver_spi.o
 .text.spi_init
                0x0000000000000000       0x50 Output\obj\driver\driver_spi.o
 .text.spi_deinit
                0x0000000000000000       0x1c Output\obj\driver\driver_spi.o
 .text.spi_cmd  0x0000000000000000       0x10 Output\obj\driver\driver_spi.o
 .text.spi_dir_sel
                0x0000000000000000       0x16 Output\obj\driver\driver_spi.o
 .text.spi_it_cmd
                0x0000000000000000       0x12 Output\obj\driver\driver_spi.o
 .text.spi_lfsr_cmd
                0x0000000000000000       0x12 Output\obj\driver\driver_spi.o
 .text.spi_multi_bit_bus_cmd
                0x0000000000000000       0x12 Output\obj\driver\driver_spi.o
 .text.spi_hold_rx_cmd
                0x0000000000000000       0x12 Output\obj\driver\driver_spi.o
 .text.spi_hold_tx_cmd
                0x0000000000000000       0x12 Output\obj\driver\driver_spi.o
 .text.spi_soft_hold_cmd
                0x0000000000000000       0x12 Output\obj\driver\driver_spi.o
 .com_periph.spi.get
                0x0000000000000000        0xa Output\obj\driver\driver_spi.o
 .com_periph.spi.clear
                0x0000000000000000        0x8 Output\obj\driver\driver_spi.o
 .text.spi_set_dma_cnt
                0x0000000000000000        0x4 Output\obj\driver\driver_spi.o
 .text.spi_set_dma_addr
                0x0000000000000000        0x4 Output\obj\driver\driver_spi.o
 .text.spi_receive_data
                0x0000000000000000        0x8 Output\obj\driver\driver_spi.o
 .text.spi_send_data
                0x0000000000000000        0x4 Output\obj\driver\driver_spi.o
 .comment       0x0000000000000000       0x12 Output\obj\driver\driver_spi.o
 .text          0x0000000000000000        0x0 Output\obj\driver\driver_tmr.o
 .data          0x0000000000000000        0x0 Output\obj\driver\driver_tmr.o
 .bss           0x0000000000000000        0x0 Output\obj\driver\driver_tmr.o
 .text.tmr_base_init
                0x0000000000000000       0x50 Output\obj\driver\driver_tmr.o
 .text.tmr_deinit
                0x0000000000000000       0x54 Output\obj\driver\driver_tmr.o
 .text.tmr_set_counter
                0x0000000000000000        0x4 Output\obj\driver\driver_tmr.o
 .text.tmr_set_period
                0x0000000000000000        0x4 Output\obj\driver\driver_tmr.o
 .text.tmr_get_counter
                0x0000000000000000        0x4 Output\obj\driver\driver_tmr.o
 .text.tmr_get_period
                0x0000000000000000        0x4 Output\obj\driver\driver_tmr.o
 .text.tmr_cmd  0x0000000000000000       0x10 Output\obj\driver\driver_tmr.o
 .text.tmr_get_capture
                0x0000000000000000       0x1c Output\obj\driver\driver_tmr.o
 .text.tmr_pic_config
                0x0000000000000000       0x78 Output\obj\driver\driver_tmr.o
 .com_periph.tmr.get
                0x0000000000000000       0x52 Output\obj\driver\driver_tmr.o
 .com_periph.tmr.clear
                0x0000000000000000       0x3a Output\obj\driver\driver_tmr.o
 .comment       0x0000000000000000       0x12 Output\obj\driver\driver_tmr.o
 .text          0x0000000000000000        0x0 Output\obj\driver\driver_uart.o
 .data          0x0000000000000000        0x0 Output\obj\driver\driver_uart.o
 .bss           0x0000000000000000        0x0 Output\obj\driver\driver_uart.o
 .text.uart_deinit
                0x0000000000000000        0xe Output\obj\driver\driver_uart.o
 .com_periph.uart.send
                0x0000000000000000        0x8 Output\obj\driver\driver_uart.o
 .com_periph.uart.recv
                0x0000000000000000       0x14 Output\obj\driver\driver_uart.o
 .text.uart_pic_config
                0x0000000000000000       0x5c Output\obj\driver\driver_uart.o
 .com_periph.uart.get_flag
                0x0000000000000000       0x18 Output\obj\driver\driver_uart.o
 .com_periph.uart.clear_flag
                0x0000000000000000       0x2a Output\obj\driver\driver_uart.o
 .text          0x0000000000000000        0x0 Output\obj\driver\driver_wdt.o
 .data          0x0000000000000000        0x0 Output\obj\driver\driver_wdt.o
 .bss           0x0000000000000000        0x0 Output\obj\driver\driver_wdt.o
 .text.wdt_cmd  0x0000000000000000       0x18 Output\obj\driver\driver_wdt.o
 .text.wdt_reset_cmd
                0x0000000000000000       0x1e Output\obj\driver\driver_wdt.o
 .text.wdt_it_cmd
                0x0000000000000000       0x16 Output\obj\driver\driver_wdt.o
 .text.wdt_clk_select
                0x0000000000000000       0x1a Output\obj\driver\driver_wdt.o
 .text.wdt_time_select
                0x0000000000000000       0x1a Output\obj\driver\driver_wdt.o
 .text.wdt_get_flag
                0x0000000000000000        0x8 Output\obj\driver\driver_wdt.o
 .text.wdt_clear
                0x0000000000000000        0xe Output\obj\driver\driver_wdt.o
 .comment       0x0000000000000000       0x12 Output\obj\driver\driver_wdt.o
 .text          0x0000000000000000        0x0 Output\obj\project\wireless_peripheral\app\func.o
 .data          0x0000000000000000        0x0 Output\obj\project\wireless_peripheral\app\func.o
 .bss           0x0000000000000000        0x0 Output\obj\project\wireless_peripheral\app\func.o
 .text          0x0000000000000000        0x0 Output\obj\project\wireless_peripheral\app\func_idle.o
 .data          0x0000000000000000        0x0 Output\obj\project\wireless_peripheral\app\func_idle.o
 .bss           0x0000000000000000        0x0 Output\obj\project\wireless_peripheral\app\func_idle.o
 .text.func.idle.msg
                0x0000000000000000        0x8 Output\obj\project\wireless_peripheral\app\func_idle.o
 .text          0x0000000000000000        0x0 Output\obj\project\wireless_peripheral\app\func_iodm.o
 .data          0x0000000000000000        0x0 Output\obj\project\wireless_peripheral\app\func_iodm.o
 .bss           0x0000000000000000        0x0 Output\obj\project\wireless_peripheral\app\func_iodm.o
 .comment       0x0000000000000000       0x12 Output\obj\project\wireless_peripheral\app\func_iodm.o
 .text          0x0000000000000000        0x0 Output\obj\project\wireless_peripheral\app\func_lowpwr.o
 .data          0x0000000000000000        0x0 Output\obj\project\wireless_peripheral\app\func_lowpwr.o
 .bss           0x0000000000000000        0x0 Output\obj\project\wireless_peripheral\app\func_lowpwr.o
 .text          0x0000000000000000        0x0 Output\obj\project\wireless_peripheral\app\func_wireless.o
 .data          0x0000000000000000        0x0 Output\obj\project\wireless_peripheral\app\func_wireless.o
 .bss           0x0000000000000000        0x0 Output\obj\project\wireless_peripheral\app\func_wireless.o
 .text          0x0000000000000000        0x0 Output\obj\project\wireless_peripheral\bsp\bsp_huart_iodm.o
 .data          0x0000000000000000        0x0 Output\obj\project\wireless_peripheral\bsp\bsp_huart_iodm.o
 .bss           0x0000000000000000        0x0 Output\obj\project\wireless_peripheral\bsp\bsp_huart_iodm.o
 .comment       0x0000000000000000       0x12 Output\obj\project\wireless_peripheral\bsp\bsp_huart_iodm.o
 .text          0x0000000000000000        0x0 Output\obj\project\wireless_peripheral\bsp\bsp_io_key.o
 .data          0x0000000000000000        0x0 Output\obj\project\wireless_peripheral\bsp\bsp_io_key.o
 .bss           0x0000000000000000        0x0 Output\obj\project\wireless_peripheral\bsp\bsp_io_key.o
 .text          0x0000000000000000        0x0 Output\obj\project\wireless_peripheral\bsp\bsp_key.o
 .data          0x0000000000000000        0x0 Output\obj\project\wireless_peripheral\bsp\bsp_key.o
 .bss           0x0000000000000000        0x0 Output\obj\project\wireless_peripheral\bsp\bsp_key.o
 .text.bsp_key_set_power_on_flag
                0x0000000000000000        0xa Output\obj\project\wireless_peripheral\bsp\bsp_key.o
 .text          0x0000000000000000        0x0 Output\obj\project\wireless_peripheral\bsp\bsp_param.o
 .data          0x0000000000000000        0x0 Output\obj\project\wireless_peripheral\bsp\bsp_param.o
 .bss           0x0000000000000000        0x0 Output\obj\project\wireless_peripheral\bsp\bsp_param.o
 .text.bsp.param.fota
                0x0000000000000000       0xc0 Output\obj\project\wireless_peripheral\bsp\bsp_param.o
 .text          0x0000000000000000        0x0 Output\obj\project\wireless_peripheral\bsp\bsp_saradc.o
 .data          0x0000000000000000        0x0 Output\obj\project\wireless_peripheral\bsp\bsp_saradc.o
 .bss           0x0000000000000000        0x0 Output\obj\project\wireless_peripheral\bsp\bsp_saradc.o
 .text.bsp_saradc_exit
                0x0000000000000000        0x8 Output\obj\project\wireless_peripheral\bsp\bsp_saradc.o
 .text          0x0000000000000000        0x0 Output\obj\project\wireless_peripheral\bsp\bsp_saradc_key.o
 .data          0x0000000000000000        0x0 Output\obj\project\wireless_peripheral\bsp\bsp_saradc_key.o
 .bss           0x0000000000000000        0x0 Output\obj\project\wireless_peripheral\bsp\bsp_saradc_key.o
 .comment       0x0000000000000000       0x12 Output\obj\project\wireless_peripheral\bsp\bsp_saradc_key.o
 .text          0x0000000000000000        0x0 Output\obj\project\wireless_peripheral\bsp\bsp_saradc_vbat.o
 .data          0x0000000000000000        0x0 Output\obj\project\wireless_peripheral\bsp\bsp_saradc_vbat.o
 .text.bsp_get_vbat_level
                0x0000000000000000       0x48 Output\obj\project\wireless_peripheral\bsp\bsp_saradc_vbat.o
 .rodata        0x0000000000000000        0xa Output\obj\project\wireless_peripheral\bsp\bsp_saradc_vbat.o
 .text          0x0000000000000000        0x0 Output\obj\project\wireless_peripheral\bsp\bsp_sys.o
 .data          0x0000000000000000        0x0 Output\obj\project\wireless_peripheral\bsp\bsp_sys.o
 .bss           0x0000000000000000        0x0 Output\obj\project\wireless_peripheral\bsp\bsp_sys.o
 .com_text.dev.detect
                0x0000000000000000       0x48 Output\obj\project\wireless_peripheral\bsp\bsp_sys.o
 .text.power_on_check
                0x0000000000000000        0x8 Output\obj\project\wireless_peripheral\bsp\bsp_sys.o
 .text.bsp_periph_init
                0x0000000000000000       0x30 Output\obj\project\wireless_peripheral\bsp\bsp_sys.o
 .text          0x0000000000000000        0x0 Output\obj\project\wireless_peripheral\bsp\bsp_uart_debug.o
 .data          0x0000000000000000        0x0 Output\obj\project\wireless_peripheral\bsp\bsp_uart_debug.o
 .bss           0x0000000000000000        0x0 Output\obj\project\wireless_peripheral\bsp\bsp_uart_debug.o
 .text          0x0000000000000000        0x0 Output\obj\project\wireless_peripheral\main.o
 .data          0x0000000000000000        0x0 Output\obj\project\wireless_peripheral\main.o
 .bss           0x0000000000000000        0x0 Output\obj\project\wireless_peripheral\main.o
 .text          0x0000000000000000        0x0 Output\obj\project\wireless_peripheral\modules\fota\fota_proc.o
 .data          0x0000000000000000        0x0 Output\obj\project\wireless_peripheral\modules\fota\fota_proc.o
 .bss           0x0000000000000000        0x0 Output\obj\project\wireless_peripheral\modules\fota\fota_proc.o
 .comment       0x0000000000000000       0x12 Output\obj\project\wireless_peripheral\modules\fota\fota_proc.o
 .text          0x0000000000000000        0x0 Output\obj\project\wireless_peripheral\modules\usb\src\usb_audio.o
 .data          0x0000000000000000        0x0 Output\obj\project\wireless_peripheral\modules\usb\src\usb_audio.o
 .bss           0x0000000000000000        0x0 Output\obj\project\wireless_peripheral\modules\usb\src\usb_audio.o
 .comment       0x0000000000000000       0x12 Output\obj\project\wireless_peripheral\modules\usb\src\usb_audio.o
 .text          0x0000000000000000        0x0 Output\obj\project\wireless_peripheral\modules\usb\src\usb_audio_desc.o
 .data          0x0000000000000000        0x0 Output\obj\project\wireless_peripheral\modules\usb\src\usb_audio_desc.o
 .bss           0x0000000000000000        0x0 Output\obj\project\wireless_peripheral\modules\usb\src\usb_audio_desc.o
 .comment       0x0000000000000000       0x12 Output\obj\project\wireless_peripheral\modules\usb\src\usb_audio_desc.o
 .text          0x0000000000000000        0x0 Output\obj\project\wireless_peripheral\modules\usb\src\usb_com.o
 .data          0x0000000000000000        0x0 Output\obj\project\wireless_peripheral\modules\usb\src\usb_com.o
 .bss           0x0000000000000000        0x0 Output\obj\project\wireless_peripheral\modules\usb\src\usb_com.o
 .com_text.thread.driver
                0x0000000000000000        0x2 Output\obj\project\wireless_peripheral\modules\usb\src\usb_com.o
 .text.usb_ep_init_handler
                0x0000000000000000        0xe Output\obj\project\wireless_peripheral\modules\usb\src\usb_com.o
 .com_text.isr.sof
                0x0000000000000000        0x2 Output\obj\project\wireless_peripheral\modules\usb\src\usb_com.o
 .usbdev.com    0x0000000000000000       0xf4 Output\obj\project\wireless_peripheral\modules\usb\src\usb_com.o
 .text.usb_ep_callback_register
                0x0000000000000000       0x1c Output\obj\project\wireless_peripheral\modules\usb\src\usb_com.o
 .text.usb_ep_start_transfer
                0x0000000000000000       0x28 Output\obj\project\wireless_peripheral\modules\usb\src\usb_com.o
 .text.usb_ep_reset_deal
                0x0000000000000000        0x2 Output\obj\project\wireless_peripheral\modules\usb\src\usb_com.o
 .text.usb_device_init
                0x0000000000000000       0x62 Output\obj\project\wireless_peripheral\modules\usb\src\usb_com.o
 .text.usb_device_deinit
                0x0000000000000000        0xa Output\obj\project\wireless_peripheral\modules\usb\src\usb_com.o
 .rodata.str1.4
                0x0000000000000000       0x44 Output\obj\project\wireless_peripheral\modules\usb\src\usb_com.o
 .comment       0x0000000000000000       0x12 Output\obj\project\wireless_peripheral\modules\usb\src\usb_com.o
 COMMON         0x0000000000000000       0x28 Output\obj\project\wireless_peripheral\modules\usb\src\usb_com.o
 .text          0x0000000000000000        0x0 Output\obj\project\wireless_peripheral\modules\usb\src\usb_desc.o
 .data          0x0000000000000000        0x0 Output\obj\project\wireless_peripheral\modules\usb\src\usb_desc.o
 .bss           0x0000000000000000        0x0 Output\obj\project\wireless_peripheral\modules\usb\src\usb_desc.o
 .text.usb_desc_swapper.constprop.1
                0x0000000000000000       0x64 Output\obj\project\wireless_peripheral\modules\usb\src\usb_desc.o
 .text.usb_get_device_descriptor
                0x0000000000000000       0x10 Output\obj\project\wireless_peripheral\modules\usb\src\usb_desc.o
 .text.usb_get_cfg_descriptor
                0x0000000000000000       0x10 Output\obj\project\wireless_peripheral\modules\usb\src\usb_desc.o
 .text.usb_get_lang_id_str_descriptor
                0x0000000000000000       0x10 Output\obj\project\wireless_peripheral\modules\usb\src\usb_desc.o
 .text.usb_get_manufacturer_str_descriptor
                0x0000000000000000       0x2a Output\obj\project\wireless_peripheral\modules\usb\src\usb_desc.o
 .text.usb_get_product_str_descriptor
                0x0000000000000000       0x2a Output\obj\project\wireless_peripheral\modules\usb\src\usb_desc.o
 .text.usb_get_serial_str_descriptor
                0x0000000000000000       0x2a Output\obj\project\wireless_peripheral\modules\usb\src\usb_desc.o
 .rodata.str1.4
                0x0000000000000000       0x1e Output\obj\project\wireless_peripheral\modules\usb\src\usb_desc.o
 .rodata.usb.desc
                0x0000000000000000       0x24 Output\obj\project\wireless_peripheral\modules\usb\src\usb_desc.o
 .usb_buf.desc  0x0000000000000000       0x40 Output\obj\project\wireless_peripheral\modules\usb\src\usb_desc.o
 .comment       0x0000000000000000       0x12 Output\obj\project\wireless_peripheral\modules\usb\src\usb_desc.o
 .text          0x0000000000000000        0x0 Output\obj\project\wireless_peripheral\modules\usb\src\usb_dev_enum.o
 .data          0x0000000000000000        0x0 Output\obj\project\wireless_peripheral\modules\usb\src\usb_dev_enum.o
 .bss           0x0000000000000000        0x0 Output\obj\project\wireless_peripheral\modules\usb\src\usb_dev_enum.o
 .text.ude_state_reset
                0x0000000000000000        0xa Output\obj\project\wireless_peripheral\modules\usb\src\usb_dev_enum.o
 .usbdev.com    0x0000000000000000      0x3de Output\obj\project\wireless_peripheral\modules\usb\src\usb_dev_enum.o
 .rodata.str1.4
                0x0000000000000000      0x100 Output\obj\project\wireless_peripheral\modules\usb\src\usb_dev_enum.o
 .usb_buf.device.desc.buf
                0x0000000000000000      0x100 Output\obj\project\wireless_peripheral\modules\usb\src\usb_dev_enum.o
 .comment       0x0000000000000000       0x12 Output\obj\project\wireless_peripheral\modules\usb\src\usb_dev_enum.o
 COMMON         0x0000000000000000        0x4 Output\obj\project\wireless_peripheral\modules\usb\src\usb_dev_enum.o
 .text          0x0000000000000000        0x0 Output\obj\project\wireless_peripheral\modules\usb\src\usb_hid.o
 .data          0x0000000000000000        0x0 Output\obj\project\wireless_peripheral\modules\usb\src\usb_hid.o
 .bss           0x0000000000000000        0x0 Output\obj\project\wireless_peripheral\modules\usb\src\usb_hid.o
 .comment       0x0000000000000000       0x12 Output\obj\project\wireless_peripheral\modules\usb\src\usb_hid.o
 .text          0x0000000000000000        0x0 Output\obj\project\wireless_peripheral\modules\usb\src\usb_hid_desc.o
 .data          0x0000000000000000        0x0 Output\obj\project\wireless_peripheral\modules\usb\src\usb_hid_desc.o
 .bss           0x0000000000000000        0x0 Output\obj\project\wireless_peripheral\modules\usb\src\usb_hid_desc.o
 .comment       0x0000000000000000       0x12 Output\obj\project\wireless_peripheral\modules\usb\src\usb_hid_desc.o
 .text          0x0000000000000000        0x0 Output\obj\project\wireless_peripheral\modules\usb\src\usb_vendor.o
 .data          0x0000000000000000        0x0 Output\obj\project\wireless_peripheral\modules\usb\src\usb_vendor.o
 .bss           0x0000000000000000        0x0 Output\obj\project\wireless_peripheral\modules\usb\src\usb_vendor.o
 .comment       0x0000000000000000       0x12 Output\obj\project\wireless_peripheral\modules\usb\src\usb_vendor.o
 .text          0x0000000000000000        0x0 Output\obj\project\wireless_peripheral\modules\usb\src\usb_vendor_desc.o
 .data          0x0000000000000000        0x0 Output\obj\project\wireless_peripheral\modules\usb\src\usb_vendor_desc.o
 .bss           0x0000000000000000        0x0 Output\obj\project\wireless_peripheral\modules\usb\src\usb_vendor_desc.o
 .comment       0x0000000000000000       0x12 Output\obj\project\wireless_peripheral\modules\usb\src\usb_vendor_desc.o
 .text          0x0000000000000000        0x0 Output\obj\project\wireless_peripheral\modules\usb\usr\usb_usr_audio.o
 .data          0x0000000000000000       0x18 Output\obj\project\wireless_peripheral\modules\usb\usr\usb_usr_audio.o
 .bss           0x0000000000000000      0x21a Output\obj\project\wireless_peripheral\modules\usb\usr\usb_usr_audio.o
 .text.usb_usr_audio_mic_data_request
                0x0000000000000000       0x14 Output\obj\project\wireless_peripheral\modules\usb\usr\usb_usr_audio.o
 .text.usb_usr_audio_mic_vol_set
                0x0000000000000000       0x38 Output\obj\project\wireless_peripheral\modules\usb\usr\usb_usr_audio.o
 .text.usb_usr_audio_mic_mute_set
                0x0000000000000000       0x38 Output\obj\project\wireless_peripheral\modules\usb\usr\usb_usr_audio.o
 .text.usb_usr_audio_mic_stop
                0x0000000000000000       0x30 Output\obj\project\wireless_peripheral\modules\usb\usr\usb_usr_audio.o
 .text.usb_usr_audio_mic_start
                0x0000000000000000       0x30 Output\obj\project\wireless_peripheral\modules\usb\usr\usb_usr_audio.o
 .text.usb_usr_audio_init
                0x0000000000000000       0x32 Output\obj\project\wireless_peripheral\modules\usb\usr\usb_usr_audio.o
 .text.usb_usr_audio_mic_is_start
                0x0000000000000000       0x1c Output\obj\project\wireless_peripheral\modules\usb\usr\usb_usr_audio.o
 .com_text.usb.uac.dec
                0x0000000000000000       0x40 Output\obj\project\wireless_peripheral\modules\usb\usr\usb_usr_audio.o
 .com_text.usb.uac.stream
                0x0000000000000000       0x3e Output\obj\project\wireless_peripheral\modules\usb\usr\usb_usr_audio.o
 .rodata.str1.4
                0x0000000000000000       0x3f Output\obj\project\wireless_peripheral\modules\usb\usr\usb_usr_audio.o
 .comment       0x0000000000000000       0x12 Output\obj\project\wireless_peripheral\modules\usb\usr\usb_usr_audio.o
 .text          0x0000000000000000        0x0 Output\obj\project\wireless_peripheral\modules\usb\usr\usb_usr_hid.o
 .data          0x0000000000000000       0x1c Output\obj\project\wireless_peripheral\modules\usb\usr\usb_usr_hid.o
 .bss           0x0000000000000000       0x3c Output\obj\project\wireless_peripheral\modules\usb\usr\usb_usr_hid.o
 .com_text.usb.hid.queue
                0x0000000000000000       0x68 Output\obj\project\wireless_peripheral\modules\usb\usr\usb_usr_hid.o
 .com_text.usb.hid.in
                0x0000000000000000       0x2a Output\obj\project\wireless_peripheral\modules\usb\usr\usb_usr_hid.o
 .text.usb_usr_hid_resume
                0x0000000000000000       0x30 Output\obj\project\wireless_peripheral\modules\usb\usr\usb_usr_hid.o
 .text.usb_usr_hid_suspend
                0x0000000000000000       0x52 Output\obj\project\wireless_peripheral\modules\usb\usr\usb_usr_hid.o
 .text.usb_usr_hid_data_out
                0x0000000000000000       0x42 Output\obj\project\wireless_peripheral\modules\usb\usr\usb_usr_hid.o
 .text.usb_usr_hid_init
                0x0000000000000000       0x2c Output\obj\project\wireless_peripheral\modules\usb\usr\usb_usr_hid.o
 .com_text.usb.hid.data.mouse
                0x0000000000000000       0x8c Output\obj\project\wireless_peripheral\modules\usb\usr\usb_usr_hid.o
 .rodata.str1.4
                0x0000000000000000       0x2a Output\obj\project\wireless_peripheral\modules\usb\usr\usb_usr_hid.o
 .sbss          0x0000000000000000       0x10 Output\obj\project\wireless_peripheral\modules\usb\usr\usb_usr_hid.o
 .comment       0x0000000000000000       0x12 Output\obj\project\wireless_peripheral\modules\usb\usr\usb_usr_hid.o
 .text          0x0000000000000000        0x0 Output\obj\project\wireless_peripheral\modules\usb\usr\usb_usr_vendor.o
 .data          0x0000000000000000       0x1c Output\obj\project\wireless_peripheral\modules\usb\usr\usb_usr_vendor.o
 .bss           0x0000000000000000      0x16c Output\obj\project\wireless_peripheral\modules\usb\usr\usb_usr_vendor.o
 .com_text.usb.vendor.queue
                0x0000000000000000      0x100 Output\obj\project\wireless_peripheral\modules\usb\usr\usb_usr_vendor.o
 .text.usb_usr_vendor_ready
                0x0000000000000000       0x36 Output\obj\project\wireless_peripheral\modules\usb\usr\usb_usr_vendor.o
 .text.usb_usr_vendor_data_in
                0x0000000000000000       0x4e Output\obj\project\wireless_peripheral\modules\usb\usr\usb_usr_vendor.o
 .text.usb_usr_vendor_data_out
                0x0000000000000000       0x42 Output\obj\project\wireless_peripheral\modules\usb\usr\usb_usr_vendor.o
 .text.usb_usr_vendor_init
                0x0000000000000000       0x74 Output\obj\project\wireless_peripheral\modules\usb\usr\usb_usr_vendor.o
 .text.usb_usr_vendor_consumer_write
                0x0000000000000000       0x14 Output\obj\project\wireless_peripheral\modules\usb\usr\usb_usr_vendor.o
 .text.usb_usr_vendor_app_write
                0x0000000000000000       0x66 Output\obj\project\wireless_peripheral\modules\usb\usr\usb_usr_vendor.o
 .text.usb_usr_vendor_dbg_write
                0x0000000000000000       0x5a Output\obj\project\wireless_peripheral\modules\usb\usr\usb_usr_vendor.o
 .rodata.str1.4
                0x0000000000000000       0x2b Output\obj\project\wireless_peripheral\modules\usb\usr\usb_usr_vendor.o
 .sbss          0x0000000000000000       0x20 Output\obj\project\wireless_peripheral\modules\usb\usr\usb_usr_vendor.o
 .comment       0x0000000000000000       0x12 Output\obj\project\wireless_peripheral\modules\usb\usr\usb_usr_vendor.o
 .text          0x0000000000000000        0x0 Output\obj\project\wireless_peripheral\modules\wireless\wireless_init.o
 .data          0x0000000000000000        0x0 Output\obj\project\wireless_peripheral\modules\wireless\wireless_init.o
 .bss           0x0000000000000000        0x0 Output\obj\project\wireless_peripheral\modules\wireless\wireless_init.o
 .text.wireless_link_info_clear
                0x0000000000000000       0x34 Output\obj\project\wireless_peripheral\modules\wireless\wireless_init.o
 .text.soft_timer_5ms_disable
                0x0000000000000000       0x10 Output\obj\project\wireless_peripheral\modules\wireless\wireless_init.o
 .text.soft_timer_5ms_enable
                0x0000000000000000       0x10 Output\obj\project\wireless_peripheral\modules\wireless\wireless_init.o
 .text          0x0000000000000000        0x0 Output\obj\project\wireless_peripheral\modules\wireless\wireless_service.o
 .data          0x0000000000000000        0x0 Output\obj\project\wireless_peripheral\modules\wireless\wireless_service.o
 .text          0x0000000000000000        0x0 Output\obj\project\wireless_peripheral\prod_test\iodm\prod_test_iodm.o
 .data          0x0000000000000000        0x0 Output\obj\project\wireless_peripheral\prod_test\iodm\prod_test_iodm.o
 .bss           0x0000000000000000        0x0 Output\obj\project\wireless_peripheral\prod_test\iodm\prod_test_iodm.o
 .comment       0x0000000000000000       0x12 Output\obj\project\wireless_peripheral\prod_test\iodm\prod_test_iodm.o
 .text          0x0000000000000000        0x0 Output\obj\project\wireless_peripheral\prod_test\prod_test.o
 .data          0x0000000000000000        0x0 Output\obj\project\wireless_peripheral\prod_test\prod_test.o
 .bss           0x0000000000000000        0x0 Output\obj\project\wireless_peripheral\prod_test\prod_test.o
 .text          0x0000000000000000        0x0 Output\obj\project\wireless_peripheral\strong_symbol.o
 .data          0x0000000000000000        0x0 Output\obj\project\wireless_peripheral\strong_symbol.o
 .bss           0x0000000000000000        0x0 Output\obj\project\wireless_peripheral\strong_symbol.o
 .text.param_xosc_write
                0x0000000000000000       0x24 Output\obj\project\wireless_peripheral\strong_symbol.o
 .com_text.timer
                0x0000000000000000        0x8 Output\obj\project\wireless_peripheral\strong_symbol.o
 .text          0x0000000000000000        0x0 ..\..\libs\cpu\libplatform.a(audio_mic.o)
 .data          0x0000000000000000        0x0 ..\..\libs\cpu\libplatform.a(audio_mic.o)
 .bss           0x0000000000000000       0x18 ..\..\libs\cpu\libplatform.a(audio_mic.o)
 .text.audio_mic_get_mic_type
                0x0000000000000000        0xa ..\..\libs\cpu\libplatform.a(audio_mic.o)
 .text.audio_mic_get_mic_gain
                0x0000000000000000        0xa ..\..\libs\cpu\libplatform.a(audio_mic.o)
 .text.audio_mic_get_mic_trim
                0x0000000000000000        0xa ..\..\libs\cpu\libplatform.a(audio_mic.o)
 .text.audio_mic_pb10_pdpu
                0x0000000000000000       0x2e ..\..\libs\cpu\libplatform.a(audio_mic.o)
 .text.audio_mic_power
                0x0000000000000000      0x102 ..\..\libs\cpu\libplatform.a(audio_mic.o)
 .text.audio_mic_analog_init
                0x0000000000000000      0x2cc ..\..\libs\cpu\libplatform.a(audio_mic.o)
 .comment       0x0000000000000000       0x13 ..\..\libs\cpu\libplatform.a(audio_mic.o)
 .riscv.attributes
                0x0000000000000000       0x32 ..\..\libs\cpu\libplatform.a(audio_mic.o)
 .text          0x0000000000000000        0x0 ..\..\libs\cpu\libplatform.a(audio_mic_trim.o)
 .data          0x0000000000000000        0x0 ..\..\libs\cpu\libplatform.a(audio_mic_trim.o)
 .bss           0x0000000000000000       0x18 ..\..\libs\cpu\libplatform.a(audio_mic_trim.o)
 .text.audio_mic_trim_sta_set
                0x0000000000000000        0xa ..\..\libs\cpu\libplatform.a(audio_mic_trim.o)
 .text.audio_mic_trim_sta_get
                0x0000000000000000        0xa ..\..\libs\cpu\libplatform.a(audio_mic_trim.o)
 .text.audio_mic_dbg
                0x0000000000000000       0x9e ..\..\libs\cpu\libplatform.a(audio_mic_trim.o)
 .text.audio_micdc_trim_step0_init
                0x0000000000000000       0x42 ..\..\libs\cpu\libplatform.a(audio_mic_trim.o)
 .text.audio_micdc_trim_step0_waiting
                0x0000000000000000       0x14 ..\..\libs\cpu\libplatform.a(audio_mic_trim.o)
 .rodata.str1.4
                0x0000000000000000       0x40 ..\..\libs\cpu\libplatform.a(audio_mic_trim.o)
 .text.audio_micdc_trim_step0_run
                0x0000000000000000      0x146 ..\..\libs\cpu\libplatform.a(audio_mic_trim.o)
 .text.audio_micdc_trim_step1_init
                0x0000000000000000       0x20 ..\..\libs\cpu\libplatform.a(audio_mic_trim.o)
 .text.audio_micdc_trim_step1_waiting
                0x0000000000000000       0x12 ..\..\libs\cpu\libplatform.a(audio_mic_trim.o)
 .text.audio_micdc_trim_step1_run
                0x0000000000000000       0x26 ..\..\libs\cpu\libplatform.a(audio_mic_trim.o)
 .text.audio_micdc_trim_step2_init
                0x0000000000000000        0x8 ..\..\libs\cpu\libplatform.a(audio_mic_trim.o)
 .text.audio_micdc_trim_step2_waiting
                0x0000000000000000        0x8 ..\..\libs\cpu\libplatform.a(audio_mic_trim.o)
 .text.audio_micdc_trim_step2_run
                0x0000000000000000        0xe ..\..\libs\cpu\libplatform.a(audio_mic_trim.o)
 .text.micin_config
                0x0000000000000000       0x64 ..\..\libs\cpu\libplatform.a(audio_mic_trim.o)
 .text.audio_micin_trim_step0_init
                0x0000000000000000       0x3a ..\..\libs\cpu\libplatform.a(audio_mic_trim.o)
 .text.audio_micin_trim_step0_waiting
                0x0000000000000000       0x14 ..\..\libs\cpu\libplatform.a(audio_mic_trim.o)
 .text.audio_micin_trim_step0_run
                0x0000000000000000       0x60 ..\..\libs\cpu\libplatform.a(audio_mic_trim.o)
 .text.audio_micin_trim_step1_init
                0x0000000000000000       0x2e ..\..\libs\cpu\libplatform.a(audio_mic_trim.o)
 .text.audio_micin_trim_step1_waiting
                0x0000000000000000        0x8 ..\..\libs\cpu\libplatform.a(audio_mic_trim.o)
 .text.audio_micin_trim_step1_run
                0x0000000000000000       0x4c ..\..\libs\cpu\libplatform.a(audio_mic_trim.o)
 .text.audio_micin_trim_step2_run
                0x0000000000000000       0x64 ..\..\libs\cpu\libplatform.a(audio_mic_trim.o)
 .text.audio_mic_trim_proc
                0x0000000000000000      0x180 ..\..\libs\cpu\libplatform.a(audio_mic_trim.o)
 .text.audio_mic_trim_is_finish
                0x0000000000000000       0x10 ..\..\libs\cpu\libplatform.a(audio_mic_trim.o)
 .rodata        0x0000000000000000       0x98 ..\..\libs\cpu\libplatform.a(audio_mic_trim.o)
 .comment       0x0000000000000000       0x13 ..\..\libs\cpu\libplatform.a(audio_mic_trim.o)
 .riscv.attributes
                0x0000000000000000       0x32 ..\..\libs\cpu\libplatform.a(audio_mic_trim.o)
 .text          0x0000000000000000        0x0 ..\..\libs\cpu\libplatform.a(cm.o)
 .data          0x0000000000000000        0x0 ..\..\libs\cpu\libplatform.a(cm.o)
 .text.cm_move_allpages
                0x0000000000000000      0x13e ..\..\libs\cpu\libplatform.a(cm.o)
 .text.cm_get_startaddr
                0x0000000000000000        0xa ..\..\libs\cpu\libplatform.a(cm.o)
 .text.cm_get_area
                0x0000000000000000       0x14 ..\..\libs\cpu\libplatform.a(cm.o)
 .text.cm_release_all
                0x0000000000000000       0x8c ..\..\libs\cpu\libplatform.a(cm.o)
 .text.cm_read8
                0x0000000000000000       0x28 ..\..\libs\cpu\libplatform.a(cm.o)
 .text.cm_read16
                0x0000000000000000       0x28 ..\..\libs\cpu\libplatform.a(cm.o)
 .text.cm_read32
                0x0000000000000000       0x24 ..\..\libs\cpu\libplatform.a(cm.o)
 .text.cm_write8
                0x0000000000000000       0x28 ..\..\libs\cpu\libplatform.a(cm.o)
 .text.cm_write16
                0x0000000000000000       0x28 ..\..\libs\cpu\libplatform.a(cm.o)
 .text.cm_write32
                0x0000000000000000       0x24 ..\..\libs\cpu\libplatform.a(cm.o)
 .text.cm_clear
                0x0000000000000000       0x60 ..\..\libs\cpu\libplatform.a(cm.o)
 .text          0x0000000000000000        0x0 ..\..\libs\cpu\libplatform.a(os_flash.o)
 .data          0x0000000000000000        0x0 ..\..\libs\cpu\libplatform.a(os_flash.o)
 .bss           0x0000000000000000        0x0 ..\..\libs\cpu\libplatform.a(os_flash.o)
 .com_text.spiflash.id
                0x0000000000000000        0x8 ..\..\libs\cpu\libplatform.a(os_flash.o)
 .text          0x0000000000000000        0x0 ..\..\libs\cpu\libplatform.a(xcfg.o)
 .data          0x0000000000000000        0x0 ..\..\libs\cpu\libplatform.a(xcfg.o)
 .bss           0x0000000000000000        0x0 ..\..\libs\cpu\libplatform.a(xcfg.o)
 .text          0x0000000000000000        0x0 ..\..\libs\cpu\libplatform.a(adpcm.o)
 .data          0x0000000000000000        0x0 ..\..\libs\cpu\libplatform.a(adpcm.o)
 .bss           0x0000000000000000        0x0 ..\..\libs\cpu\libplatform.a(adpcm.o)
 .com_text.adpcm.dec
                0x0000000000000000      0x13c ..\..\libs\cpu\libplatform.a(adpcm.o)
 .text.adpcm_sample_idx_set
                0x0000000000000000        0xa ..\..\libs\cpu\libplatform.a(adpcm.o)
 .text.adpcm_sample_idx_reset
                0x0000000000000000       0x46 ..\..\libs\cpu\libplatform.a(adpcm.o)
 .text.adpcm_sample_idx_get
                0x0000000000000000        0xa ..\..\libs\cpu\libplatform.a(adpcm.o)
 .text.adpcm_presample_set
                0x0000000000000000        0xa ..\..\libs\cpu\libplatform.a(adpcm.o)
 .text.adpcm_presample_get
                0x0000000000000000        0xa ..\..\libs\cpu\libplatform.a(adpcm.o)
 .com_text.adpcm.enc
                0x0000000000000000       0x30 ..\..\libs\cpu\libplatform.a(adpcm.o)
 .sbss          0x0000000000000000       0x10 ..\..\libs\cpu\libplatform.a(adpcm.o)
 .comment       0x0000000000000000       0x13 ..\..\libs\cpu\libplatform.a(adpcm.o)
 .riscv.attributes
                0x0000000000000000       0x32 ..\..\libs\cpu\libplatform.a(adpcm.o)
 .text          0x0000000000000000        0x0 ..\..\libs\cpu\libplatform.a(device.o)
 .data          0x0000000000000000        0x0 ..\..\libs\cpu\libplatform.a(device.o)
 .bss           0x0000000000000000        0x0 ..\..\libs\cpu\libplatform.a(device.o)
 .text.device.init
                0x0000000000000000       0x88 ..\..\libs\cpu\libplatform.a(device.o)
 .com_text.device
                0x0000000000000000       0xf8 ..\..\libs\cpu\libplatform.a(device.o)
 .buf.device.cb
                0x0000000000000000        0xa ..\..\libs\cpu\libplatform.a(device.o)
 .comment       0x0000000000000000       0x13 ..\..\libs\cpu\libplatform.a(device.o)
 .riscv.attributes
                0x0000000000000000       0x32 ..\..\libs\cpu\libplatform.a(device.o)
 .text          0x0000000000000000        0x0 ..\..\libs\cpu\libplatform.a(main.o)
 .data          0x0000000000000000        0x0 ..\..\libs\cpu\libplatform.a(main.o)
 .text          0x0000000000000000        0x0 ..\..\libs\cpu\libplatform.a(interrupt.o)
 .data          0x0000000000000000        0x0 ..\..\libs\cpu\libplatform.a(interrupt.o)
 .bss           0x0000000000000000        0x0 ..\..\libs\cpu\libplatform.a(interrupt.o)
 .com_text.irq.wpt
                0x0000000000000000       0x3e ..\..\libs\cpu\libplatform.a(interrupt.o)
 .rodata.str1.4
                0x0000000000000000       0x28 ..\..\libs\cpu\libplatform.a(interrupt.o)
 .text.watch_point_set
                0x0000000000000000       0x5c ..\..\libs\cpu\libplatform.a(interrupt.o)
 .text.wdt_init
                0x0000000000000000       0x3a ..\..\libs\cpu\libplatform.a(interrupt.o)
 .text.usb_irq_init
                0x0000000000000000       0x2e ..\..\libs\cpu\libplatform.a(interrupt.o)
 .com_rodata.irq.wpt
                0x0000000000000000       0x1b ..\..\libs\cpu\libplatform.a(interrupt.o)
 .text          0x0000000000000000        0x0 ..\..\libs\cpu\libplatform.a(startup.o)
 .data          0x0000000000000000        0x0 ..\..\libs\cpu\libplatform.a(startup.o)
 .bss           0x0000000000000000        0x0 ..\..\libs\cpu\libplatform.a(startup.o)
 .com_text.timer
                0x0000000000000000       0x16 ..\..\libs\cpu\libplatform.a(startup.o)
 .text.mem_heap_size_get
                0x0000000000000000        0x6 ..\..\libs\cpu\libplatform.a(startup.o)
 .text.thread_cfg_get
                0x0000000000000000        0x4 ..\..\libs\cpu\libplatform.a(startup.o)
 .text.thread_timer_create
                0x0000000000000000       0x76 ..\..\libs\cpu\libplatform.a(startup.o)
 .text.thread_btstack_create
                0x0000000000000000       0x96 ..\..\libs\cpu\libplatform.a(startup.o)
 .text.thread_driver_create
                0x0000000000000000       0x70 ..\..\libs\cpu\libplatform.a(startup.o)
 .text.thread_create_callback
                0x0000000000000000       0x28 ..\..\libs\cpu\libplatform.a(startup.o)
 .text.bt_set_timer_enable
                0x0000000000000000       0x18 ..\..\libs\cpu\libplatform.a(startup.o)
 .bss.btstack   0x0000000000000000        0x4 ..\..\libs\cpu\libplatform.a(startup.o)
 .bss.driver    0x0000000000000000        0x4 ..\..\libs\cpu\libplatform.a(startup.o)
 .bss.timer     0x0000000000000000       0x28 ..\..\libs\cpu\libplatform.a(startup.o)
 .osmem         0x0000000000000000      0x600 ..\..\libs\cpu\libplatform.a(startup.o)
 .text          0x0000000000000000        0x0 ..\..\libs\cpu\libplatform.a(sys_hook.o)
 .data          0x0000000000000000        0x0 ..\..\libs\cpu\libplatform.a(sys_hook.o)
 .bss           0x0000000000000000        0x0 ..\..\libs\cpu\libplatform.a(sys_hook.o)
 .text          0x0000000000000000        0x0 ..\..\libs\cpu\libplatform.a(thread_driver.o)
 .data          0x0000000000000000        0x0 ..\..\libs\cpu\libplatform.a(thread_driver.o)
 .bss           0x0000000000000000        0x0 ..\..\libs\cpu\libplatform.a(thread_driver.o)
 .com_text.thread.driver.usb
                0x0000000000000000       0x4e ..\..\libs\cpu\libplatform.a(thread_driver.o)
 .com_text.thread.driver.vs
                0x0000000000000000       0x4e ..\..\libs\cpu\libplatform.a(thread_driver.o)
 .text.thread.driver.usb
                0x0000000000000000       0x1a ..\..\libs\cpu\libplatform.a(thread_driver.o)
 .text.thread.driver.vs
                0x0000000000000000       0x1a ..\..\libs\cpu\libplatform.a(thread_driver.o)
 .com_text.thread.driver.enter
                0x0000000000000000       0x5c ..\..\libs\cpu\libplatform.a(thread_driver.o)
 .sbss          0x0000000000000000        0x8 ..\..\libs\cpu\libplatform.a(thread_driver.o)
 .comment       0x0000000000000000       0x13 ..\..\libs\cpu\libplatform.a(thread_driver.o)
 .riscv.attributes
                0x0000000000000000       0x32 ..\..\libs\cpu\libplatform.a(thread_driver.o)
 .text          0x0000000000000000        0x0 ..\..\libs\cpu\libplatform.a(pll.o)
 .data          0x0000000000000000        0x0 ..\..\libs\cpu\libplatform.a(pll.o)
 .bss           0x0000000000000000        0x0 ..\..\libs\cpu\libplatform.a(pll.o)
 .text.pll_clk_nhz_get
                0x0000000000000000        0xa ..\..\libs\cpu\libplatform.a(pll.o)
 .text.pll_ext_init
                0x0000000000000000      0x204 ..\..\libs\cpu\libplatform.a(pll.o)
 .text          0x0000000000000000        0x0 ..\..\libs\cpu\libplatform.a(pmu.o)
 .data          0x0000000000000000        0x0 ..\..\libs\cpu\libplatform.a(pmu.o)
 .bss           0x0000000000000000        0x0 ..\..\libs\cpu\libplatform.a(pmu.o)
 .com_text.trim.core_get
                0x0000000000000000        0xa ..\..\libs\cpu\libplatform.a(pmu.o)
 .com_text.trim.core_set
                0x0000000000000000       0x16 ..\..\libs\cpu\libplatform.a(pmu.o)
 .com_text.trim.lvd_get
                0x0000000000000000        0xa ..\..\libs\cpu\libplatform.a(pmu.o)
 .com_text.pmu.vddbt_set
                0x0000000000000000        0xe ..\..\libs\cpu\libplatform.a(pmu.o)
 .com_text.pmu.vddbt_get
                0x0000000000000000        0x8 ..\..\libs\cpu\libplatform.a(pmu.o)
 .text          0x0000000000000000        0x0 ..\..\libs\cpu\libplatform.a(reset.o)
 .data          0x0000000000000000        0x0 ..\..\libs\cpu\libplatform.a(reset.o)
 .bss           0x0000000000000000        0x0 ..\..\libs\cpu\libplatform.a(reset.o)
 .com_text.irq  0x0000000000000000        0xe ..\..\libs\cpu\libplatform.a(reset.o)
 .text          0x0000000000000000        0x0 ..\..\libs\cpu\libplatform.a(context.o)
 .data          0x0000000000000000        0x0 ..\..\libs\cpu\libplatform.a(context.o)
 .bss           0x0000000000000000        0x0 ..\..\libs\cpu\libplatform.a(context.o)
 .riscv.attributes
                0x0000000000000000       0x30 ..\..\libs\cpu\libplatform.a(context.o)
 .text          0x0000000000000000        0x0 ..\..\libs\cpu\libplatform.a(debug.o)
 .data          0x0000000000000000        0x0 ..\..\libs\cpu\libplatform.a(debug.o)
 .bss           0x0000000000000000        0x0 ..\..\libs\cpu\libplatform.a(debug.o)
 .text.debug_dump_info_nanos_schedule
                0x0000000000000000        0x2 ..\..\libs\cpu\libplatform.a(debug.o)
 .text.debug_dump_info_nanos_timer
                0x0000000000000000        0x2 ..\..\libs\cpu\libplatform.a(debug.o)
 .text          0x0000000000000000        0x0 ..\..\libs\cpu\libplatform.a(key.o)
 .data          0x0000000000000000        0x0 ..\..\libs\cpu\libplatform.a(key.o)
 .bss           0x0000000000000000        0x0 ..\..\libs\cpu\libplatform.a(key.o)
 .text          0x0000000000000000        0x0 ..\..\libs\cpu\libplatform.a(lock.o)
 .data          0x0000000000000000        0x0 ..\..\libs\cpu\libplatform.a(lock.o)
 .bss           0x0000000000000000        0x0 ..\..\libs\cpu\libplatform.a(lock.o)
 .rodata.str1.4
                0x0000000000000000       0x16 ..\..\libs\cpu\libplatform.a(lock.o)
 .text.lock_code_usbdev
                0x0000000000000000       0x58 ..\..\libs\cpu\libplatform.a(lock.o)
 .text.unlock_code_usbdev
                0x0000000000000000       0x2c ..\..\libs\cpu\libplatform.a(lock.o)
 .text          0x0000000000000000        0x0 ..\..\libs\cpu\libplatform.a(patch.o)
 .data          0x0000000000000000        0x0 ..\..\libs\cpu\libplatform.a(patch.o)
 .bss           0x0000000000000000        0x0 ..\..\libs\cpu\libplatform.a(patch.o)
 .text          0x0000000000000000        0x0 ..\..\libs\cpu\libplatform.a(s_sys.o)
 .data          0x0000000000000000        0x0 ..\..\libs\cpu\libplatform.a(s_sys.o)
 .bss           0x0000000000000000        0x0 ..\..\libs\cpu\libplatform.a(s_sys.o)
 .com_text.sys.alu
                0x0000000000000000       0x66 ..\..\libs\cpu\libplatform.a(s_sys.o)
 .text          0x0000000000000000        0x0 ..\..\libs\cpu\libplatform.a(sleep.o)
 .data          0x0000000000000000        0x0 ..\..\libs\cpu\libplatform.a(sleep.o)
 .bss           0x0000000000000000        0x0 ..\..\libs\cpu\libplatform.a(sleep.o)
 .com_sleep.lp.sleep
                0x0000000000000000       0x7e ..\..\libs\cpu\libplatform.a(sleep.o)
 .comment       0x0000000000000000       0x13 ..\..\libs\cpu\libplatform.a(sleep.o)
 .riscv.attributes
                0x0000000000000000       0x32 ..\..\libs\cpu\libplatform.a(sleep.o)
 .text          0x0000000000000000        0x0 ..\..\libs\cpu\libplatform.a(sys.o)
 .data          0x0000000000000000        0x0 ..\..\libs\cpu\libplatform.a(sys.o)
 .bss           0x0000000000000000        0x0 ..\..\libs\cpu\libplatform.a(sys.o)
 .text.dbg_clk_out
                0x0000000000000000       0x46 ..\..\libs\cpu\libplatform.a(sys.o)
 .com_text.sys  0x0000000000000000       0x1e ..\..\libs\cpu\libplatform.a(sys.o)
 .text.sw_reset_source_get
                0x0000000000000000       0x2a ..\..\libs\cpu\libplatform.a(sys.o)
 .text.random_init
                0x0000000000000000        0xa ..\..\libs\cpu\libplatform.a(sys.o)
 .text.sys_get_rand_key
                0x0000000000000000       0x6c ..\..\libs\cpu\libplatform.a(sys.o)
 .text.get_random
                0x0000000000000000       0x26 ..\..\libs\cpu\libplatform.a(sys.o)
 .text.bsp.param
                0x0000000000000000       0x32 ..\..\libs\cpu\libplatform.a(sys.o)
 .text.bt_restore_xosc_cap
                0x0000000000000000        0x8 ..\..\libs\cpu\libplatform.a(sys.o)
 .text.bt_get_xosc_cap
                0x0000000000000000        0xc ..\..\libs\cpu\libplatform.a(sys.o)
 .text.bt_set_xosc_cap
                0x0000000000000000       0x18 ..\..\libs\cpu\libplatform.a(sys.o)
 .text.bt_adj_xosc_cap
                0x0000000000000000       0x72 ..\..\libs\cpu\libplatform.a(sys.o)
 .text.__divdi3
                0x0000000000000000       0x5c ..\..\libs\cpu\libplatform.a(sys.o)
 .text.__umoddi3
                0x0000000000000000       0x30 ..\..\libs\cpu\libplatform.a(sys.o)
 .text          0x0000000000000000        0x0 ..\..\libs\cpu\libplatform.a(sys_clk.o)
 .data          0x0000000000000000        0x0 ..\..\libs\cpu\libplatform.a(sys_clk.o)
 .bss           0x0000000000000000        0x0 ..\..\libs\cpu\libplatform.a(sys_clk.o)
 .text.periph_cacl_clkdiv
                0x0000000000000000        0x2 ..\..\libs\cpu\libplatform.a(sys_clk.o)
 .text.sys_clk_nhz_get
                0x0000000000000000       0x5e ..\..\libs\cpu\libplatform.a(sys_clk.o)
 .text.sys_clk_get
                0x0000000000000000        0xa ..\..\libs\cpu\libplatform.a(sys_clk.o)
 .text.sys_clk_lower_limit_lock
                0x0000000000000000       0x84 ..\..\libs\cpu\libplatform.a(sys_clk.o)
 .text.sys_clk_lower_limit_unlock
                0x0000000000000000       0x6c ..\..\libs\cpu\libplatform.a(sys_clk.o)
 .text.sys_clk_lower_limit_all_unlock
                0x0000000000000000       0x50 ..\..\libs\cpu\libplatform.a(sys_clk.o)
 .sbss          0x0000000000000000        0x1 ..\..\libs\cpu\libplatform.a(sys_clk.o)
 .srodata       0x0000000000000000        0x4 ..\..\libs\cpu\libplatform.a(sys_clk.o)
 .text          0x0000000000000000        0x0 ..\..\libs\cpu\libplatform.a(voltage_trim.o)
 .data          0x0000000000000000        0x0 ..\..\libs\cpu\libplatform.a(voltage_trim.o)
 .bss           0x0000000000000000        0x0 ..\..\libs\cpu\libplatform.a(voltage_trim.o)
 .rodata.str1.4
                0x0000000000000000       0x63 ..\..\libs\cpu\libplatform.a(voltage_trim.o)
 .text.voltage_trim_value_dump
                0x0000000000000000       0x8c ..\..\libs\cpu\libplatform.a(voltage_trim.o)
 .text          0x0000000000000000        0x0 ..\..\libs\cpu\libplatform.a(weak_symbol.o)
 .data          0x0000000000000000        0x0 ..\..\libs\cpu\libplatform.a(weak_symbol.o)
 .bss           0x0000000000000000       0x20 ..\..\libs\cpu\libplatform.a(weak_symbol.o)
 .text.xosc_get_xcfg
                0x0000000000000000        0x2 ..\..\libs\cpu\libplatform.a(weak_symbol.o)
 .text.param_xosc_read
                0x0000000000000000        0x2 ..\..\libs\cpu\libplatform.a(weak_symbol.o)
 .text.param_xosc_write
                0x0000000000000000        0x2 ..\..\libs\cpu\libplatform.a(weak_symbol.o)
 .text.sys_clk_change_callback
                0x0000000000000000        0x2 ..\..\libs\cpu\libplatform.a(weak_symbol.o)
 .text.uart_debug_init_callback
                0x0000000000000000        0x2 ..\..\libs\cpu\libplatform.a(weak_symbol.o)
 .text.nanos_var_init
                0x0000000000000000       0x1a ..\..\libs\cpu\libplatform.a(weak_symbol.o)
 .text.btstack_message
                0x0000000000000000        0x4 ..\..\libs\cpu\libplatform.a(weak_symbol.o)
 .com_text.stack.api
                0x0000000000000000        0x4 ..\..\libs\cpu\libplatform.a(weak_symbol.o)
 .com_text.ret.stack.thread
                0x0000000000000000        0x2 ..\..\libs\cpu\libplatform.a(weak_symbol.o)
 .com_text.bb.isr
                0x0000000000000000        0x6 ..\..\libs\cpu\libplatform.a(weak_symbol.o)
 .text.btstack_var_init
                0x0000000000000000        0x2 ..\..\libs\cpu\libplatform.a(weak_symbol.o)
 .com_text.stack.run_loop
                0x0000000000000000        0x2 ..\..\libs\cpu\libplatform.a(weak_symbol.o)
 .text.bb_patch_init
                0x0000000000000000        0x4 ..\..\libs\cpu\libplatform.a(weak_symbol.o)
 .text.bb_nanos_mem_init
                0x0000000000000000        0x2 ..\..\libs\cpu\libplatform.a(weak_symbol.o)
 .text          0x0000000000000000        0x0 ..\..\libs\cpu\libplatform.a(bt.o)
 .data          0x0000000000000000        0x0 ..\..\libs\cpu\libplatform.a(bt.o)
 .bss           0x0000000000000000        0x0 ..\..\libs\cpu\libplatform.a(bt.o)
 .com_text.stack.api
                0x0000000000000000       0x34 ..\..\libs\cpu\libplatform.a(bt.o)
 .com_text.stack.thread
                0x0000000000000000       0x36 ..\..\libs\cpu\libplatform.a(bt.o)
 .com_text.stack.run_loop
                0x0000000000000000       0x50 ..\..\libs\cpu\libplatform.a(bt.o)
 .comment       0x0000000000000000       0x13 ..\..\libs\cpu\libplatform.a(bt.o)
 .riscv.attributes
                0x0000000000000000       0x32 ..\..\libs\cpu\libplatform.a(bt.o)
 .text          0x0000000000000000        0x0 ..\..\libs\cpu\libplatform.a(freq_det.o)
 .data          0x0000000000000000        0x0 ..\..\libs\cpu\libplatform.a(freq_det.o)
 .bss           0x0000000000000000        0x0 ..\..\libs\cpu\libplatform.a(freq_det.o)
 .com_sleep.sleep.rc
                0x0000000000000000       0x44 ..\..\libs\cpu\libplatform.a(freq_det.o)
 .text          0x0000000000000000        0x0 ..\..\libs\usb\libusb.a(usb_comm.o)
 .data          0x0000000000000000        0x0 ..\..\libs\usb\libusb.a(usb_comm.o)
 .bss           0x0000000000000000        0x0 ..\..\libs\usb\libusb.a(usb_comm.o)
 .com_text.thread.driver.usb
                0x0000000000000000       0x5e ..\..\libs\usb\libusb.a(usb_comm.o)
 .text.usb_handler_register
                0x0000000000000000        0xa ..\..\libs\usb\libusb.a(usb_comm.o)
 .text.usb_sof_hook_register
                0x0000000000000000        0xa ..\..\libs\usb\libusb.a(usb_comm.o)
 .text.usb_disable
                0x0000000000000000       0x2a ..\..\libs\usb\libusb.a(usb_comm.o)
 .text.usb_init
                0x0000000000000000       0xa6 ..\..\libs\usb\libusb.a(usb_comm.o)
 .com_text.usbdev.com
                0x0000000000000000       0x20 ..\..\libs\usb\libusb.a(usb_comm.o)
 .text.usb_interrupt_init
                0x0000000000000000       0x9a ..\..\libs\usb\libusb.a(usb_comm.o)
 .usbdev.com    0x0000000000000000       0x12 ..\..\libs\usb\libusb.a(usb_comm.o)
 .text.usb_device_suspend_enable
                0x0000000000000000        0xe ..\..\libs\usb\libusb.a(usb_comm.o)
 .text.usb_device_is_suspend
                0x0000000000000000        0xa ..\..\libs\usb\libusb.a(usb_comm.o)
 .text.usb_suspend
                0x0000000000000000        0xe ..\..\libs\usb\libusb.a(usb_comm.o)
 .text.usb_device_resume
                0x0000000000000000       0x3e ..\..\libs\usb\libusb.a(usb_comm.o)
 .com_text.irq  0x0000000000000000       0x12 ..\..\libs\usb\libusb.a(usb_comm.o)
 .sbss          0x0000000000000000        0x8 ..\..\libs\usb\libusb.a(usb_comm.o)
 .comment       0x0000000000000000       0x13 ..\..\libs\usb\libusb.a(usb_comm.o)
 .riscv.attributes
                0x0000000000000000       0x32 ..\..\libs\usb\libusb.a(usb_comm.o)
 .text          0x0000000000000000        0x0 ..\..\libs\usb\libusb.a(usb_detect.o)
 .data          0x0000000000000000        0x0 ..\..\libs\usb\libusb.a(usb_detect.o)
 .bss           0x0000000000000000        0x0 ..\..\libs\usb\libusb.a(usb_detect.o)
 .com_text.usb.dect.otg_dev
                0x0000000000000000       0x14 ..\..\libs\usb\libusb.a(usb_detect.o)
 .com_text.usb.dect.otg_host
                0x0000000000000000       0x14 ..\..\libs\usb\libusb.a(usb_detect.o)
 .com_text.usb.dect.host
                0x0000000000000000       0x12 ..\..\libs\usb\libusb.a(usb_detect.o)
 .com_text.usb.dect.dev
                0x0000000000000000       0x14 ..\..\libs\usb\libusb.a(usb_detect.o)
 .com_text.usb.dect.pc
                0x0000000000000000       0x10 ..\..\libs\usb\libusb.a(usb_detect.o)
 .com_text.usb.dect.proc
                0x0000000000000000       0xba ..\..\libs\usb\libusb.a(usb_detect.o)
 .buf.usbchk.cb
                0x0000000000000000        0x2 ..\..\libs\usb\libusb.a(usb_detect.o)
 .comment       0x0000000000000000       0x13 ..\..\libs\usb\libusb.a(usb_detect.o)
 .riscv.attributes
                0x0000000000000000       0x32 ..\..\libs\usb\libusb.a(usb_detect.o)
 .text          0x0000000000000000        0x0 ..\..\libs\usb\libusb.a(usb_device_enum.o)
 .data          0x0000000000000000        0x0 ..\..\libs\usb\libusb.a(usb_device_enum.o)
 .bss           0x0000000000000000        0x0 ..\..\libs\usb\libusb.a(usb_device_enum.o)
 .usbdev.com    0x0000000000000000      0x2d4 ..\..\libs\usb\libusb.a(usb_device_enum.o)
 .text.ude_init
                0x0000000000000000       0x5e ..\..\libs\usb\libusb.a(usb_device_enum.o)
 .buf.usb.ctrl  0x0000000000000000       0x44 ..\..\libs\usb\libusb.a(usb_device_enum.o)
 .usb_buf.usb   0x0000000000000000       0x24 ..\..\libs\usb\libusb.a(usb_device_enum.o)
 .comment       0x0000000000000000       0x13 ..\..\libs\usb\libusb.a(usb_device_enum.o)
 .riscv.attributes
                0x0000000000000000       0x32 ..\..\libs\usb\libusb.a(usb_device_enum.o)
 .text          0x0000000000000000        0x0 ..\..\libs\usb\libusb.a(usb_device_ep.o)
 .data          0x0000000000000000        0x0 ..\..\libs\usb\libusb.a(usb_device_ep.o)
 .bss           0x0000000000000000       0x28 ..\..\libs\usb\libusb.a(usb_device_ep.o)
 .usbdev.com.ep.cur_set
                0x0000000000000000       0x1a ..\..\libs\usb\libusb.a(usb_device_ep.o)
 .text.usb_ep_get_max_len
                0x0000000000000000       0x12 ..\..\libs\usb\libusb.a(usb_device_ep.o)
 .text.usb_ep_get_rx_len
                0x0000000000000000       0x34 ..\..\libs\usb\libusb.a(usb_device_ep.o)
 .text.usb_ep_clear_rx_fifo
                0x0000000000000000       0x2a ..\..\libs\usb\libusb.a(usb_device_ep.o)
 .text.usb_ep_get_for_index
                0x0000000000000000       0x20 ..\..\libs\usb\libusb.a(usb_device_ep.o)
 .text.usb_ep_init
                0x0000000000000000       0xb0 ..\..\libs\usb\libusb.a(usb_device_ep.o)
 .usbdev.co.ep.halt
                0x0000000000000000       0x62 ..\..\libs\usb\libusb.a(usb_device_ep.o)
 .text.usb_ep_clear
                0x0000000000000000       0x56 ..\..\libs\usb\libusb.a(usb_device_ep.o)
 .usbdev.com.ep.tx
                0x0000000000000000       0xdc ..\..\libs\usb\libusb.a(usb_device_ep.o)
 .text.usb_ep_reset
                0x0000000000000000       0xa4 ..\..\libs\usb\libusb.a(usb_device_ep.o)
 .com_rodata.epsize.table
                0x0000000000000000        0x4 ..\..\libs\usb\libusb.a(usb_device_ep.o)
 .comment       0x0000000000000000       0x13 ..\..\libs\usb\libusb.a(usb_device_ep.o)
 .riscv.attributes
                0x0000000000000000       0x32 ..\..\libs\usb\libusb.a(usb_device_ep.o)
 .text          0x0000000000000000        0x0 ..\..\libs\usb\libusb.a(usb_device_run_loop.o)
 .data          0x0000000000000000        0x0 ..\..\libs\usb\libusb.a(usb_device_run_loop.o)
 .bss           0x0000000000000000        0x0 ..\..\libs\usb\libusb.a(usb_device_run_loop.o)
 .text.usb_device_enter
                0x0000000000000000       0x8c ..\..\libs\usb\libusb.a(usb_device_run_loop.o)
 .text.usb_device_exit
                0x0000000000000000       0x32 ..\..\libs\usb\libusb.a(usb_device_run_loop.o)
 .usbdev.com    0x0000000000000000       0xe8 ..\..\libs\usb\libusb.a(usb_device_run_loop.o)
 .com_text.irq  0x0000000000000000        0x8 ..\..\libs\usb\libusb.a(usb_device_run_loop.o)
 .comment       0x0000000000000000       0x13 ..\..\libs\usb\libusb.a(usb_device_run_loop.o)
 .riscv.attributes
                0x0000000000000000       0x32 ..\..\libs\usb\libusb.a(usb_device_run_loop.o)
 .text          0x0000000000000000        0x0 ..\..\libs\wireless\libwireless_slave.a(wireless_api.o)
 .data          0x0000000000000000        0x0 ..\..\libs\wireless\libwireless_slave.a(wireless_api.o)
 .bss           0x0000000000000000        0x0 ..\..\libs\wireless\libwireless_slave.a(wireless_api.o)
 .text.le.sw.fcc
                0x0000000000000000       0x7e ..\..\libs\wireless\libwireless_slave.a(wireless_api.o)
 .data          0x0000000000000000        0x0 ..\..\libs\wireless\libwireless_slave.a(bb_api.o)
 .bss           0x0000000000000000        0x0 ..\..\libs\wireless\libwireless_slave.a(bb_api.o)
 .com_text.bt.timer
                0x0000000000000000       0xc0 ..\..\libs\wireless\libwireless_slave.a(bb_api.o)
 .com_text.sleep
                0x0000000000000000        0x8 ..\..\libs\wireless\libwireless_slave.a(bb_api.o)
 .com_sleep.sleep
                0x0000000000000000        0x8 ..\..\libs\wireless\libwireless_slave.a(bb_api.o)
 .data          0x0000000000000000        0x0 ..\..\libs\wireless\libwireless_slave.a(bb.o)
 .bss           0x0000000000000000        0x0 ..\..\libs\wireless\libwireless_slave.a(bb.o)
 .text          0x0000000000000000        0x0 ..\..\libs\wireless\libwireless_slave.a(bb_alarm.o)
 .data          0x0000000000000000        0x0 ..\..\libs\wireless\libwireless_slave.a(bb_alarm.o)
 .bss           0x0000000000000000        0x0 ..\..\libs\wireless\libwireless_slave.a(bb_alarm.o)
 .com_text.bb.isr.nest
                0x0000000000000000        0xa ..\..\libs\wireless\libwireless_slave.a(bb_alarm.o)
 .data          0x0000000000000000        0x0 ..\..\libs\wireless\libwireless_slave.a(bb_int.o)
 .bss           0x0000000000000000        0x0 ..\..\libs\wireless\libwireless_slave.a(bb_int.o)
 .com_text.bb.hs_get
                0x0000000000000000       0x22 ..\..\libs\wireless\libwireless_slave.a(bb_int.o)
 .com_sleep.bb  0x0000000000000000      0x1c0 ..\..\libs\wireless\libwireless_slave.a(bb_int.o)
 .text          0x0000000000000000        0x0 ..\..\libs\wireless\libwireless_slave.a(bb_sleep.o)
 .data          0x0000000000000000        0x0 ..\..\libs\wireless\libwireless_slave.a(bb_sleep.o)
 .bss           0x0000000000000000        0x0 ..\..\libs\wireless\libwireless_slave.a(bb_sleep.o)
 .com_sleep.bb  0x0000000000000000       0xa2 ..\..\libs\wireless\libwireless_slave.a(bb_sleep.o)
 .comment       0x0000000000000000       0x13 ..\..\libs\wireless\libwireless_slave.a(bb_sleep.o)
 .riscv.attributes
                0x0000000000000000       0x32 ..\..\libs\wireless\libwireless_slave.a(bb_sleep.o)
 .data          0x0000000000000000        0x0 ..\..\libs\wireless\libwireless_slave.a(ble.o)
 .bss           0x0000000000000000        0x0 ..\..\libs\wireless\libwireless_slave.a(ble.o)
 .data          0x0000000000000000        0x0 ..\..\libs\wireless\libwireless_slave.a(ble_buf.o)
 .text.le.stack
                0x0000000000000000       0x2c ..\..\libs\wireless\libwireless_slave.a(ble_buf.o)
 .data          0x0000000000000000        0x0 ..\..\libs\wireless\libwireless_slave.a(ble_adv.o)
 .bss           0x0000000000000000        0x0 ..\..\libs\wireless\libwireless_slave.a(ble_adv.o)
 .data          0x0000000000000000        0x0 ..\..\libs\wireless\libwireless_slave.a(ble_con.o)
 .bss           0x0000000000000000        0x0 ..\..\libs\wireless\libwireless_slave.a(ble_con.o)
 .data          0x0000000000000000        0x0 ..\..\libs\wireless\libwireless_slave.a(ble_hal.o)
 .bss           0x0000000000000000        0x0 ..\..\libs\wireless\libwireless_slave.a(ble_hal.o)
 .data          0x0000000000000000        0x0 ..\..\libs\wireless\libwireless_slave.a(ble_init.o)
 .bss           0x0000000000000000        0x0 ..\..\libs\wireless\libwireless_slave.a(ble_init.o)
 .data          0x0000000000000000        0x0 ..\..\libs\wireless\libwireless_slave.a(ble_scan.o)
 .bss           0x0000000000000000        0x0 ..\..\libs\wireless\libwireless_slave.a(ble_scan.o)
 .data          0x0000000000000000        0x0 ..\..\libs\wireless\libwireless_slave.a(ble_sync.o)
 .bss           0x0000000000000000        0x0 ..\..\libs\wireless\libwireless_slave.a(ble_sync.o)
 .data          0x0000000000000000        0x0 ..\..\libs\wireless\libwireless_slave.a(ble_test.o)
 .bss           0x0000000000000000        0x0 ..\..\libs\wireless\libwireless_slave.a(ble_test.o)
 .text          0x0000000000000000        0x0 ..\..\libs\wireless\libwireless_slave.a(ll.o)
 .data          0x0000000000000000        0x0 ..\..\libs\wireless\libwireless_slave.a(ll.o)
 .bss           0x0000000000000000        0x0 ..\..\libs\wireless\libwireless_slave.a(ll.o)
 .data          0x0000000000000000        0x0 ..\..\libs\wireless\libwireless_slave.a(ll_cntl.o)
 .bss           0x0000000000000000        0x0 ..\..\libs\wireless\libwireless_slave.a(ll_cntl.o)
 .data          0x0000000000000000        0x0 ..\..\libs\wireless\libwireless_slave.a(ll_con_upd.o)
 .bss           0x0000000000000000        0x0 ..\..\libs\wireless\libwireless_slave.a(ll_con_upd.o)
 .data          0x0000000000000000        0x0 ..\..\libs\wireless\libwireless_slave.a(ll_encrypt.o)
 .bss           0x0000000000000000        0x0 ..\..\libs\wireless\libwireless_slave.a(ll_encrypt.o)
 .data          0x0000000000000000        0x0 ..\..\libs\wireless\libwireless_slave.a(ll_feature.o)
 .bss           0x0000000000000000        0x0 ..\..\libs\wireless\libwireless_slave.a(ll_feature.o)
 .data          0x0000000000000000        0x0 ..\..\libs\wireless\libwireless_slave.a(ll_length.o)
 .bss           0x0000000000000000        0x0 ..\..\libs\wireless\libwireless_slave.a(ll_length.o)
 .data          0x0000000000000000        0x0 ..\..\libs\wireless\libwireless_slave.a(ll_phy_upd.o)
 .bss           0x0000000000000000        0x0 ..\..\libs\wireless\libwireless_slave.a(ll_phy_upd.o)
 .data          0x0000000000000000        0x0 ..\..\libs\wireless\libwireless_slave.a(ll_proc.o)
 .bss           0x0000000000000000        0x0 ..\..\libs\wireless\libwireless_slave.a(ll_proc.o)
 .data          0x0000000000000000        0x0 ..\..\libs\wireless\libwireless_slave.a(ll_version.o)
 .bss           0x0000000000000000        0x0 ..\..\libs\wireless\libwireless_slave.a(ll_version.o)
 .data          0x0000000000000000        0x0 ..\..\libs\wireless\libwireless_slave.a(mgr.o)
 .bss           0x0000000000000000        0x0 ..\..\libs\wireless\libwireless_slave.a(mgr.o)
 .data          0x0000000000000000        0x0 ..\..\libs\wireless\libwireless_slave.a(mgr_proc.o)
 .bss           0x0000000000000000        0x0 ..\..\libs\wireless\libwireless_slave.a(mgr_proc.o)
 .data          0x0000000000000000        0x0 ..\..\libs\wireless\libwireless_slave.a(mgr_test.o)
 .bss           0x0000000000000000        0x0 ..\..\libs\wireless\libwireless_slave.a(mgr_test.o)
 .data          0x0000000000000000        0x0 ..\..\libs\wireless\libwireless_slave.a(hct.o)
 .bss           0x0000000000000000        0x0 ..\..\libs\wireless\libwireless_slave.a(hct.o)
 .data          0x0000000000000000        0x0 ..\..\libs\wireless\libwireless_slave.a(hct_msg.o)
 .bss           0x0000000000000000        0x0 ..\..\libs\wireless\libwireless_slave.a(hct_msg.o)
 .data          0x0000000000000000        0x0 ..\..\libs\wireless\libwireless_slave.a(hct_proc.o)
 .bss           0x0000000000000000        0x0 ..\..\libs\wireless\libwireless_slave.a(hct_proc.o)
 .text          0x0000000000000000        0x0 ..\..\libs\wireless\libwireless_slave.a(hct_tl.o)
 .data          0x0000000000000000        0x0 ..\..\libs\wireless\libwireless_slave.a(hct_tl.o)
 .bss           0x0000000000000000        0x0 ..\..\libs\wireless\libwireless_slave.a(hct_tl.o)
 .com_text.bb.sleep
                0x0000000000000000        0x4 ..\..\libs\wireless\libwireless_slave.a(hct_tl.o)
 .comment       0x0000000000000000       0x13 ..\..\libs\wireless\libwireless_slave.a(hct_tl.o)
 .riscv.attributes
                0x0000000000000000       0x32 ..\..\libs\wireless\libwireless_slave.a(hct_tl.o)
 .data          0x0000000000000000        0x0 ..\..\libs\wireless\libwireless_slave.a(ble_hook.o)
 .bss           0x0000000000000000        0x0 ..\..\libs\wireless\libwireless_slave.a(ble_hook.o)
 .data          0x0000000000000000        0x0 ..\..\libs\wireless\libwireless_slave.a(rf.o)
 .bss           0x0000000000000000        0x0 ..\..\libs\wireless\libwireless_slave.a(rf.o)
 .com_text.bb.isr.lv
                0x0000000000000000       0x3e ..\..\libs\wireless\libwireless_slave.a(rf.o)
 .com_text.bb.isr.dbm
                0x0000000000000000       0x12 ..\..\libs\wireless\libwireless_slave.a(rf.o)
 .com_sleep.bb  0x0000000000000000       0xae ..\..\libs\wireless\libwireless_slave.a(rf.o)
 .text.rf.tx_tone
                0x0000000000000000       0x72 ..\..\libs\wireless\libwireless_slave.a(rf.o)
 .btmem.rf.dc   0x0000000000000000       0x48 ..\..\libs\wireless\libwireless_slave.a(rf.o)
 .com_rodata.bb.tbl
                0x0000000000000000        0x8 ..\..\libs\wireless\libwireless_slave.a(rf.o)
 .sbss          0x0000000000000000        0x1 ..\..\libs\wireless\libwireless_slave.a(rf.o)
 .bss           0x0000000000000000        0x0 ..\..\libs\wireless\libwireless_slave.a(rf_mate.o)
 .text.rf.vddvco.set
                0x0000000000000000       0x18 ..\..\libs\wireless\libwireless_slave.a(rf_mate.o)
 .text.rf.vddvco.get
                0x0000000000000000        0xa ..\..\libs\wireless\libwireless_slave.a(rf_mate.o)
 .text.rf.pll.set
                0x0000000000000000       0x12 ..\..\libs\wireless\libwireless_slave.a(rf_mate.o)
 .data          0x0000000000000000        0x0 ..\..\libs\wireless\libwireless_slave.a(vs.o)
 .bss           0x0000000000000000        0x0 ..\..\libs\wireless\libwireless_slave.a(vs.o)
 .data          0x0000000000000000        0x0 ..\..\libs\wireless\libwireless_slave.a(vs_proc.o)
 .bss           0x0000000000000000        0x0 ..\..\libs\wireless\libwireless_slave.a(vs_proc.o)
 .data          0x0000000000000000        0x0 ..\..\libs\wireless\libwireless_slave.a(wireless.o)
 .bss           0x0000000000000000        0x0 ..\..\libs\wireless\libwireless_slave.a(wireless.o)
 .data          0x0000000000000000        0x0 ..\..\libs\wireless\libwireless_slave.a(wireless_proc.o)
 .bss           0x0000000000000000        0x0 ..\..\libs\wireless\libwireless_slave.a(wireless_proc.o)
 .data          0x0000000000000000        0x0 ..\..\libs\wireless\libwireless_slave.a(extern.o)
 .bss           0x0000000000000000        0x0 ..\..\libs\wireless\libwireless_slave.a(extern.o)
 .text.bsp.param
                0x0000000000000000        0x2 ..\..\libs\wireless\libwireless_slave.a(extern.o)
 .com_sleep.sleep
                0x0000000000000000        0x2 ..\..\libs\wireless\libwireless_slave.a(extern.o)
 .sdata         0x0000000000000000        0x4 ..\..\libs\wireless\libwireless_slave.a(extern.o)
 .text          0x0000000000000000        0x0 ..\..\libs\wireless\libwireless_slave.a(aes.o)
 .data          0x0000000000000000        0x0 ..\..\libs\wireless\libwireless_slave.a(aes.o)
 .com_text.bb.isr
                0x0000000000000000       0x28 ..\..\libs\wireless\libwireless_slave.a(aes.o)
 .text.bb.aes.ecpy
                0x0000000000000000       0xe8 ..\..\libs\wireless\libwireless_slave.a(aes.o)
 .text          0x0000000000000000        0x0 ..\..\libs\wireless\libwireless_slave.a(platform.o)
 .data          0x0000000000000000        0x0 ..\..\libs\wireless\libwireless_slave.a(platform.o)
 .bss           0x0000000000000000        0x0 ..\..\libs\wireless\libwireless_slave.a(platform.o)
 .com_text.bb.dbg.bt21
                0x0000000000000000        0x4 ..\..\libs\wireless\libwireless_slave.a(platform.o)
 .text          0x0000000000000000        0x0 ..\..\libs\wireless\libwireless_slave.a(bb_clk.o)
 .data          0x0000000000000000        0x0 ..\..\libs\wireless\libwireless_slave.a(bb_clk.o)
 .bss           0x0000000000000000        0x0 ..\..\libs\wireless\libwireless_slave.a(bb_clk.o)
 .text          0x0000000000000000        0x0 ..\..\libs\wireless\libwireless_slave.a(bb_dbg.o)
 .data          0x0000000000000000        0x0 ..\..\libs\wireless\libwireless_slave.a(bb_dbg.o)
 .bss           0x0000000000000000        0x0 ..\..\libs\wireless\libwireless_slave.a(bb_dbg.o)
 .com_text.spi_init
                0x0000000000000000       0x60 ..\..\libs\wireless\libwireless_slave.a(bb_dbg.o)
 .com_text.bb.putc
                0x0000000000000000       0x60 ..\..\libs\wireless\libwireless_slave.a(bb_dbg.o)
 .data          0x0000000000000000        0x0 ..\..\libs\wireless\libwireless_slave.a(patch.o)
 .bss           0x0000000000000000        0x0 ..\..\libs\wireless\libwireless_slave.a(patch.o)
 .com_text.ble.isr.con.end
                0x0000000000000000       0x1a ..\..\libs\wireless\libwireless_slave.a(patch.o)
 .text          0x0000000000000000        0x0 ..\..\libs\wireless\libwireless_slave.a(patch_asm.o)
 .data          0x0000000000000000        0x0 ..\..\libs\wireless\libwireless_slave.a(patch_asm.o)
 .bss           0x0000000000000000        0x0 ..\..\libs\wireless\libwireless_slave.a(patch_asm.o)
 .com_text.bb.patch
                0x0000000000000000       0x1a ..\..\libs\wireless\libwireless_slave.a(patch_asm.o)
 .data          0x0000000000000000        0x0 ..\..\libs\wireless\libwireless_slave.a(bb_sche.o)
 .com_sleep.bb  0x0000000000000000        0xa ..\..\libs\wireless\libwireless_slave.a(bb_sche.o)
 .data          0x0000000000000000        0x0 ..\..\libs\wireless\libwireless_slave.a(nanos.o)
 .bss           0x0000000000000000        0x0 ..\..\libs\wireless\libwireless_slave.a(nanos.o)
 .com_text.ret.bb
                0x0000000000000000        0x2 ..\..\libs\wireless\libwireless_slave.a(nanos.o)
 .com_text.nanos.malloc
                0x0000000000000000        0xc ..\..\libs\wireless\libwireless_slave.a(nanos.o)
 .com_text.nanos.free
                0x0000000000000000        0xa ..\..\libs\wireless\libwireless_slave.a(nanos.o)
 .text          0x0000000000000000       0x3e ..\..\libs\wireless\libwireless_slave.a(bb_utils.o)
 .data          0x0000000000000000        0x0 ..\..\libs\wireless\libwireless_slave.a(bb_utils.o)
 .bss           0x0000000000000000        0x0 ..\..\libs\wireless\libwireless_slave.a(bb_utils.o)
 .com_rodata.bb.tbl.r2m
                0x0000000000000000        0x4 ..\..\libs\wireless\libwireless_slave.a(bb_utils.o)
 .com_rodata.bb.tbl.rate.dur
                0x0000000000000000        0x5 ..\..\libs\wireless\libwireless_slave.a(bb_utils.o)
 .srodata       0x0000000000000000        0x5 ..\..\libs\wireless\libwireless_slave.a(bb_utils.o)
 .data          0x0000000000000000        0x0 ..\..\libs\wireless\libwireless_slave.a(ll_chmap_upd.o)
 .bss           0x0000000000000000        0x0 ..\..\libs\wireless\libwireless_slave.a(ll_chmap_upd.o)
 .text          0x0000000000000000        0x0 ..\..\libs\wireless\libwireless_slave.a(ll_clk_acc.o)
 .data          0x0000000000000000        0x0 ..\..\libs\wireless\libwireless_slave.a(ll_clk_acc.o)
 .bss           0x0000000000000000        0x0 ..\..\libs\wireless\libwireless_slave.a(ll_clk_acc.o)
 .data          0x0000000000000000        0x0 ..\..\libs\wireless\libwireless_slave.a(ll_disconnect.o)
 .bss           0x0000000000000000        0x0 ..\..\libs\wireless\libwireless_slave.a(ll_disconnect.o)
 .data          0x0000000000000000        0x0 ..\..\libs\wireless\libwireless_slave.a(ll_adv.o)
 .bss           0x0000000000000000        0x0 ..\..\libs\wireless\libwireless_slave.a(ll_adv.o)
 .data          0x0000000000000000        0x0 ..\..\libs\wireless\libwireless_slave.a(mgr_hci.o)
 .bss           0x0000000000000000        0x0 ..\..\libs\wireless\libwireless_slave.a(mgr_hci.o)
 .data          0x0000000000000000        0x0 ..\..\libs\wireless\libwireless_slave.a(adv_hook.o)
 .bss           0x0000000000000000        0x0 ..\..\libs\wireless\libwireless_slave.a(adv_hook.o)
 .text          0x0000000000000000        0x0 ..\..\libs\wireless\libwireless_slave.a(vs_fcc.o)
 .data          0x0000000000000000        0x0 ..\..\libs\wireless\libwireless_slave.a(vs_fcc.o)
 .bss           0x0000000000000000        0x0 ..\..\libs\wireless\libwireless_slave.a(vs_fcc.o)
 .data          0x0000000000000000        0x0 ..\..\libs\wireless\libwireless_slave.a(thread.o)
 .bss           0x0000000000000000        0x0 ..\..\libs\wireless\libwireless_slave.a(thread.o)

Memory Configuration

Name             Origin             Length             Attributes
init             0x0000000010000000 0x0000000000000200
flash            0x0000000010000200 0x000000000003e000 xr
stack            0x0000000000010800 0x0000000000000400
sram             0x0000000000010c00 0x0000000000005400
pdn_comm         0x0000000000010c00 0x0000000000000400
*default*        0x0000000000000000 0xffffffffffffffff

Linker script and memory map

LOAD Output\obj\driver\driver_clk.o
LOAD Output\obj\driver\driver_gpio.o
LOAD Output\obj\driver\driver_hsuart.o
LOAD Output\obj\driver\driver_keyscan.o
LOAD Output\obj\driver\driver_ledc.o
LOAD Output\obj\driver\driver_lowpwr.o
LOAD Output\obj\driver\driver_rtc.o
LOAD Output\obj\driver\driver_saradc.o
LOAD Output\obj\driver\driver_spi.o
LOAD Output\obj\driver\driver_tmr.o
LOAD Output\obj\driver\driver_uart.o
LOAD Output\obj\driver\driver_wdt.o
LOAD Output\obj\project\wireless_peripheral\app\func.o
LOAD Output\obj\project\wireless_peripheral\app\func_idle.o
LOAD Output\obj\project\wireless_peripheral\app\func_iodm.o
LOAD Output\obj\project\wireless_peripheral\app\func_lowpwr.o
LOAD Output\obj\project\wireless_peripheral\app\func_wireless.o
LOAD Output\obj\project\wireless_peripheral\bsp\bsp_huart_iodm.o
LOAD Output\obj\project\wireless_peripheral\bsp\bsp_io_key.o
LOAD Output\obj\project\wireless_peripheral\bsp\bsp_key.o
LOAD Output\obj\project\wireless_peripheral\bsp\bsp_param.o
LOAD Output\obj\project\wireless_peripheral\bsp\bsp_saradc.o
LOAD Output\obj\project\wireless_peripheral\bsp\bsp_saradc_key.o
LOAD Output\obj\project\wireless_peripheral\bsp\bsp_saradc_vbat.o
LOAD Output\obj\project\wireless_peripheral\bsp\bsp_sys.o
LOAD Output\obj\project\wireless_peripheral\bsp\bsp_uart_debug.o
LOAD Output\obj\project\wireless_peripheral\main.o
LOAD Output\obj\project\wireless_peripheral\modules\fota\fota_proc.o
LOAD Output\obj\project\wireless_peripheral\modules\usb\src\usb_audio.o
LOAD Output\obj\project\wireless_peripheral\modules\usb\src\usb_audio_desc.o
LOAD Output\obj\project\wireless_peripheral\modules\usb\src\usb_com.o
LOAD Output\obj\project\wireless_peripheral\modules\usb\src\usb_desc.o
LOAD Output\obj\project\wireless_peripheral\modules\usb\src\usb_dev_enum.o
LOAD Output\obj\project\wireless_peripheral\modules\usb\src\usb_hid.o
LOAD Output\obj\project\wireless_peripheral\modules\usb\src\usb_hid_desc.o
LOAD Output\obj\project\wireless_peripheral\modules\usb\src\usb_vendor.o
LOAD Output\obj\project\wireless_peripheral\modules\usb\src\usb_vendor_desc.o
LOAD Output\obj\project\wireless_peripheral\modules\usb\usr\usb_usr_audio.o
LOAD Output\obj\project\wireless_peripheral\modules\usb\usr\usb_usr_hid.o
LOAD Output\obj\project\wireless_peripheral\modules\usb\usr\usb_usr_vendor.o
LOAD Output\obj\project\wireless_peripheral\modules\wireless\wireless_init.o
LOAD Output\obj\project\wireless_peripheral\modules\wireless\wireless_service.o
LOAD Output\obj\project\wireless_peripheral\prod_test\iodm\prod_test_iodm.o
LOAD Output\obj\project\wireless_peripheral\prod_test\prod_test.o
LOAD Output\obj\project\wireless_peripheral\strong_symbol.o
                0x000000000003e000                __max_flash_size = 0x3e000
                0x0000000010000000                __base = 0x10000000
                0x0000000000010600                __cache_stack_vma = 0x10600
                0x0000000000000200                __cache_stack_size = 0x200
                0x0000000000010800                __stack_vma = 0x10800
                0x0000000000000400                __stack_ram_size = 0x400
                0x0000000000010c00                __sram_vma = 0x10c00
                0x0000000000005400                __sram_ram_size = 0x5400
                0x0000000000013100                __comm_vma = __comm_start
                0x0000000000000400                __pdn_comm_ram_size = 0x400
                0x0000000000010c00                __pdn_comm_vma = __sram_vma

.init           0x0000000010000000       0x4e
 *(.reset)
 .reset         0x0000000010000000       0x4e ..\..\libs\cpu\libplatform.a(reset.o)
                0x0000000010000000                _start

.bss            0x0000000000010c00     0x2500
                0x0000000000010c00                __bss_start = .
 *(.btmem.bthw)
 .btmem.bthw    0x0000000000010c00      0x928 ..\..\libs\wireless\libwireless_slave.a(bb.o)
                0x0000000000010c00                bthw_mem
 *(.btmem*)
 .btmem.alloc.bb.buf
                0x0000000000011528      0x540 ..\..\libs\wireless\libwireless_slave.a(bb.o)
 .btmem.bb.buf  0x0000000000011a68      0x1fc ..\..\libs\wireless\libwireless_slave.a(bb.o)
 .btmem.bb.rf   0x0000000000011c64        0x3 ..\..\libs\wireless\libwireless_slave.a(bb.o)
                0x0000000000011c64                rf_api
 *fill*         0x0000000000011c67        0x1 
 .btmem.bb.timer
                0x0000000000011c68        0x8 ..\..\libs\wireless\libwireless_slave.a(bb_alarm.o)
 .btmem.bb.env  0x0000000000011c70       0x60 ..\..\libs\wireless\libwireless_slave.a(bb_int.o)
                0x0000000000011c70                bb_env
 .btmem.bb.ble.tbl
                0x0000000000011cd0       0x10 ..\..\libs\wireless\libwireless_slave.a(ble.o)
 .btmem.ble.buf
                0x0000000000011ce0       0x30 ..\..\libs\wireless\libwireless_slave.a(ble_buf.o)
 .btmem.ble.adv
                0x0000000000011d10        0x8 ..\..\libs\wireless\libwireless_slave.a(ble_adv.o)
 .btmem.ble.con
                0x0000000000011d18        0x8 ..\..\libs\wireless\libwireless_slave.a(ble_con.o)
                0x0000000000011d18                ble_con_env
 .btmem.ble.hal
                0x0000000000011d20      0x124 ..\..\libs\wireless\libwireless_slave.a(ble_hal.o)
                0x0000000000011d20                ble_env
                0x0000000000011e3c                ble_exp_sync_pos_tab
 .btmem.ble.test
                0x0000000000011e44        0x4 ..\..\libs\wireless\libwireless_slave.a(ble_test.o)
 .btmem.ble.lc  0x0000000000011e48        0x8 ..\..\libs\wireless\libwireless_slave.a(ll.o)
                0x0000000000011e48                ll_env
 .btmem.ble.lm  0x0000000000011e50       0xc4 ..\..\libs\wireless\libwireless_slave.a(mgr.o)
                0x0000000000011e50                mgr_env
 .btmem.bb.hci  0x0000000000011f14        0x2 ..\..\libs\wireless\libwireless_slave.a(hct.o)
                0x0000000000011f14                hci_env
 *fill*         0x0000000000011f16        0x2 
 .btmem.hct.env
                0x0000000000011f18       0x40 ..\..\libs\wireless\libwireless_slave.a(hct_proc.o)
 .btmem.bb.vs   0x0000000000011f58        0xd ..\..\libs\wireless\libwireless_slave.a(vs_proc.o)
                0x0000000000011f58                vs_env
 *fill*         0x0000000000011f65        0x3 
 .btmem.ble.hal
                0x0000000000011f68        0x1 ..\..\libs\wireless\libwireless_slave.a(wireless.o)
                0x0000000000011f68                wl_env
 *fill*         0x0000000000011f69        0x3 
 .btmem.bb.wl   0x0000000000011f6c        0x8 ..\..\libs\wireless\libwireless_slave.a(wireless_proc.o)
                0x0000000000011f6c                wl_con_env
 .btmem.bb.buf  0x0000000000011f74       0x3c ..\..\libs\wireless\libwireless_slave.a(nanos.o)
 *(.osmem*)
 .osmem         0x0000000000011fb0      0x76c Output\obj\project\wireless_peripheral\strong_symbol.o
                0x0000000000011fb0                mem_heap
 .osmem.bb.nanos
                0x000000000001271c      0x488 ..\..\libs\wireless\libwireless_slave.a(thread.o)
 *(COMMON)
 COMMON         0x0000000000012ba4       0x37 Output\obj\project\wireless_peripheral\bsp\bsp_sys.o
                0x0000000000012ba4                tmr5ms_cnt
                0x0000000000012ba8                xcfg_cb
 *fill*         0x0000000000012bdb        0x1 
 COMMON         0x0000000000012bdc       0x20 Output\obj\project\wireless_peripheral\modules\wireless\wireless_init.o
                0x0000000000012bdc                soft_timer_5ms_handle
                0x0000000000012be0                alarm_timer_5ms_scan_pool
 COMMON         0x0000000000012bfc        0x1 Output\obj\project\wireless_peripheral\strong_symbol.o
                0x0000000000012bfc                cfg_bt_rf_def_txpwr
 *(.bss*)
 *fill*         0x0000000000012bfd        0x3 
 .bss.periph.saradc
                0x0000000000012c00       0x24 Output\obj\driver\driver_saradc.o
 .bss.key.flag  0x0000000000012c24        0x1 Output\obj\project\wireless_peripheral\bsp\bsp_key.o
 *fill*         0x0000000000012c25        0x3 
 .bss           0x0000000000012c28       0x14 Output\obj\project\wireless_peripheral\bsp\bsp_saradc_vbat.o
 .bss           0x0000000000012c3c       0x14 Output\obj\project\wireless_peripheral\modules\wireless\wireless_service.o
 .bss           0x0000000000012c50      0x130 ..\..\libs\cpu\libplatform.a(cm.o)
                0x0000000000012c50                cm
 .bss           0x0000000000012d80       0x18 ..\..\libs\cpu\libplatform.a(main.o)
                0x0000000000012d80                sys
 .bss.irq_tbl   0x0000000000012d98       0x88 ..\..\libs\cpu\libplatform.a(interrupt.o)
 .bss.sys.timer
                0x0000000000012e20        0x8 ..\..\libs\cpu\libplatform.a(interrupt.o)
 .bss.bb.timer  0x0000000000012e28        0x1 ..\..\libs\wireless\libwireless_slave.a(bb_alarm.o)
 *fill*         0x0000000000012e29        0x3 
 .bss           0x0000000000012e2c       0x78 ..\..\libs\wireless\libwireless_slave.a(ble_buf.o)
 .bss.hct.env   0x0000000000012ea4       0x18 ..\..\libs\wireless\libwireless_slave.a(hct_proc.o)
 .bss           0x0000000000012ebc        0xc ..\..\libs\wireless\libwireless_slave.a(aes.o)
                0x0000000000012ebc                aes_env
 .bss           0x0000000000012ec8      0x128 ..\..\libs\wireless\libwireless_slave.a(bb_sche.o)
 *(.sbss*)
 .sbss          0x0000000000012ff0        0x8 Output\obj\project\wireless_peripheral\bsp\bsp_saradc_vbat.o
 .sbss          0x0000000000012ff8        0x8 ..\..\libs\cpu\libplatform.a(os_flash.o)
                0x0000000000012ff8                spi_baud_w
                0x0000000000012ffc                spi_baud_r
 .sbss          0x0000000000013000       0x10 ..\..\libs\cpu\libplatform.a(startup.o)
                0x0000000000013000                soft_timer_isr_en
                0x0000000000013004                pmutex_clk
                0x0000000000013008                pmutex_cm
                0x000000000001300c                psem_btstack
 .sbss          0x0000000000013010        0x8 ..\..\libs\cpu\libplatform.a(key.o)
 .sbss          0x0000000000013018        0x8 ..\..\libs\cpu\libplatform.a(lock.o)
 .sbss          0x0000000000013020        0x8 ..\..\libs\cpu\libplatform.a(voltage_trim.o)
                0x0000000000013020                sys_trim
 .sbss          0x0000000000013028        0x1 ..\..\libs\cpu\libplatform.a(freq_det.o)
                0x0000000000013028                freq_det_kick
 *fill*         0x0000000000013029        0x3 
 .sbss          0x000000000001302c        0x8 ..\..\libs\wireless\libwireless_slave.a(wireless_api.o)
 .sbss          0x0000000000013034        0x1 ..\..\libs\wireless\libwireless_slave.a(bb.o)
 *fill*         0x0000000000013035        0x3 
 .sbss          0x0000000000013038        0x2 ..\..\libs\wireless\libwireless_slave.a(ll_proc.o)
 *fill*         0x000000000001303a        0x2 
 .sbss          0x000000000001303c        0x2 ..\..\libs\wireless\libwireless_slave.a(mgr_proc.o)
 *fill*         0x000000000001303e        0x2 
 .sbss          0x0000000000013040        0x2 ..\..\libs\wireless\libwireless_slave.a(hct_proc.o)
 *fill*         0x0000000000013042        0x2 
 .sbss          0x0000000000013044        0x2 ..\..\libs\wireless\libwireless_slave.a(wireless_proc.o)
 *fill*         0x0000000000013046        0x2 
 .sbss          0x0000000000013048        0x8 ..\..\libs\wireless\libwireless_slave.a(bb_sche.o)
                0x0000000000013048                ss_params
 *(.buf*)
 .buf.func_cb   0x0000000000013050        0x2 Output\obj\project\wireless_peripheral\app\func.o
                0x0000000000013050                func_cb
 *fill*         0x0000000000013052        0x2 
 .buf.bsp.sys_cb
                0x0000000000013054        0x8 Output\obj\project\wireless_peripheral\bsp\bsp_sys.o
                0x0000000000013054                sys_cb
 .buf.key.cb    0x000000000001305c       0x10 ..\..\libs\cpu\libplatform.a(key.o)
 .buf.key.sta   0x000000000001306c        0x6 ..\..\libs\cpu\libplatform.a(key.o)
 *(.ble_cache*)
 *(.ble_buf*)
 *(.fot_data.*)
 *(.tbox.*)
 *(.notch_iir*)
 *(.prod_test*)
 *(.fcc.huart_buf)
 *(.hci.h3*)
 *(.usb_buf*)
                0x0000000000013100                . = ALIGN (0x100)
 *fill*         0x0000000000013072       0x8e 
                0x0000000000013100                __bss_end = .
                0x0000000000002500                __bss_size = (__bss_end - __bss_start)

.comm           0x0000000000013100     0x1500 load address 0x0000000010000200
                0x0000000000013100                __comm_start = .
 *(.vector)
 .vector        0x0000000000013100       0xc8 ..\..\libs\cpu\libplatform.a(reset.o)
                0x00000000000131a0                _exception_isr
                0x00000000000131a2                nop_isr
 *(.com_text*)
 .com_text.saradc.done
                0x00000000000131c8       0x32 Output\obj\driver\driver_saradc.o
                0x00000000000131c8                saradc_get_result
 .com_text.gpio.isr
                0x00000000000131fa        0x4 Output\obj\project\wireless_peripheral\app\func_lowpwr.o
                0x00000000000131fa                gpio_isr_callback
 .com_text.sleep_tick
                0x00000000000131fe        0x2 Output\obj\project\wireless_peripheral\app\func_lowpwr.o
                0x00000000000131fe                lowpwr_tout_ticks
 .com_text.key.scan
                0x0000000000013200       0x10 Output\obj\project\wireless_peripheral\bsp\bsp_io_key.o
                0x0000000000013200                bsp_get_io_key_id
 .com_text.key.scan
                0x0000000000013210       0x42 Output\obj\project\wireless_peripheral\bsp\bsp_key.o
                0x0000000000013210                bsp_key_scan
 .com_text.saradc_scan
                0x0000000000013252       0x22 Output\obj\project\wireless_peripheral\bsp\bsp_saradc.o
                0x0000000000013252                bsp_saradc_scan
 .com_text.timer
                0x0000000000013274       0x54 Output\obj\project\wireless_peripheral\bsp\bsp_sys.o
                0x0000000000013274                usr_tmr5ms_callback
 .com_text.timer
                0x00000000000132c8        0x2 Output\obj\project\wireless_peripheral\modules\wireless\wireless_init.o
                0x00000000000132c8                alarm_timer_5ms_callback
 .com_text.wireless.transmit
                0x00000000000132ca       0x46 Output\obj\project\wireless_peripheral\modules\wireless\wireless_service.o
 .com_text.spiflash
                0x0000000000013310       0x34 Output\obj\project\wireless_peripheral\strong_symbol.o
                0x0000000000013310                os_spiflash_addr_check
 .com_text.spiflash
                0x0000000000013344       0x5e ..\..\libs\cpu\libplatform.a(os_flash.o)
                0x0000000000013348                os_spiflash_program_do
                0x000000000001335a                os_spiflash_program
                0x000000000001337c                os_spiflash_erase_do
                0x000000000001338e                os_spiflash_erase
 .com_text.delay
                0x00000000000133a2       0x54 ..\..\libs\cpu\libplatform.a(main.o)
                0x00000000000133a2                delay_5ms
                0x00000000000133bc                delay_ms
                0x00000000000133d4                delay_us
                0x00000000000133ec                delay
 .com_text.irq  0x00000000000133f6       0x70 ..\..\libs\cpu\libplatform.a(interrupt.o)
                0x00000000000133f6                tick0_isr
                0x000000000001344c                tick_get
                0x0000000000013454                tick_check_expire
 .com_text.trim.vddio_get
                0x0000000000013466        0x8 ..\..\libs\cpu\libplatform.a(pmu.o)
                0x0000000000013466                pmu_get_vddio
 .com_text.trim.vddio_set
                0x000000000001346e       0x2a ..\..\libs\cpu\libplatform.a(pmu.o)
                0x000000000001346e                pmu_set_vddio
 .com_text.trim.lvd_set
                0x0000000000013498       0x3e ..\..\libs\cpu\libplatform.a(pmu.o)
                0x0000000000013498                pmu_set_lvd
                0x00000000000134c4                pmu_set_vbg
 .com_text.exception
                0x00000000000134d6        0xa ..\..\libs\cpu\libplatform.a(debug.o)
                0x00000000000134d6                exception_isr
 .com_text.exception.hook
                0x00000000000134e0        0x4 ..\..\libs\cpu\libplatform.a(debug.o)
                0x00000000000134e0                sys_error_hook
 .com_text.key_return
                0x00000000000134e4       0x30 ..\..\libs\cpu\libplatform.a(key.o)
                0x00000000000134e4                check_key_return
 .com_text.bsp.key
                0x0000000000013514       0x16 ..\..\libs\cpu\libplatform.a(key.o)
                0x0000000000013514                key_multi_press_process
                0x000000000001351e                key_status_process
 .com_text.sys  0x000000000001352a        0x2 ..\..\libs\cpu\libplatform.a(s_sys.o)
                0x000000000001352a                dummy_func
 .com_text.timer
                0x000000000001352c        0x4 ..\..\libs\cpu\libplatform.a(weak_symbol.o)
                0x000000000001352e                usr_tmr1ms_isr_callback
 .com_text.isr  0x0000000000013530        0x2 ..\..\libs\cpu\libplatform.a(weak_symbol.o)
                0x0000000000013530                bt_timer_isr
 .com_text.wl.isr.con
                0x0000000000013532      0x142 ..\..\libs\wireless\libwireless_slave.a(wireless_api.o)
                0x0000000000013548                wireless_event_emit
                0x0000000000013554                wireless_receive_data_emit
                0x000000000001356c                wireless_send_for_con
 .com_text.wl.api
                0x0000000000013674       0x30 ..\..\libs\wireless\libwireless_slave.a(wireless_api.o)
                0x0000000000013674                wireless_rxbuf_release
 .com_text.bb.run_loop
                0x00000000000136a4       0x30 ..\..\libs\wireless\libwireless_slave.a(bb.o)
                0x00000000000136a4                bb_run_loop
 .com_text.bb.isr.timer
                0x00000000000136d4       0x50 ..\..\libs\wireless\libwireless_slave.a(bb_alarm.o)
 .com_text.bb.timer.check
                0x0000000000013724       0x1e ..\..\libs\wireless\libwireless_slave.a(bb_alarm.o)
                0x0000000000013724                bb_timer_queue_check
 .com_text.bb.timer.push
                0x0000000000013742       0x64 ..\..\libs\wireless\libwireless_slave.a(bb_alarm.o)
                0x0000000000013742                bb_timer_queue_release
                0x0000000000013770                bb_timer_queue_free
 .com_text.bb.isr
                0x00000000000137a6       0x7c ..\..\libs\wireless\libwireless_slave.a(bb_int.o)
                0x00000000000137d8                bb_isr
                0x0000000000013816                bb_hal_isr
 .com_text.bb.isr
                0x0000000000013822       0x34 ..\..\libs\wireless\libwireless_slave.a(ble.o)
                0x0000000000013822                ble_isr
 .com_text.bb.buf
                0x0000000000013856       0xbc ..\..\libs\wireless\libwireless_slave.a(ble_buf.o)
                0x0000000000013856                ble_buf_acl_tx_alloc
                0x00000000000138a0                ble_buf_acl_tx_free_do
                0x00000000000138b2                ble_buf_acl_tx_free
 .com_text.bb.patch
                0x0000000000013912       0x24 ..\..\libs\wireless\libwireless_slave.a(ble_buf.o)
                0x0000000000013912                bb_patch1
                0x0000000000013914                bb_patch3
 .com_text.ble.isr.con
                0x0000000000013936      0x58e ..\..\libs\wireless\libwireless_slave.a(ble_con.o)
                0x0000000000013954                ble_con_tx_len_update_fix_cb
                0x0000000000013a3c                ble_con_evt_time_update_fix_cb
                0x0000000000013b2e                ble_con_sched_fix_cb
 .com_text.ble.isr.con.end
                0x0000000000013ec4       0x9a ..\..\libs\wireless\libwireless_slave.a(ble_con.o)
                0x0000000000013ec4                ble_con_rx_end
 .com_text.ble.isr.con.rx_desc
                0x0000000000013f5e        0x2 ..\..\libs\wireless\libwireless_slave.a(ble_con.o)
                0x0000000000013f5e                ble_con_rx_desc
 .com_text.bb.buf
                0x0000000000013f60       0x24 ..\..\libs\wireless\libwireless_slave.a(hct_proc.o)
                0x0000000000013f60                hct_block_is_reserved
 .com_text.ble.isr
                0x0000000000013f84       0xa6 ..\..\libs\wireless\libwireless_slave.a(ble_hook.o)
                0x0000000000013f84                ble_isr_hook
 .com_text.bb.isr.rssi
                0x000000000001402a        0xa ..\..\libs\wireless\libwireless_slave.a(rf.o)
                0x000000000001402a                rf_rssi_calc_dbm
 .com_text.bb.rf
                0x0000000000014034       0x26 ..\..\libs\wireless\libwireless_slave.a(rf.o)
                0x0000000000014034                rf_hal_init
 .com_text.wl.isr.con.adv
                0x000000000001405a      0x21a ..\..\libs\wireless\libwireless_slave.a(wireless.o)
                0x000000000001405a                wireless_adv_rx_ind
 .com_text.wl.isr.con
                0x0000000000014274       0x60 ..\..\libs\wireless\libwireless_slave.a(wireless_proc.o)
 .com_text.ble.phy
                0x00000000000142d4        0x4 ..\..\libs\wireless\libwireless_slave.a(extern.o)
                0x00000000000142d4                ble_phy_2M_enable
 .com_text.bb.dbg.ble
                0x00000000000142d8        0x4 ..\..\libs\wireless\libwireless_slave.a(platform.o)
                0x00000000000142d8                bb_ll_tx_cb
                0x00000000000142da                bb_ll_rx_cb
 .com_text.bb.utils.dummy
                0x00000000000142dc        0x6 ..\..\libs\wireless\libwireless_slave.a(platform.o)
                0x00000000000142dc                dummy_void
                0x00000000000142de                dummy_false
 .com_text.bb.isr
                0x00000000000142e2        0xe ..\..\libs\wireless\libwireless_slave.a(bb_clk.o)
                0x00000000000142e2                bb_lpcycles_2_hus_hook
 .com_text.bb.patch.trc
                0x00000000000142f0       0x1e ..\..\libs\wireless\libwireless_slave.a(patch_asm.o)
                0x00000000000142f0                ll_cntl_tx_check_fix_cb
 .com_text.bb.frag
                0x000000000001430e       0x18 ..\..\libs\wireless\libwireless_slave.a(bb_sche.o)
 .com_text.bb.prog
                0x0000000000014326       0x30 ..\..\libs\wireless\libwireless_slave.a(bb_sche.o)
 .com_text.md.nanos
                0x0000000000014356       0x14 ..\..\libs\wireless\libwireless_slave.a(nanos.o)
                0x0000000000014356                nanos_event_set
 .com_text.bb.nanos.loop
                0x000000000001436a       0x1c ..\..\libs\wireless\libwireless_slave.a(thread.o)
 .com_text.bb.nanos.trigger
                0x0000000000014386       0x10 ..\..\libs\wireless\libwireless_slave.a(thread.o)
                0x0000000000014386                thread_nanos_task_trigger
 *(.com_rodata*)
 *fill*         0x0000000000014396        0x2 
 .com_rodata.key
                0x0000000000014398        0x6 Output\obj\project\wireless_peripheral\bsp\bsp_key.o
                0x0000000000014398                key_param
                0x000000000001439c                allow_multiple_key_table
 *fill*         0x000000000001439e        0x2 
 .com_rodata.multi.key
                0x00000000000143a0        0x8 ..\..\libs\cpu\libplatform.a(key.o)
                0x00000000000143a0                key_multi_tbl
 .com_rodata.bb.tbl
                0x00000000000143a8       0x16 ..\..\libs\wireless\libwireless_slave.a(bb.o)
                0x00000000000143a8                bb_priority
 *fill*         0x00000000000143be        0x2 
 .com_rodata.bb.err
                0x00000000000143c0        0xd ..\..\libs\wireless\libwireless_slave.a(bb_int.o)
                0x00000000000143c0                str_bb_err
 *fill*         0x00000000000143cd        0x3 
 .com_rodata.bb.err
                0x00000000000143d0        0xf ..\..\libs\wireless\libwireless_slave.a(ble.o)
                0x00000000000143d0                str_ble_err
 *fill*         0x00000000000143df        0x1 
 .com_rodata.bb.tbl
                0x00000000000143e0       0x18 ..\..\libs\wireless\libwireless_slave.a(ble_buf.o)
 .com_rodata.bb.tbl
                0x00000000000143f8       0x10 ..\..\libs\wireless\libwireless_slave.a(ble_con.o)
                0x00000000000143f8                fixed_tx_time
                0x0000000000014400                byte_tx_time
 .com_rodata.bb.tbl
                0x0000000000014408        0xc ..\..\libs\wireless\libwireless_slave.a(ll_proc.o)
                0x0000000000014408                ll_msg_env
 .com_rodata.bb.tbl
                0x0000000000014414        0xc ..\..\libs\wireless\libwireless_slave.a(mgr_proc.o)
                0x0000000000014414                mgr_msg_env
 .com_rodata.bb.tbl
                0x0000000000014420        0xc ..\..\libs\wireless\libwireless_slave.a(hct_proc.o)
 .com_rodata.bb.tbl
                0x000000000001442c        0xc ..\..\libs\wireless\libwireless_slave.a(vs_proc.o)
                0x000000000001442c                vs_msg_env
 .com_rodata.bb.tbl
                0x0000000000014438        0xc ..\..\libs\wireless\libwireless_slave.a(wireless_proc.o)
                0x0000000000014438                wl_msg_env
 .com_rodata.bb.tbl
                0x0000000000014444       0x10 ..\..\libs\wireless\libwireless_slave.a(bb_utils.o)
                0x0000000000014444                bb_sca2ppm
 .com_rodata.bb.tbl.bits
                0x0000000000014454       0x10 ..\..\libs\wireless\libwireless_slave.a(bb_utils.o)
                0x0000000000014454                one_bits
 .com_rodata.bb.tbl.i2m
                0x0000000000014464        0x4 ..\..\libs\wireless\libwireless_slave.a(bb_utils.o)
                0x0000000000014464                bb_phy_value_to_mask
 .com_rodata.bb.tbl.phy.i2r
                0x0000000000014468        0x4 ..\..\libs\wireless\libwireless_slave.a(bb_utils.o)
                0x0000000000014468                bb_phy_to_rate
 .com_rodata.bb.tbl.phy.m2i
                0x000000000001446c        0x5 ..\..\libs\wireless\libwireless_slave.a(bb_utils.o)
                0x000000000001446c                bb_phy_mask_to_value
 *fill*         0x0000000000014471        0x3 
 .com_rodata.bb.tbl.phy.r2i
                0x0000000000014474        0x5 ..\..\libs\wireless\libwireless_slave.a(bb_utils.o)
                0x0000000000014474                bb_rate_to_phy
 *debug.o(.rodata*)
 *(.com_periph.*)
 *fill*         0x0000000000014479        0x1 
 .com_periph.wk0.read_bit
                0x000000000001447a        0xa Output\obj\driver\driver_gpio.o
                0x000000000001447a                wko_io_read_bit
 .com_periph.gpio.pending_clr
                0x0000000000014484        0xc Output\obj\driver\driver_gpio.o
                0x0000000000014484                gpio_edge_pending_clear
 .com_periph.saradc.kick
                0x0000000000014490       0x2c Output\obj\driver\driver_saradc.o
                0x0000000000014490                saradc_kick_start
 .com_periph.saradc.get
                0x00000000000144bc       0x3a Output\obj\driver\driver_saradc.o
                0x00000000000144bc                saradc_get_flag
 .com_periph.saradc.clear
                0x00000000000144f6       0x2e Output\obj\driver\driver_saradc.o
                0x00000000000144f6                saradc_clear_flag
 .com_periph.saradc.get_data
                0x0000000000014524       0x90 Output\obj\driver\driver_saradc.o
                0x0000000000014524                saradc_get_channel_value
 *(.data*)
 *fill*         0x00000000000145b4        0x0 
 .data          0x00000000000145b4       0x28 ..\..\libs\wireless\libwireless_slave.a(rf_mate.o)
                0x00000000000145c0                rf_init_cb
 *(.sdata*)
 .sdata         0x00000000000145dc        0x6 Output\obj\project\wireless_peripheral\bsp\bsp_saradc_vbat.o
 *fill*         0x00000000000145e2        0x2 
 .sdata         0x00000000000145e4        0x4 Output\obj\project\wireless_peripheral\modules\wireless\wireless_init.o
                0x00000000000145e4                wl_adv_data
 .sdata         0x00000000000145e8        0x2 Output\obj\project\wireless_peripheral\strong_symbol.o
                0x00000000000145e8                cfg_bt_work_mode
                0x00000000000145e9                cfg_spiflash_speed_up_en
 *fill*         0x00000000000145ea        0x2 
 .sdata         0x00000000000145ec        0x4 ..\..\libs\cpu\libplatform.a(debug.o)
                0x00000000000145ec                cpu_gprs
 .sdata         0x00000000000145f0        0x1 ..\..\libs\wireless\libwireless_slave.a(rf_mate.o)
                0x0000000000014600                . = ALIGN (0x200)
 *fill*         0x00000000000145f1        0xf 
                0x0000000000014600                __comm_end = .
                0x0000000000001500                __comm_size = (__comm_end - __comm_start)

.pdn_comm       0x0000000000010c00      0x200 load address 0x0000000010001700
 *(.com_pwroff*)
 .com_pwroff.mode2
                0x0000000000010c00      0x188 Output\obj\driver\driver_lowpwr.o
                0x0000000000010c00                pwroff_mode2_final
                0x0000000000010c9a                lowpwr_pwroff_mode2_do
                0x0000000000010e00                . = ALIGN (0x200)
 *fill*         0x0000000000010d88       0x78 

.flash          0x0000000010001a00     0xca00
                0x0000000010001a00                __code_start_app_proc = .
 *(.text.app.proc.*)
 .text.app.proc.func
                0x0000000010001a00       0x12 Output\obj\project\wireless_peripheral\app\func.o
                0x0000000010001a00                func_process
 .text.app.proc.vbat
                0x0000000010001a12       0xd8 Output\obj\project\wireless_peripheral\bsp\bsp_saradc_vbat.o
                0x0000000010001a12                bsp_vbat_lowpwr_detect
                0x0000000010001a5c                bsp_vbat_process_do
                0x0000000010001ac0                bsp_vbat_process
 .text.app.proc.test
                0x0000000010001aea        0x2 Output\obj\project\wireless_peripheral\prod_test\prod_test.o
                0x0000000010001aea                prod_test_process
                0x0000000010001c00                . = ALIGN (0x200)
 *fill*         0x0000000010001aec      0x114 
                0x0000000010001c00                __code_end_app_proc = .
                0x0000000010001c00                __code_start_stack_send = .
 *(.text.stack.send.*)
 .text.stack.send.acl
                0x0000000010001c00       0xe0 ..\..\libs\wireless\libwireless_slave.a(ll_proc.o)
                0x0000000010001c00                hci_acl_data_func
                0x0000000010001e00                . = ALIGN (0x200)
 *fill*         0x0000000010001ce0      0x120 
                0x0000000010001e00                __code_end_stack_send = .
                0x0000000010001e00                __code_start_sleep_send = .
 *(.com_sleep*)
 .com_sleep.rf.txpwr
                0x0000000010001e00       0x1a Output\obj\project\wireless_peripheral\strong_symbol.o
                0x0000000010001e00                bt_rf_get_tx_pwr
 .com_sleep.rfphy
                0x0000000010001e1a       0xf0 ..\..\libs\wireless\libwireless_slave.a(rf_mate.o)
                0x0000000010001e96                rfphy_txrx_init
 .com_sleep.rfphy.init
                0x0000000010001f0a       0x6a ..\..\libs\wireless\libwireless_slave.a(rf_mate.o)
                0x0000000010001f0a                rfphy_init
 .com_sleep.rf  0x0000000010001f74       0x36 ..\..\libs\wireless\libwireless_slave.a(rf_mate.o)
                0x0000000010001f74                modem_init
 .com_sleep.bb.putc
                0x0000000010001faa        0x2 ..\..\libs\wireless\libwireless_slave.a(bb_dbg.o)
                0x0000000010001faa                bb_dbg_init
                0x0000000010002000                . = ALIGN (0x200)
 *fill*         0x0000000010001fac       0x54 
                0x0000000010002000                __code_end_sleep_send = .
                0x0000000010002000                __code_start_usbdev = .
 *(.usbdev*)
                0x0000000010002000                . = ALIGN (0x200)
                0x0000000010002000                __code_end_usbdev = .
 *(.text*)
 .text.clk_gate0_cmd
                0x0000000010002000       0x16 Output\obj\driver\driver_clk.o
                0x0000000010002000                clk_gate0_cmd
 .text.clk_saradc_clk_set
                0x0000000010002016       0x18 Output\obj\driver\driver_clk.o
                0x0000000010002016                clk_saradc_clk_set
 .text.clk_saradc_clk_get
                0x000000001000202e       0x3a Output\obj\driver\driver_clk.o
                0x000000001000202e                clk_saradc_clk_get
 .text.clk_uart_clk_set
                0x0000000010002068       0x16 Output\obj\driver\driver_clk.o
                0x0000000010002068                clk_uart_clk_set
 .text.clk_uart_clk_get
                0x000000001000207e       0x32 Output\obj\driver\driver_clk.o
                0x000000001000207e                clk_uart_clk_get
 .text.gpio_init
                0x00000000100020b0      0x122 Output\obj\driver\driver_gpio.o
                0x00000000100020b0                gpio_init
 .text.gpio_func_mapping_config
                0x00000000100021d2       0xac Output\obj\driver\driver_gpio.o
                0x00000000100021d2                gpio_func_mapping_config
 .text.wko_io_config
                0x000000001000227e       0x3e Output\obj\driver\driver_gpio.o
                0x000000001000227e                wko_io_config
 .text.wk0_edge_capture_config
                0x00000000100022bc       0x60 Output\obj\driver\driver_gpio.o
                0x00000000100022bc                wk0_edge_capture_config
 .text.gpio_edge_capture_config
                0x000000001000231c       0xd4 Output\obj\driver\driver_gpio.o
                0x000000001000231c                gpio_edge_capture_config
 .text.gpio_edge_pic_config
                0x00000000100023f0       0x48 Output\obj\driver\driver_gpio.o
                0x00000000100023f0                gpio_edge_pic_config
 .text.lowpwr_get_wakeup_source
                0x0000000010002438       0x80 Output\obj\driver\driver_lowpwr.o
                0x0000000010002438                lowpwr_get_wakeup_source
 .text.lowpwr_wakeup_disable
                0x00000000100024b8       0x38 Output\obj\driver\driver_lowpwr.o
                0x00000000100024b8                lowpwr_wakeup_disable
 .text.lowpwr_wk0_wakeup_config
                0x00000000100024f0       0x72 Output\obj\driver\driver_lowpwr.o
                0x00000000100024f0                lowpwr_wk0_wakeup_config
 .text.lowpwr_gpio_wakeup_config
                0x0000000010002562       0x3c Output\obj\driver\driver_lowpwr.o
                0x0000000010002562                lowpwr_gpio_wakeup_config
 .text.lowpwr_wakeup_config
                0x000000001000259e       0xd8 Output\obj\driver\driver_lowpwr.o
                0x000000001000259e                lowpwr_wakeup_config
 .text.saradc_init
                0x0000000010002676       0x74 Output\obj\driver\driver_saradc.o
                0x0000000010002676                saradc_init
 .text.saradc_add_channel
                0x00000000100026ea      0x128 Output\obj\driver\driver_saradc.o
                0x00000000100026ea                saradc_add_channel
 .text.saradc_deinit
                0x0000000010002812       0xca Output\obj\driver\driver_saradc.o
                0x0000000010002812                saradc_deinit
 .text.saradc_cmd
                0x00000000100028dc       0x16 Output\obj\driver\driver_saradc.o
                0x00000000100028dc                saradc_cmd
 .text.uart_init
                0x00000000100028f2       0x46 Output\obj\driver\driver_uart.o
                0x00000000100028f2                uart_init
 .text.uart_cmd
                0x0000000010002938       0x10 Output\obj\driver\driver_uart.o
                0x0000000010002938                uart_cmd
 .text.uart_baud_config
                0x0000000010002948       0x36 Output\obj\driver\driver_uart.o
                0x0000000010002948                uart_baud_config
 .text.func.msg
                0x000000001000297e       0xd6 Output\obj\project\wireless_peripheral\app\func.o
                0x000000001000297e                func_message
 .text.func     0x0000000010002a54       0x54 Output\obj\project\wireless_peripheral\app\func.o
                0x0000000010002a54                func_enter
                0x0000000010002a56                func_exit
                0x0000000010002a60                func_run
 .text.func.idle
                0x0000000010002aa8       0x40 Output\obj\project\wireless_peripheral\app\func_idle.o
                0x0000000010002aa8                func_idle_process
                0x0000000010002aac                func_idle
 .text.bsp_gpio_wakeup_config
                0x0000000010002ae8       0x36 Output\obj\project\wireless_peripheral\app\func_lowpwr.o
                0x0000000010002ae8                bsp_gpio_wakeup_config
 .text.lowpwr_pwroff_wakeup_config
                0x0000000010002b1e       0x1e Output\obj\project\wireless_peripheral\app\func_lowpwr.o
                0x0000000010002b1e                lowpwr_pwroff_wakeup_config
 .text.lowpwr.pwroff
                0x0000000010002b3c       0x44 Output\obj\project\wireless_peripheral\app\func_lowpwr.o
                0x0000000010002b3c                func_pwroff
 .text.func.wireless
                0x0000000010002b80       0x50 Output\obj\project\wireless_peripheral\app\func_wireless.o
                0x0000000010002b80                func_wireless
 .text.bsp_io_key_init
                0x0000000010002bd0        0xa Output\obj\project\wireless_peripheral\bsp\bsp_io_key.o
                0x0000000010002bd0                bsp_io_key_init
 .text.bsp_key_init
                0x0000000010002bda       0x1a Output\obj\project\wireless_peripheral\bsp\bsp_key.o
                0x0000000010002bda                bsp_key_init
 .text.bsp.param
                0x0000000010002bf4       0x18 Output\obj\project\wireless_peripheral\bsp\bsp_param.o
                0x0000000010002bf4                bsp_param_init
                0x0000000010002c00                bsp_param_write
                0x0000000010002c04                bsp_param_read
                0x0000000010002c08                bsp_param_sync
 .text.bsp_saradc_init
                0x0000000010002c0c       0x3a Output\obj\project\wireless_peripheral\bsp\bsp_saradc.o
                0x0000000010002c0c                bsp_saradc_init
 .text.bsp_vbat_detect_init
                0x0000000010002c46       0x16 Output\obj\project\wireless_peripheral\bsp\bsp_saradc_vbat.o
                0x0000000010002c46                bsp_vbat_detect_init
 .text.bsp_vbat_filter
                0x0000000010002c5c       0x5c Output\obj\project\wireless_peripheral\bsp\bsp_saradc_vbat.o
                0x0000000010002c5c                bsp_vbat_filter
 .text.vddio_adjust_for_vbat
                0x0000000010002cb8       0x64 Output\obj\project\wireless_peripheral\bsp\bsp_saradc_vbat.o
                0x0000000010002cb8                vddio_adjust_for_vbat
 .text.power_on_vbat_check
                0x0000000010002d1c       0x30 Output\obj\project\wireless_peripheral\bsp\bsp_sys.o
 .text.sys_ram_info_dump
                0x0000000010002d4c       0x50 Output\obj\project\wireless_peripheral\bsp\bsp_sys.o
                0x0000000010002d4c                sys_ram_info_dump
 .text.bsp.sys.init
                0x0000000010002d9c       0xb2 Output\obj\project\wireless_peripheral\bsp\bsp_sys.o
                0x0000000010002d9c                bsp_sys_init
 .text.bsp_uart_debug_init
                0x0000000010002e4e       0x82 Output\obj\project\wireless_peripheral\bsp\bsp_uart_debug.o
                0x0000000010002e4e                bsp_uart_debug_init
 .text.startup.main
                0x0000000010002ed0       0x52 Output\obj\project\wireless_peripheral\main.o
                0x0000000010002ed0                main
 .text.wireless_link_info_write
                0x0000000010002f22       0x10 Output\obj\project\wireless_peripheral\modules\wireless\wireless_init.o
                0x0000000010002f22                wireless_link_info_write
 .text.wireless_link_info_read
                0x0000000010002f32       0x2c Output\obj\project\wireless_peripheral\modules\wireless\wireless_init.o
                0x0000000010002f32                wireless_link_info_read
 .text.wireless_adv_init
                0x0000000010002f5e       0xc0 Output\obj\project\wireless_peripheral\modules\wireless\wireless_init.o
                0x0000000010002f5e                wireless_adv_init
 .text.wireless_module_init
                0x000000001000301e       0x60 Output\obj\project\wireless_peripheral\modules\wireless\wireless_init.o
                0x000000001000301e                wireless_module_init
 .text.wireless_module_deinit
                0x000000001000307e        0x4 Output\obj\project\wireless_peripheral\modules\wireless\wireless_init.o
                0x000000001000307e                wireless_module_deinit
 .text.wireless_event_packet_handler
                0x0000000010003082       0x76 Output\obj\project\wireless_peripheral\modules\wireless\wireless_service.o
 .text.wireless_service_init
                0x00000000100030f8       0x52 Output\obj\project\wireless_peripheral\modules\wireless\wireless_service.o
                0x00000000100030f8                wireless_service_init
 .text.wireless_service_process
                0x000000001000314a       0x46 Output\obj\project\wireless_peripheral\modules\wireless\wireless_service.o
                0x000000001000314a                wireless_service_process
 .text.prod_test_init
                0x0000000010003190        0x2 Output\obj\project\wireless_peripheral\prod_test\prod_test.o
                0x0000000010003190                prod_test_init
 .text.mem_heap_size_get
                0x0000000010003192        0x6 Output\obj\project\wireless_peripheral\strong_symbol.o
                0x0000000010003192                mem_heap_size_get
 .text.thread_cfg_get
                0x0000000010003198        0xa Output\obj\project\wireless_peripheral\strong_symbol.o
                0x0000000010003198                thread_cfg_get
 .text.thread_create_callback
                0x00000000100031a2        0x2 Output\obj\project\wireless_peripheral\strong_symbol.o
                0x00000000100031a2                thread_create_callback
 .text.ble_get_local_bd_addr
                0x00000000100031a4       0x14 Output\obj\project\wireless_peripheral\strong_symbol.o
                0x00000000100031a4                ble_get_local_bd_addr
 .text.bt_rf_get_param
                0x00000000100031b8       0x2c Output\obj\project\wireless_peripheral\strong_symbol.o
                0x00000000100031b8                bt_rf_get_param
 .text.xosc_get_xcfg
                0x00000000100031e4       0x20 Output\obj\project\wireless_peripheral\strong_symbol.o
                0x00000000100031e4                xosc_get_xcfg
 .text.param_xosc_read
                0x0000000010003204        0x8 Output\obj\project\wireless_peripheral\strong_symbol.o
                0x0000000010003204                param_xosc_read
 .text.sys_clk_change_callback
                0x000000001000320c       0x10 Output\obj\project\wireless_peripheral\strong_symbol.o
                0x000000001000320c                sys_clk_change_callback
 .text.uart_debug_init_callback
                0x000000001000321c        0x2 Output\obj\project\wireless_peripheral\strong_symbol.o
                0x000000001000321c                uart_debug_init_callback
 .text.private_freq_bands_hook
                0x000000001000321e        0x4 Output\obj\project\wireless_peripheral\strong_symbol.o
                0x000000001000321e                private_freq_bands_hook
 .text.private_access_code_hook
                0x0000000010003222        0xa Output\obj\project\wireless_peripheral\strong_symbol.o
                0x0000000010003222                private_access_code_hook
 .text.cm_loadpage
                0x000000001000322c       0xb0 ..\..\libs\cpu\libplatform.a(cm.o)
 .text.cm_next_freepage
                0x00000000100032dc       0x54 ..\..\libs\cpu\libplatform.a(cm.o)
 .text.cm_loadparam
                0x0000000010003330        0x4 ..\..\libs\cpu\libplatform.a(cm.o)
                0x0000000010003330                cm_loadparam
 .text.cm_factory
                0x0000000010003334        0xa ..\..\libs\cpu\libplatform.a(cm.o)
                0x0000000010003334                cm_factory
 .text.cm_addr_check
                0x000000001000333e        0x4 ..\..\libs\cpu\libplatform.a(cm.o)
                0x000000001000333e                cm_addr_check
 .text.cm_writepage
                0x0000000010003342       0x28 ..\..\libs\cpu\libplatform.a(cm.o)
 .text.cm_movepage
                0x000000001000336a       0x50 ..\..\libs\cpu\libplatform.a(cm.o)
 .text.cm_erase
                0x00000000100033ba       0x1c ..\..\libs\cpu\libplatform.a(cm.o)
 .text.cm_release
                0x00000000100033d6       0xf8 ..\..\libs\cpu\libplatform.a(cm.o)
 .text.cm_savepage
                0x00000000100034ce       0xd2 ..\..\libs\cpu\libplatform.a(cm.o)
 .text.cm_check_loadpage
                0x00000000100035a0       0xae ..\..\libs\cpu\libplatform.a(cm.o)
 .text.cm_sync  0x000000001000364e       0x3c ..\..\libs\cpu\libplatform.a(cm.o)
                0x000000001000364e                cm_sync
 .text.cm_read  0x000000001000368a       0x42 ..\..\libs\cpu\libplatform.a(cm.o)
                0x000000001000368a                cm_read
 .text.cm_write
                0x00000000100036cc       0x5c ..\..\libs\cpu\libplatform.a(cm.o)
                0x00000000100036cc                cm_write
 .text.cm_init  0x0000000010003728      0x1e2 ..\..\libs\cpu\libplatform.a(cm.o)
                0x0000000010003728                cm_init
 .text.xcfg_init
                0x000000001000390a       0x4c ..\..\libs\cpu\libplatform.a(xcfg.o)
                0x000000001000390a                xcfg_init
 .text.platform_main
                0x0000000010003956      0x152 ..\..\libs\cpu\libplatform.a(main.o)
                0x0000000010003956                platform_main
 .text.main_startup
                0x0000000010003aa8        0xe ..\..\libs\cpu\libplatform.a(main.o)
                0x0000000010003aa8                main_startup
 .text.register_isr
                0x0000000010003ab6       0x38 ..\..\libs\cpu\libplatform.a(interrupt.o)
                0x0000000010003ab6                register_isr
 .text.sys_irq_init
                0x0000000010003aee       0x88 ..\..\libs\cpu\libplatform.a(interrupt.o)
                0x0000000010003aee                sys_irq_init
 .text.soft_irq_init
                0x0000000010003b76       0x42 ..\..\libs\cpu\libplatform.a(interrupt.o)
                0x0000000010003b76                soft_irq_init
 .text.bthw_irq_init
                0x0000000010003bb8        0xc ..\..\libs\cpu\libplatform.a(interrupt.o)
                0x0000000010003bb8                bthw_irq_init
 .text.sys_timer_init
                0x0000000010003bc4       0x5c ..\..\libs\cpu\libplatform.a(interrupt.o)
                0x0000000010003bc4                sys_timer_init
 .text.thread_main_entry
                0x0000000010003c20       0x28 ..\..\libs\cpu\libplatform.a(startup.o)
 .text.startup.init
                0x0000000010003c48       0xfe ..\..\libs\cpu\libplatform.a(startup.o)
                0x0000000010003c48                platform_init
                0x0000000010003c50                sys_startup
 .text.sys_set_tmr_enable
                0x0000000010003d46       0x20 ..\..\libs\cpu\libplatform.a(startup.o)
                0x0000000010003d46                sys_set_tmr_enable
 .text.sys_hook_init
                0x0000000010003d66        0x2 ..\..\libs\cpu\libplatform.a(sys_hook.o)
                0x0000000010003d66                sys_hook_init
 .text.pll0_vco_band_trimming
                0x0000000010003d68      0x176 ..\..\libs\cpu\libplatform.a(pll.o)
                0x0000000010003d68                pll0_vco_band_trimming
 .text.pll0_init
                0x0000000010003ede       0x62 ..\..\libs\cpu\libplatform.a(pll.o)
                0x0000000010003ede                pll0_init
 .text.pll0_disable
                0x0000000010003f40       0x16 ..\..\libs\cpu\libplatform.a(pll.o)
                0x0000000010003f40                pll0_disable
 .text.pmu_set_buck_mode
                0x0000000010003f56       0x48 ..\..\libs\cpu\libplatform.a(pmu.o)
                0x0000000010003f56                pmu_set_buck_mode
 .text.pmu_voltage_configure
                0x0000000010003f9e       0x48 ..\..\libs\cpu\libplatform.a(pmu.o)
                0x0000000010003f9e                pmu_voltage_configure
 .text.pmu_init
                0x0000000010003fe6      0x2e2 ..\..\libs\cpu\libplatform.a(pmu.o)
                0x0000000010003fe6                pmu_init
 .text.debug_set
                0x00000000100042c8       0x20 ..\..\libs\cpu\libplatform.a(debug.o)
                0x00000000100042c8                debug_set
 .text.bsp.key.init
                0x00000000100042e8       0x38 ..\..\libs\cpu\libplatform.a(key.o)
                0x00000000100042e8                multiple_key_init
 .text.lock_init
                0x0000000010004320       0x10 ..\..\libs\cpu\libplatform.a(lock.o)
                0x0000000010004320                lock_init
 .text.patch_init
                0x0000000010004330       0x1e ..\..\libs\cpu\libplatform.a(patch.o)
                0x0000000010004330                patch_init
 .text.udivmoddi4
                0x000000001000434e       0x96 ..\..\libs\cpu\libplatform.a(sys.o)
 .text.sys_rst_init
                0x00000000100043e4       0x84 ..\..\libs\cpu\libplatform.a(sys.o)
                0x00000000100043e4                sys_rst_init
 .text.sys_rst_dump
                0x0000000010004468       0x74 ..\..\libs\cpu\libplatform.a(sys.o)
                0x0000000010004468                sys_rst_dump
 .text.rc2m_clk_nhz_cal
                0x00000000100044dc      0x10c ..\..\libs\cpu\libplatform.a(sys.o)
                0x00000000100044dc                rc2m_clk_nhz_cal
 .text.rc2m_clk_nhz_get
                0x00000000100045e8       0x2a ..\..\libs\cpu\libplatform.a(sys.o)
                0x00000000100045e8                rc2m_clk_nhz_get
 .text.sys_get_rand_key_init
                0x0000000010004612        0xa ..\..\libs\cpu\libplatform.a(sys.o)
                0x0000000010004612                sys_get_rand_key_init
 .text.xosc_init
                0x000000001000461c       0xa0 ..\..\libs\cpu\libplatform.a(sys.o)
                0x000000001000461c                xosc_init
 .text.__udivdi3
                0x00000000100046bc        0x6 ..\..\libs\cpu\libplatform.a(sys.o)
                0x00000000100046bc                __udivdi3
 .text.sys_clk_cacl_curr
                0x00000000100046c2       0x18 ..\..\libs\cpu\libplatform.a(sys_clk.o)
 *fill*         0x00000000100046da      0x126 
 .text.set_sys_clk_do
                0x0000000010004800      0x1f2 ..\..\libs\cpu\libplatform.a(sys_clk.o)
                0x0000000010004800                set_sys_clk_do
 .text.sys_clk  0x00000000100049f2      0x1ca ..\..\libs\cpu\libplatform.a(sys_clk.o)
                0x00000000100049f2                sys_clk_get_cur
                0x00000000100049fa                sys_clk_set_do
 .text.sys_clk_set
                0x0000000010004bbc       0x60 ..\..\libs\cpu\libplatform.a(sys_clk.o)
                0x0000000010004bbc                sys_clk_set
 *fill*         0x0000000010004c1c        0x0 
 .text.sys_clk.table
                0x0000000010004c1c       0x16 ..\..\libs\cpu\libplatform.a(sys_clk.o)
                0x0000000010004c1c                sysclk_info_tbl
 .text.pmu_get_vbg_mv
                0x0000000010004c32        0xc ..\..\libs\cpu\libplatform.a(voltage_trim.o)
                0x0000000010004c32                pmu_get_vbg_mv
 .text.pmu_get_vbatdet
                0x0000000010004c3e       0x44 ..\..\libs\cpu\libplatform.a(voltage_trim.o)
                0x0000000010004c3e                pmu_get_vbatdet
 .text.voltage.trim
                0x0000000010004c82       0xb0 ..\..\libs\cpu\libplatform.a(voltage_trim.o)
                0x0000000010004c82                voltage_trim_value_init
 .text.xosc_24m_div_get
                0x0000000010004d32        0x4 ..\..\libs\cpu\libplatform.a(weak_symbol.o)
                0x0000000010004d32                xosc_24m_div_get
 .text.freq_det_kick_flag_clr
                0x0000000010004d36        0x8 ..\..\libs\cpu\libplatform.a(freq_det.o)
                0x0000000010004d36                freq_det_kick_flag_clr
 .text.wl.api   0x0000000010004d3e      0x51e ..\..\libs\wireless\libwireless_slave.a(wireless_api.o)
                0x0000000010004d3e                wireless_event_handler_register
                0x0000000010004d48                wireless_receive_handler_register
                0x0000000010004d52                wireless_connect_by_addr
                0x0000000010004d56                wireless_scan_param_set
                0x0000000010004d5a                wireless_scan_ctrl
                0x0000000010004d5e                wireless_scan_state_get
                0x0000000010004d62                wireless_adv_param_set
                0x0000000010004e58                wireless_adv_ctrl
                0x0000000010004ea0                wireless_adv_state_get
                0x0000000010004ede                wireless_latency_applied
                0x0000000010004f7a                wireless_disconnect
                0x0000000010004ff2                wireless_conn_update
                0x000000001000512c                wireless_conn_query
                0x00000000100051a2                wireless_mtu_get
                0x00000000100051da                wireless_frame_start_hook_register
                0x0000000010005210                wireless_setup
                0x000000001000525a                wireless_off
 .text          0x000000001000525c       0xdc ..\..\libs\wireless\libwireless_slave.a(bb_api.o)
                0x000000001000525c                ble_alarm_timer_init
                0x000000001000525c                soft_timer_init
                0x0000000010005266                soft_timer_mem_extend
                0x0000000010005266                ble_alarm_timer_mem_extend
                0x0000000010005270                soft_timer_mem_free
                0x0000000010005270                ble_alarm_timer_mem_free
                0x0000000010005298                soft_timer_start
                0x0000000010005298                ble_alarm_timer_start
                0x00000000100052c0                soft_timer_stop
                0x00000000100052c0                ble_alarm_timer_stop
                0x00000000100052f2                soft_timer_acquire
                0x00000000100052f2                ble_alarm_timer_acquire
                0x00000000100052fc                ble_alarm_timer_release
                0x00000000100052fc                soft_timer_release
 .text          0x0000000010005338      0x26e ..\..\libs\wireless\libwireless_slave.a(bb.o)
                0x000000001000535a                bb_rand_init
                0x0000000010005362                bb_get_heap_info
                0x0000000010005374                bb_var_init
                0x000000001000537c                bb_nanos_mem_init
                0x00000000100053c2                bb_reset
                0x0000000010005446                bb_init
                0x0000000010005548                bb_off
 .text.bb.timer.ind
                0x00000000100055a6       0x24 ..\..\libs\wireless\libwireless_slave.a(bb_alarm.o)
                0x00000000100055a6                bb_timer_end_ind
 .text.bb.timer.init
                0x00000000100055ca       0xcc ..\..\libs\wireless\libwireless_slave.a(bb_alarm.o)
                0x00000000100055ca                bb_timer_init
 .text          0x0000000010005696      0x110 ..\..\libs\wireless\libwireless_slave.a(bb_int.o)
                0x0000000010005696                bb_sleep_init
                0x0000000010005698                bb_driver_init
 *fill*         0x00000000100057a6       0x5a 
 .text.bb.aes   0x0000000010005800       0xf4 ..\..\libs\wireless\libwireless_slave.a(bb_int.o)
                0x0000000010005800                bb_aes_encrypt
 .text          0x00000000100058f4       0x40 ..\..\libs\wireless\libwireless_slave.a(ble.o)
                0x00000000100058f4                ble_init
 .text.ble.var.init
                0x0000000010005934       0x56 ..\..\libs\wireless\libwireless_slave.a(ble.o)
                0x0000000010005934                ble_var_init
 .text          0x000000001000598a      0x150 ..\..\libs\wireless\libwireless_slave.a(ble_buf.o)
                0x000000001000598a                ble_buf_init_do
                0x0000000010005a92                ble_buf_init
 *fill*         0x0000000010005ada       0x26 
 .text.bb.buf   0x0000000010005b00       0x98 ..\..\libs\wireless\libwireless_slave.a(ble_buf.o)
                0x0000000010005b00                ble_buf_acl_tx_elt_get
                0x0000000010005b40                ble_buf_acl_tx_elt_set
 .text          0x0000000010005b98       0xa8 ..\..\libs\wireless\libwireless_slave.a(ble_adv.o)
                0x0000000010005b98                ble_adv_init_hook
                0x0000000010005bde                ble_get_adv_var
                0x0000000010005be6                ble_adv_init
 *fill*         0x0000000010005c40       0xc0 
 .text          0x0000000010005d00      0x700 ..\..\libs\wireless\libwireless_slave.a(ble_con.o)
                0x0000000010005d00                ble_con_start_do
                0x0000000010005d26                ble_con_start
                0x0000000010006200                ble_con_stop
                0x0000000010006280                ble_con_offset_get
                0x00000000100062c0                ble_con_pref_slave_latency_set
                0x00000000100062fc                ble_con_peer_sca_set
 .text.le.con   0x0000000010006400       0x84 ..\..\libs\wireless\libwireless_slave.a(ble_con.o)
                0x0000000010006400                ble_get_con_var
                0x0000000010006408                ble_get_con_rssi
                0x000000001000641e                ble_con_init
 .text          0x0000000010006484      0x1e6 ..\..\libs\wireless\libwireless_slave.a(ble_hal.o)
                0x0000000010006484                ble_get_rslv_var
                0x0000000010006488                ble_hal_init
                0x0000000010006662                ble_ch_assess_data_get
 .text          0x000000001000666a        0x4 ..\..\libs\wireless\libwireless_slave.a(ble_init.o)
                0x000000001000666a                ble_get_init_var
 .text          0x000000001000666e        0x8 ..\..\libs\wireless\libwireless_slave.a(ble_scan.o)
                0x000000001000666e                ble_get_scan_var
                0x0000000010006672                ble_get_ssync_var
 .text          0x0000000010006676        0x4 ..\..\libs\wireless\libwireless_slave.a(ble_sync.o)
                0x0000000010006676                ble_get_sync_var
 .text          0x000000001000667a       0x28 ..\..\libs\wireless\libwireless_slave.a(ble_test.o)
                0x000000001000667a                ble_test_init
                0x000000001000669a                ble_get_test_var
 .text.bb.ble.test.start
                0x00000000100066a2       0x2e ..\..\libs\wireless\libwireless_slave.a(ble_test.o)
                0x00000000100066a2                ble_test_start
 .text.le.ll_cntl
                0x00000000100066d0       0x68 ..\..\libs\wireless\libwireless_slave.a(ll.o)
                0x00000000100066d0                ll_init
 .text.le.ll_cntl.start
                0x0000000010006738      0x244 ..\..\libs\wireless\libwireless_slave.a(ll.o)
                0x0000000010006738                ll_start
 .text          0x000000001000697c      0x198 ..\..\libs\wireless\libwireless_slave.a(ll_cntl.o)
                0x000000001000697c                ble_cntl_rx_ind_func
 .text.le.ll_cntl.pdu
                0x0000000010006b14       0x1a ..\..\libs\wireless\libwireless_slave.a(ll_cntl.o)
 .text.le.ll_cntl.send
                0x0000000010006b2e       0xa2 ..\..\libs\wireless\libwireless_slave.a(ll_cntl.o)
                0x0000000010006b2e                ll_cntl_send
 .text          0x0000000010006bd0      0xe8e ..\..\libs\wireless\libwireless_slave.a(ll_con_upd.o)
                0x0000000010007528                hci_le_con_upd_cmd_func
                0x00000000100076b2                hci_le_rem_con_param_req_reply_cmd_func
                0x0000000010007790                hci_le_rem_con_param_req_neg_reply_cmd_func
                0x00000000100077f8                ll_op_con_upd_ind_func
                0x000000001000789a                ble_con_param_upd_cfm_func
                0x0000000010007912                ble_con_offset_upd_ind_func
                0x0000000010007964                ll_con_move_cb
 .text.le.ll_cntl.pdu
                0x0000000010007a5e      0x332 ..\..\libs\wireless\libwireless_slave.a(ll_con_upd.o)
                0x0000000010007a5e                ll_con_update_ind_func
                0x0000000010007bce                ll_con_param_req_func
                0x0000000010007cf2                ll_con_param_rsp_func
 *fill*         0x0000000010007d90        0x0 
 .text          0x0000000010007d90      0x850 ..\..\libs\wireless\libwireless_slave.a(ll_encrypt.o)
                0x0000000010008372                hci_le_ltk_req_reply_cmd_func
                0x00000000100083f0                hci_le_ltk_req_neg_reply_cmd_func
                0x000000001000848a                ll_encrypt_ind_func
                0x0000000010008576                ll_op_encrypt_ind_func
 .text.le.ll_cntl.pdu
                0x00000000100085e0      0x348 ..\..\libs\wireless\libwireless_slave.a(ll_encrypt.o)
                0x00000000100085e0                ll_pause_enc_req_func
                0x0000000010008666                ll_pause_enc_rsp_func
                0x00000000100086d2                ll_enc_req_func
                0x00000000100087ec                ll_enc_rsp_func
                0x0000000010008872                ll_start_enc_req_func
                0x00000000100088ce                ll_start_enc_rsp_func
 .text          0x0000000010008928      0x292 ..\..\libs\wireless\libwireless_slave.a(ll_feature.o)
                0x0000000010008aee                ll_op_feats_exch_ind_func
                0x0000000010008b6a                ll_feature_exchange_proc_start
 .text.le.ll_cntl.pdu
                0x0000000010008bba      0x168 ..\..\libs\wireless\libwireless_slave.a(ll_feature.o)
                0x0000000010008bba                ll_feature_req_func
                0x0000000010008c2e                ll_slave_feature_req_func
                0x0000000010008ca2                ll_feature_rsp_func
 .text          0x0000000010008d22      0x3ae ..\..\libs\wireless\libwireless_slave.a(ll_length.o)
                0x0000000010008fc6                ll_op_length_upd_ind_func
                0x0000000010009034                ll_length_proc_start_for_param
                0x000000001000909c                ll_length_proc_start
 .text.le.ll_cntl.pdu
                0x00000000100090d0      0x214 ..\..\libs\wireless\libwireless_slave.a(ll_length.o)
                0x00000000100090d0                ll_length_req_func
                0x0000000010009242                ll_length_rsp_func
 .text          0x00000000100092e4      0xa26 ..\..\libs\wireless\libwireless_slave.a(ll_phy_upd.o)
                0x0000000010009baa                ll_op_phy_upd_ind_func
                0x0000000010009c46                ble_phy_upd_cfm_func
                0x0000000010009c86                ll_phy_upd_proc_start
 .text.le.ll_cntl.pdu
                0x0000000010009d0a      0x264 ..\..\libs\wireless\libwireless_slave.a(ll_phy_upd.o)
                0x0000000010009d0a                ll_phy_req_func
                0x0000000010009de0                ll_phy_rsp_func
                0x0000000010009e7a                ll_phy_update_ind_func
 .text          0x0000000010009f6e      0x28c ..\..\libs\wireless\libwireless_slave.a(ll_proc.o)
                0x0000000010009f8e                hci_command_ll_func
                0x0000000010009fc6                ble_acl_rx_ind_func
                0x000000001000a13a                ble_acl_tx_cfm_func
                0x000000001000a14a                ll_cmd_cmp_send
                0x000000001000a17c                hci_vs_set_pref_slave_latency_cmd_func
                0x000000001000a1d2                ll_cmd_stat_send
 .text          0x000000001000a1fa       0x60 ..\..\libs\wireless\libwireless_slave.a(ll_version.o)
                0x000000001000a226                ble_ll_version_get
 .text.le.ll_cntl.pdu
                0x000000001000a25a      0x14e ..\..\libs\wireless\libwireless_slave.a(ll_version.o)
                0x000000001000a25a                ll_version_ind_func
 .text          0x000000001000a3a8      0x46c ..\..\libs\wireless\libwireless_slave.a(mgr.o)
                0x000000001000a3a8                mgr_cmd_cmp_send
                0x000000001000a3ce                mgr_cmd_stat_send
                0x000000001000a3f4                mgr_is_dev_connected
                0x000000001000a45e                mgr_ral_is_empty
                0x000000001000a462                mgr_ch_map_update
                0x000000001000a56e                mgr_init
                0x000000001000a68c                mgr_clk_acc_set
                0x000000001000a6ca                mgr_link_disc
                0x000000001000a6fc                mgr_le_evt_mask_check
                0x000000001000a716                mgr_le_get_features
                0x000000001000a786                mgr_le_get_tbox_feat
                0x000000001000a794                mgr_plan_elt_get
                0x000000001000a7a2                mgr_act_get_free
                0x000000001000a7f2                mgr_act_set_free
 .text          0x000000001000a814       0x3a ..\..\libs\wireless\libwireless_slave.a(mgr_proc.o)
 .text          0x000000001000a84e      0x21c ..\..\libs\wireless\libwireless_slave.a(mgr_test.o)
                0x000000001000a870                ble_test_end_ind_func
                0x000000001000a8b0                hci_le_rx_test_v1_cmd_func
                0x000000001000a8f6                hci_le_tx_test_v1_cmd_func
                0x000000001000a95a                hci_le_rx_test_v2_cmd_func
                0x000000001000a9ba                hci_le_tx_test_v2_cmd_func
                0x000000001000aa30                hci_le_test_end_cmd_func
 *fill*         0x000000001000aa6a       0x16 
 .text          0x000000001000aa80      0x2d4 ..\..\libs\wireless\libwireless_slave.a(hct.o)
                0x000000001000aa80                hct_init
                0x000000001000aa90                hci_send_2_host
                0x000000001000aacc                hci_cmd_send_2_controller
                0x000000001000ab78                hci_acl_send_2_controller
                0x000000001000ac80                hci_malloc_for_cmd_tmpl
                0x000000001000acd2                hci_malloc_for_acl_tx
                0x000000001000acf0                hci_ble_conhdl_register
                0x000000001000acfe                hci_ble_conhdl_unregister
 .text          0x000000001000ad54      0x112 ..\..\libs\wireless\libwireless_slave.a(hct_msg.o)
                0x000000001000ad54                hci_look_for_cmd_desc
                0x000000001000adde                hci_look_for_evt_desc
                0x000000001000ae20                hci_look_for_dbg_evt_desc
                0x000000001000ae24                hci_look_for_le_evt_desc
 .text          0x000000001000ae66      0x402 ..\..\libs\wireless\libwireless_slave.a(hct_proc.o)
                0x000000001000b1c8                hct_register_handler_evt
                0x000000001000b1d0                hct_register_handler_acl
                0x000000001000b1d8                hct_acl_block_request
                0x000000001000b228                hct_init_do
 .text          0x000000001000b268        0x2 ..\..\libs\wireless\libwireless_slave.a(ble_hook.o)
                0x000000001000b268                ble_hal_init_hook
 .text          0x000000001000b26a       0x7a ..\..\libs\wireless\libwireless_slave.a(rf.o)
                0x000000001000b26a                rf_off
                0x000000001000b282                rf_reset
                0x000000001000b284                rf_init
 .text          0x000000001000b2e4      0x2ca ..\..\libs\wireless\libwireless_slave.a(rf_mate.o)
                0x000000001000b3ca                rfphy_tx
                0x000000001000b57c                rfphy_test
                0x000000001000b57e                ble_rf_external_pa_init
 .text.rfphy.other
                0x000000001000b5ae       0x8a ..\..\libs\wireless\libwireless_slave.a(rf_mate.o)
 .text.rf.param.init
                0x000000001000b638       0xda ..\..\libs\wireless\libwireless_slave.a(rf_mate.o)
 .text.bb.rf    0x000000001000b712       0x7a ..\..\libs\wireless\libwireless_slave.a(rf_mate.o)
                0x000000001000b712                rfphy_sw_ctrl
                0x000000001000b742                rfphy_tx_pwr
 .text.bb.phy.tx
                0x000000001000b78c       0x8c ..\..\libs\wireless\libwireless_slave.a(rf_mate.o)
                0x000000001000b78c                rfphy_tx_tone
 .text          0x000000001000b818       0x9c ..\..\libs\wireless\libwireless_slave.a(vs.o)
                0x000000001000b818                vs_init
                0x000000001000b854                vs_reset_complete_evt
 .text          0x000000001000b8b4       0xb8 ..\..\libs\wireless\libwireless_slave.a(vs_proc.o)
 .text          0x000000001000b96c       0x74 ..\..\libs\wireless\libwireless_slave.a(wireless.o)
                0x000000001000b96c                wireless_init_sanity_check
                0x000000001000b99e                wireless_init
 .text          0x000000001000b9e0      0x408 ..\..\libs\wireless\libwireless_slave.a(wireless_proc.o)
 .text          0x000000001000bde8       0x34 ..\..\libs\wireless\libwireless_slave.a(extern.o)
                0x000000001000bdf2                ble_rx_exit_sleep
                0x000000001000bdf6                ble_feature_exchange_enabled
                0x000000001000bdfa                ble_length_request_enabled
                0x000000001000bdfe                bt_rf_get_fcc_param
                0x000000001000be02                ble_phy_update_enable
                0x000000001000be14                ble_tbox_feature_req_enabled
                0x000000001000be18                ble_chmap_instant_pass_discon
 .text.bb.aes   0x000000001000be1c      0x19a ..\..\libs\wireless\libwireless_slave.a(aes.o)
                0x000000001000be1c                aes_init
                0x000000001000be66                aes_alloc
                0x000000001000be88                aes_start
                0x000000001000bec6                aes_encrypt
                0x000000001000bf12                aes_rand
                0x000000001000bf4e                aes_result_handler
 .text          0x000000001000bfb6      0x166 ..\..\libs\wireless\libwireless_slave.a(patch.o)
                0x000000001000bfb6                bb_patch_dummy
                0x000000001000bfb8                bb_patch_init
 .text          0x000000001000c11c       0x34 ..\..\libs\wireless\libwireless_slave.a(bb_sche.o)
                0x000000001000c11c                bb_sche_frag_ble_dur_set
                0x000000001000c12e                bb_sche_init
 .text          0x000000001000c150       0x76 ..\..\libs\wireless\libwireless_slave.a(nanos.o)
                0x000000001000c150                nanos_init
                0x000000001000c186                nanos_var_init
 .text          0x000000001000c1c6      0x1b8 ..\..\libs\wireless\libwireless_slave.a(ll_chmap_upd.o)
                0x000000001000c2ee                ll_op_ch_map_upd_ind_func
                0x000000001000c356                ble_ch_map_upd_cfm_func
 .text.le.ll_cntl.pdu
                0x000000001000c37e      0x1da ..\..\libs\wireless\libwireless_slave.a(ll_chmap_upd.o)
                0x000000001000c37e                ll_channel_map_ind_func
                0x000000001000c4ae                ll_min_used_channels_ind_func
 .text.le.ll_cntl.pdu
                0x000000001000c558      0x112 ..\..\libs\wireless\libwireless_slave.a(ll_clk_acc.o)
                0x000000001000c558                ll_clk_acc_req_func
                0x000000001000c5b2                ll_clk_acc_rsp_func
 .text          0x000000001000c66a      0x110 ..\..\libs\wireless\libwireless_slave.a(ll_disconnect.o)
                0x000000001000c66a                ll_stopped_ind_func
                0x000000001000c6ca                hci_disconnect_cmd_func
 .text          0x000000001000c77a      0x700 ..\..\libs\wireless\libwireless_slave.a(ll_adv.o)
                0x000000001000c82a                ll_adv_hdl_to_idx
                0x000000001000c87a                hci_le_set_adv_param_cmd_func
                0x000000001000ca6c                hci_le_set_adv_data_cmd_func
                0x000000001000cb4a                hci_le_set_scan_rsp_data_cmd_func
                0x000000001000cc1a                hci_le_set_adv_en_cmd_func
 .text.le.ll_adv.con
                0x000000001000ce7a      0x298 ..\..\libs\wireless\libwireless_slave.a(ll_adv.o)
                0x000000001000ce7a                ble_adv_end_con_ind
 .text.le.ll_adv
                0x000000001000d112      0x2e8 ..\..\libs\wireless\libwireless_slave.a(ll_adv.o)
                0x000000001000d112                ble_adv_end_ind_func
 .text          0x000000001000d3fa      0x17e ..\..\libs\wireless\libwireless_slave.a(mgr_hci.o)
                0x000000001000d564                hci_le_rd_buff_size
 .text.le.mgr   0x000000001000d578       0x38 ..\..\libs\wireless\libwireless_slave.a(mgr_hci.o)
                0x000000001000d578                hci_command_mgr_func
 .text          0x000000001000d5b0        0x4 ..\..\libs\wireless\libwireless_slave.a(adv_hook.o)
                0x000000001000d5b0                ble_adv_end_ind_hook
 .text.bb.vs.fcc_ble.do
                0x000000001000d5b4       0x8a ..\..\libs\wireless\libwireless_slave.a(vs_fcc.o)
                0x000000001000d5b4                vs_ble_test_do
 .text.bb.vs.fcc
                0x000000001000d63e       0xc2 ..\..\libs\wireless\libwireless_slave.a(vs_fcc.o)
                0x000000001000d63e                vs_ble_test
                0x000000001000d642                vs_fcc_test_cmd
 .text          0x000000001000d700       0x72 ..\..\libs\wireless\libwireless_slave.a(thread.o)
                0x000000001000d700                thread_nanos_task_create
 *(.rodata*)
 *fill*         0x000000001000d772        0x2 
 .rodata.str1.4
                0x000000001000d774       0x3b Output\obj\driver\driver_lowpwr.o
 *fill*         0x000000001000d7af        0x1 
 .rodata        0x000000001000d7b0        0x9 Output\obj\project\wireless_peripheral\app\func.o
 *fill*         0x000000001000d7b9        0x3 
 .rodata.str1.4
                0x000000001000d7bc       0xc1 Output\obj\project\wireless_peripheral\app\func.o
                                         0xc8 (size before relaxing)
 *fill*         0x000000001000d87d        0x3 
 .rodata        0x000000001000d880        0xa Output\obj\project\wireless_peripheral\app\func_idle.o
 .rodata.str1.4
                0x000000001000d88a        0x4 Output\obj\project\wireless_peripheral\app\func_idle.o
 *fill*         0x000000001000d88a        0x2 
 .rodata        0x000000001000d88c        0xc Output\obj\project\wireless_peripheral\app\func_lowpwr.o
 .rodata.str1.4
                0x000000001000d898        0x4 Output\obj\project\wireless_peripheral\app\func_lowpwr.o
 .rodata        0x000000001000d898        0xe Output\obj\project\wireless_peripheral\app\func_wireless.o
 .rodata.str1.4
                0x000000001000d8a6        0x4 Output\obj\project\wireless_peripheral\app\func_wireless.o
 *fill*         0x000000001000d8a6        0x2 
 .rodata.str1.4
                0x000000001000d8a8       0x28 Output\obj\project\wireless_peripheral\bsp\bsp_saradc_vbat.o
 .rodata        0x000000001000d8d0        0xd Output\obj\project\wireless_peripheral\bsp\bsp_sys.o
 *fill*         0x000000001000d8dd        0x3 
 .rodata.str1.4
                0x000000001000d8e0       0x5d Output\obj\project\wireless_peripheral\bsp\bsp_sys.o
                                         0x64 (size before relaxing)
 *fill*         0x000000001000d93d        0x3 
 .rodata.str1.4
                0x000000001000d940       0x2c Output\obj\project\wireless_peripheral\main.o
 .rodata        0x000000001000d96c       0x15 Output\obj\project\wireless_peripheral\modules\wireless\wireless_init.o
 *fill*         0x000000001000d981        0x3 
 .rodata.str1.4
                0x000000001000d984       0x57 Output\obj\project\wireless_peripheral\modules\wireless\wireless_init.o
 *fill*         0x000000001000d9db        0x1 
 .rodata        0x000000001000d9dc       0x16 Output\obj\project\wireless_peripheral\modules\wireless\wireless_service.o
 *fill*         0x000000001000d9f2        0x2 
 .rodata.str1.4
                0x000000001000d9f4       0x70 Output\obj\project\wireless_peripheral\modules\wireless\wireless_service.o
                                         0x80 (size before relaxing)
 .rodata        0x000000001000da64       0x10 Output\obj\project\wireless_peripheral\strong_symbol.o
 .rodata.str1.4
                0x000000001000da74       0x1e Output\obj\project\wireless_peripheral\strong_symbol.o
 *fill*         0x000000001000da92        0x2 
 .rodata.str1.4
                0x000000001000da94       0xfc ..\..\libs\cpu\libplatform.a(cm.o)
 .rodata.str1.4
                0x000000001000db90       0x10 ..\..\libs\cpu\libplatform.a(main.o)
 .rodata.str1.4
                0x000000001000dba0       0x3f ..\..\libs\cpu\libplatform.a(startup.o)
 *fill*         0x000000001000dbdf        0x1 
 .rodata.str1.4
                0x000000001000dbe0       0x20 ..\..\libs\cpu\libplatform.a(pll.o)
 .rodata.str1.4
                0x000000001000dc00       0x45 ..\..\libs\cpu\libplatform.a(sys.o)
 *fill*         0x000000001000dc45        0x3 
 .rodata        0x000000001000dc48       0x24 ..\..\libs\wireless\libwireless_slave.a(bb.o)
                0x000000001000dc48                bb_hook
 .rodata.bb.tbl
                0x000000001000dc6c       0x1c ..\..\libs\wireless\libwireless_slave.a(ble.o)
                0x000000001000dc6c                ble_ctl
 .rodata.bb.tbl
                0x000000001000dc88        0x8 ..\..\libs\wireless\libwireless_slave.a(ble_con.o)
                0x000000001000dc88                connect_req_dur_tab
 .rodata.str1.4
                0x000000001000dc90       0x55 ..\..\libs\wireless\libwireless_slave.a(ll_cntl.o)
                                         0x59 (size before relaxing)
 *fill*         0x000000001000dce5        0x3 
 .rodata.le.ll_cntl.tbl
                0x000000001000dce8      0x1f8 ..\..\libs\wireless\libwireless_slave.a(ll_cntl.o)
                0x000000001000dce8                ll_cntl_pdu_tbl
 .rodata.le.ll_cntl.tbl
                0x000000001000dee0      0x100 ..\..\libs\wireless\libwireless_slave.a(ll_proc.o)
                0x000000001000dee0                ll_msg_tbl
                0x000000001000dfa8                ll_hci_cmd_tbl
 .rodata        0x000000001000dfe0       0x20 ..\..\libs\wireless\libwireless_slave.a(mgr_proc.o)
 .rodata        0x000000001000e000       0xd8 ..\..\libs\wireless\libwireless_slave.a(hct_msg.o)
                0x000000001000e000                hci_cmd_desc_root_tab
                0x000000001000e040                hci_evt_desc_tab
                0x000000001000e050                hci_evt_le_desc_tab
                0x000000001000e060                hci_cmd_desc_tab_vs
                0x000000001000e060                hci_evt_dbg_desc_tab
                0x000000001000e06c                hci_cmd_desc_tab_le
                0x000000001000e0b8                hci_cmd_desc_tab_stat_par
                0x000000001000e0b8                hci_cmd_desc_tab_info_par
                0x000000001000e0c4                hci_cmd_desc_tab_ctrl_bb
 .rodata.str1.4
                0x000000001000e0d8        0x9 ..\..\libs\wireless\libwireless_slave.a(hct_proc.o)
 *fill*         0x000000001000e0e1        0x3 
 .rodata        0x000000001000e0e4       0x4c ..\..\libs\wireless\libwireless_slave.a(hct_proc.o)
 .rodata.bb.tbl
                0x000000001000e130       0x51 ..\..\libs\wireless\libwireless_slave.a(rf_mate.o)
 *fill*         0x000000001000e181        0x3 
 .rodata        0x000000001000e184       0x20 ..\..\libs\wireless\libwireless_slave.a(vs_proc.o)
 .rodata.str1.4
                0x000000001000e1a4       0x23 ..\..\libs\wireless\libwireless_slave.a(wireless.o)
 *fill*         0x000000001000e1c7        0x1 
 .rodata        0x000000001000e1c8       0x30 ..\..\libs\wireless\libwireless_slave.a(wireless_proc.o)
 .rodata.le.mgr_cntl.tbl
                0x000000001000e1f8       0x30 ..\..\libs\wireless\libwireless_slave.a(wireless_proc.o)
 .rodata        0x000000001000e228       0x24 ..\..\libs\wireless\libwireless_slave.a(bb_sche.o)
 .rodata.bb.tbl
                0x000000001000e24c       0x10 ..\..\libs\wireless\libwireless_slave.a(bb_utils.o)
                0x000000001000e24c                null_array
 .rodata.le.mgr_cntl.tbl
                0x000000001000e25c       0x68 ..\..\libs\wireless\libwireless_slave.a(mgr_hci.o)
                0x000000001000e25c                mgr_hci_cmd_tbl
 .rodata.str1.4
                0x000000001000e2c4       0x28 ..\..\libs\wireless\libwireless_slave.a(thread.o)
                                         0x26 (size before relaxing)
 *(.srodata*)
 .srodata       0x000000001000e2ec       0x20 ..\..\libs\wireless\libwireless_slave.a(mgr.o)
 .srodata       0x000000001000e30c        0x4 ..\..\libs\wireless\libwireless_slave.a(hct_msg.o)
                0x000000001000e30c                hci_cmd_desc_tab_lk_ctrl
 .srodata       0x000000001000e310        0x5 ..\..\libs\wireless\libwireless_slave.a(ll_adv.o)
 *(.rela*)
 .rela.text.clk_clk32k_rtc_get
                0x000000001000e315        0x0 Output\obj\driver\driver_clk.o
 .rela.text.clk_saradc_clk_get
                0x000000001000e315        0x0 Output\obj\driver\driver_clk.o
 .rela.text.clk_clk2m_ks_get
                0x000000001000e315        0x0 Output\obj\driver\driver_clk.o
 .rela.text.wk0_edge_capture_config
                0x000000001000e315        0x0 Output\obj\driver\driver_clk.o
 .rela.text.gpio_edge_capture_config
                0x000000001000e315        0x0 Output\obj\driver\driver_clk.o
 .rela.text.gpio_edge_capture_config_custom
                0x000000001000e315        0x0 Output\obj\driver\driver_clk.o
 .rela.text.gpio_set_reset_pin
                0x000000001000e315        0x0 Output\obj\driver\driver_clk.o
 .rela.text.gpio_edge_pic_config
                0x000000001000e315        0x0 Output\obj\driver\driver_clk.o
 .rela.text.hsuart_init
                0x000000001000e315        0x0 Output\obj\driver\driver_clk.o
 .rela.text.hsuart_baud_config
                0x000000001000e315        0x0 Output\obj\driver\driver_clk.o
 .rela.text.hsuart_pic_config
                0x000000001000e315        0x0 Output\obj\driver\driver_clk.o
 .rela.text.keyscan_pic_config
                0x000000001000e315        0x0 Output\obj\driver\driver_clk.o
 .rela.text.ledc_pic_config
                0x000000001000e315        0x0 Output\obj\driver\driver_clk.o
 .rela.com_pwroff.mode2
                0x000000001000e315        0x0 Output\obj\driver\driver_clk.o
 .rela.com_sleep.lp_wakeup
                0x000000001000e315        0x0 Output\obj\driver\driver_clk.o
 .rela.text.lowpwr_get_wakeup_source
                0x000000001000e315        0x0 Output\obj\driver\driver_clk.o
 .rela.text.lowpwr_wk0_wakeup_config
                0x000000001000e315        0x0 Output\obj\driver\driver_clk.o
 .rela.text.lowpwr_gpio_wakeup_config
                0x000000001000e315        0x0 Output\obj\driver\driver_clk.o
 .rela.text.lowpwr_gpio_wakeup_config_custom
                0x000000001000e315        0x0 Output\obj\driver\driver_clk.o
 .rela.text.lowpwr_wakeup_config
                0x000000001000e315        0x0 Output\obj\driver\driver_clk.o
 .rela.com_pwroff.mode1
                0x000000001000e315        0x0 Output\obj\driver\driver_clk.o
 .rela.com_sleep.proc_do
                0x000000001000e315        0x0 Output\obj\driver\driver_clk.o
 .rela.com_sleep.sleep
                0x000000001000e315        0x0 Output\obj\driver\driver_clk.o
 .rela.text.rtc_pic_config
                0x000000001000e315        0x0 Output\obj\driver\driver_clk.o
 .rela.text.saradc_mic_init
                0x000000001000e315        0x0 Output\obj\driver\driver_clk.o
 .rela.text.saradc_init
                0x000000001000e315        0x0 Output\obj\driver\driver_clk.o
 .rela.text.saradc_deinit
                0x000000001000e315        0x0 Output\obj\driver\driver_clk.o
 .rela.text.saradc_set_baud
                0x000000001000e315        0x0 Output\obj\driver\driver_clk.o
 .rela.text.saradc_pic_config
                0x000000001000e315        0x0 Output\obj\driver\driver_clk.o
 .rela.com_periph.saradc.get_data
                0x000000001000e315        0x0 Output\obj\driver\driver_clk.o
 .rela.text.spi_init
                0x000000001000e315        0x0 Output\obj\driver\driver_clk.o
 .rela.text.tmr_pic_config
                0x000000001000e315        0x0 Output\obj\driver\driver_clk.o
 .rela.text.uart_init
                0x000000001000e315        0x0 Output\obj\driver\driver_clk.o
 .rela.text.uart_pic_config
                0x000000001000e315        0x0 Output\obj\driver\driver_clk.o
 .rela.text.uart_baud_config
                0x000000001000e315        0x0 Output\obj\driver\driver_clk.o
 .rela.text.app.proc.func
                0x000000001000e315        0x0 Output\obj\driver\driver_clk.o
 .rela.text.func.msg
                0x000000001000e315        0x0 Output\obj\driver\driver_clk.o
 .rela.text.func
                0x000000001000e315        0x0 Output\obj\driver\driver_clk.o
 .rela.text.func.idle
                0x000000001000e315        0x0 Output\obj\driver\driver_clk.o
 .rela.text.bsp_gpio_wakeup_config
                0x000000001000e315        0x0 Output\obj\driver\driver_clk.o
 .rela.text.lowpwr_pwroff_wakeup_config
                0x000000001000e315        0x0 Output\obj\driver\driver_clk.o
 .rela.text.lowpwr.pwroff
                0x000000001000e315        0x0 Output\obj\driver\driver_clk.o
 .rela.text.func.wireless
                0x000000001000e315        0x0 Output\obj\driver\driver_clk.o
 .rela.com_text.key.scan
                0x000000001000e315        0x0 Output\obj\driver\driver_clk.o
 .rela.text.bsp_key_init
                0x000000001000e315        0x0 Output\obj\driver\driver_clk.o
 .rela.text.bsp.param
                0x000000001000e315        0x0 Output\obj\driver\driver_clk.o
 .rela.text.bsp.param.fota
                0x000000001000e315        0x0 Output\obj\driver\driver_clk.o
 .rela.text.bsp_saradc_init
                0x000000001000e315        0x0 Output\obj\driver\driver_clk.o
 .rela.com_text.saradc_scan
                0x000000001000e315        0x0 Output\obj\driver\driver_clk.o
 .rela.text.bsp_vbat_detect_init
                0x000000001000e315        0x0 Output\obj\driver\driver_clk.o
 .rela.text.vddio_adjust_for_vbat
                0x000000001000e315        0x0 Output\obj\driver\driver_clk.o
 .rela.text.app.proc.vbat
                0x000000001000e315        0x0 Output\obj\driver\driver_clk.o
 .rela.text.power_on_vbat_check
                0x000000001000e315        0x0 Output\obj\driver\driver_clk.o
 .rela.text.sys_ram_info_dump
                0x000000001000e315        0x0 Output\obj\driver\driver_clk.o
 .rela.com_text.dev.detect
                0x000000001000e315        0x0 Output\obj\driver\driver_clk.o
 .rela.com_text.timer
                0x000000001000e315        0x0 Output\obj\driver\driver_clk.o
 .rela.text.bsp.sys.init
                0x000000001000e315        0x0 Output\obj\driver\driver_clk.o
 .rela.text.bsp_periph_init
                0x000000001000e315        0x0 Output\obj\driver\driver_clk.o
 .rela.text.bsp_uart_debug_init
                0x000000001000e315        0x0 Output\obj\driver\driver_clk.o
 .rela.text.startup.main
                0x000000001000e315        0x0 Output\obj\driver\driver_clk.o
 .rela.text.usb_ep_init_handler
                0x000000001000e315        0x0 Output\obj\driver\driver_clk.o
 .rela.usbdev.com
                0x000000001000e315        0x0 Output\obj\driver\driver_clk.o
 .rela.text.usb_ep_callback_register
                0x000000001000e315        0x0 Output\obj\driver\driver_clk.o
 .rela.text.usb_ep_start_transfer
                0x000000001000e315        0x0 Output\obj\driver\driver_clk.o
 .rela.text.usb_device_init
                0x000000001000e315        0x0 Output\obj\driver\driver_clk.o
 .rela.text.usb_device_deinit
                0x000000001000e315        0x0 Output\obj\driver\driver_clk.o
 .rela.text.usb_get_manufacturer_str_descriptor
                0x000000001000e315        0x0 Output\obj\driver\driver_clk.o
 .rela.text.usb_get_product_str_descriptor
                0x000000001000e315        0x0 Output\obj\driver\driver_clk.o
 .rela.text.usb_get_serial_str_descriptor
                0x000000001000e315        0x0 Output\obj\driver\driver_clk.o
 .rela.text.usb_usr_audio_mic_data_request
                0x000000001000e315        0x0 Output\obj\driver\driver_clk.o
 .rela.text.usb_usr_audio_mic_vol_set
                0x000000001000e315        0x0 Output\obj\driver\driver_clk.o
 .rela.text.usb_usr_audio_mic_mute_set
                0x000000001000e315        0x0 Output\obj\driver\driver_clk.o
 .rela.text.usb_usr_audio_mic_stop
                0x000000001000e315        0x0 Output\obj\driver\driver_clk.o
 .rela.text.usb_usr_audio_mic_start
                0x000000001000e315        0x0 Output\obj\driver\driver_clk.o
 .rela.text.usb_usr_audio_init
                0x000000001000e315        0x0 Output\obj\driver\driver_clk.o
 .rela.text.usb_usr_audio_mic_is_start
                0x000000001000e315        0x0 Output\obj\driver\driver_clk.o
 .rela.com_text.usb.uac.dec
                0x000000001000e315        0x0 Output\obj\driver\driver_clk.o
 .rela.com_text.usb.uac.stream
                0x000000001000e315        0x0 Output\obj\driver\driver_clk.o
 .rela.com_text.usb.hid.queue
                0x000000001000e315        0x0 Output\obj\driver\driver_clk.o
 .rela.com_text.usb.hid.in
                0x000000001000e315        0x0 Output\obj\driver\driver_clk.o
 .rela.text.usb_usr_hid_resume
                0x000000001000e315        0x0 Output\obj\driver\driver_clk.o
 .rela.text.usb_usr_hid_suspend
                0x000000001000e315        0x0 Output\obj\driver\driver_clk.o
 .rela.text.usb_usr_hid_data_out
                0x000000001000e315        0x0 Output\obj\driver\driver_clk.o
 .rela.text.usb_usr_hid_init
                0x000000001000e315        0x0 Output\obj\driver\driver_clk.o
 .rela.com_text.usb.hid.data.mouse
                0x000000001000e315        0x0 Output\obj\driver\driver_clk.o
 .rela.com_text.usb.vendor.queue
                0x000000001000e315        0x0 Output\obj\driver\driver_clk.o
 .rela.text.usb_usr_vendor_ready
                0x000000001000e315        0x0 Output\obj\driver\driver_clk.o
 .rela.text.usb_usr_vendor_data_in
                0x000000001000e315        0x0 Output\obj\driver\driver_clk.o
 .rela.text.usb_usr_vendor_data_out
                0x000000001000e315        0x0 Output\obj\driver\driver_clk.o
 .rela.text.usb_usr_vendor_init
                0x000000001000e315        0x0 Output\obj\driver\driver_clk.o
 .rela.text.usb_usr_vendor_app_write
                0x000000001000e315        0x0 Output\obj\driver\driver_clk.o
 .rela.text.usb_usr_vendor_dbg_write
                0x000000001000e315        0x0 Output\obj\driver\driver_clk.o
 .rela.text.wireless_link_info_write
                0x000000001000e315        0x0 Output\obj\driver\driver_clk.o
 .rela.text.wireless_link_info_read
                0x000000001000e315        0x0 Output\obj\driver\driver_clk.o
 .rela.text.wireless_link_info_clear
                0x000000001000e315        0x0 Output\obj\driver\driver_clk.o
 .rela.text.wireless_adv_init
                0x000000001000e315        0x0 Output\obj\driver\driver_clk.o
 .rela.text.soft_timer_5ms_disable
                0x000000001000e315        0x0 Output\obj\driver\driver_clk.o
 .rela.text.soft_timer_5ms_enable
                0x000000001000e315        0x0 Output\obj\driver\driver_clk.o
 .rela.text.wireless_module_init
                0x000000001000e315        0x0 Output\obj\driver\driver_clk.o
 .rela.text.wireless_module_deinit
                0x000000001000e315        0x0 Output\obj\driver\driver_clk.o
 .rela.com_text.wireless.transmit
                0x000000001000e315        0x0 Output\obj\driver\driver_clk.o
 .rela.text.wireless_event_packet_handler
                0x000000001000e315        0x0 Output\obj\driver\driver_clk.o
 .rela.text.wireless_service_init
                0x000000001000e315        0x0 Output\obj\driver\driver_clk.o
 .rela.text.wireless_service_process
                0x000000001000e315        0x0 Output\obj\driver\driver_clk.o
 .rela.text.ble_get_local_bd_addr
                0x000000001000e315        0x0 Output\obj\driver\driver_clk.o
 .rela.text.bt_rf_get_param
                0x000000001000e315        0x0 Output\obj\driver\driver_clk.o
 .rela.com_sleep.rf.txpwr
                0x000000001000e315        0x0 Output\obj\driver\driver_clk.o
 .rela.text.xosc_get_xcfg
                0x000000001000e315        0x0 Output\obj\driver\driver_clk.o
 .rela.text.param_xosc_write
                0x000000001000e315        0x0 Output\obj\driver\driver_clk.o
 .rela.com_text.spiflash
                0x000000001000e315        0x0 Output\obj\driver\driver_clk.o
 .rela.text.audio_mic_power
                0x000000001000e315        0x0 Output\obj\driver\driver_clk.o
 .rela.text.audio_mic_analog_init
                0x000000001000e315        0x0 Output\obj\driver\driver_clk.o
 .rela.text.audio_micdc_trim_step0_init
                0x000000001000e315        0x0 Output\obj\driver\driver_clk.o
 .rela.text.audio_micdc_trim_step0_waiting
                0x000000001000e315        0x0 Output\obj\driver\driver_clk.o
 .rela.text.audio_micdc_trim_step0_run
                0x000000001000e315        0x0 Output\obj\driver\driver_clk.o
 .rela.text.audio_micdc_trim_step1_init
                0x000000001000e315        0x0 Output\obj\driver\driver_clk.o
 .rela.text.audio_micdc_trim_step1_waiting
                0x000000001000e315        0x0 Output\obj\driver\driver_clk.o
 .rela.text.audio_micdc_trim_step1_run
                0x000000001000e315        0x0 Output\obj\driver\driver_clk.o
 .rela.text.micin_config
                0x000000001000e315        0x0 Output\obj\driver\driver_clk.o
 .rela.text.audio_micin_trim_step0_init
                0x000000001000e315        0x0 Output\obj\driver\driver_clk.o
 .rela.text.audio_micin_trim_step0_waiting
                0x000000001000e315        0x0 Output\obj\driver\driver_clk.o
 .rela.text.audio_micin_trim_step1_init
                0x000000001000e315        0x0 Output\obj\driver\driver_clk.o
 .rela.text.audio_micin_trim_step2_run
                0x000000001000e315        0x0 Output\obj\driver\driver_clk.o
 .rela.text.audio_mic_trim_proc
                0x000000001000e315        0x0 Output\obj\driver\driver_clk.o
 .rela.text.cm_loadpage
                0x000000001000e315        0x0 Output\obj\driver\driver_clk.o
 .rela.text.cm_next_freepage
                0x000000001000e315        0x0 Output\obj\driver\driver_clk.o
 .rela.text.cm_factory
                0x000000001000e315        0x0 Output\obj\driver\driver_clk.o
 .rela.text.cm_writepage
                0x000000001000e315        0x0 Output\obj\driver\driver_clk.o
 .rela.text.cm_movepage
                0x000000001000e315        0x0 Output\obj\driver\driver_clk.o
 .rela.text.cm_erase
                0x000000001000e315        0x0 Output\obj\driver\driver_clk.o
 .rela.text.cm_release
                0x000000001000e315        0x0 Output\obj\driver\driver_clk.o
 .rela.text.cm_savepage
                0x000000001000e315        0x0 Output\obj\driver\driver_clk.o
 .rela.text.cm_check_loadpage
                0x000000001000e315        0x0 Output\obj\driver\driver_clk.o
 .rela.text.cm_move_allpages
                0x000000001000e315        0x0 Output\obj\driver\driver_clk.o
 .rela.text.cm_sync
                0x000000001000e315        0x0 Output\obj\driver\driver_clk.o
 .rela.text.cm_release_all
                0x000000001000e315        0x0 Output\obj\driver\driver_clk.o
 .rela.text.cm_read
                0x000000001000e315        0x0 Output\obj\driver\driver_clk.o
 .rela.text.cm_read8
                0x000000001000e315        0x0 Output\obj\driver\driver_clk.o
 .rela.text.cm_read16
                0x000000001000e315        0x0 Output\obj\driver\driver_clk.o
 .rela.text.cm_read32
                0x000000001000e315        0x0 Output\obj\driver\driver_clk.o
 .rela.text.cm_write
                0x000000001000e315        0x0 Output\obj\driver\driver_clk.o
 .rela.text.cm_write8
                0x000000001000e315        0x0 Output\obj\driver\driver_clk.o
 .rela.text.cm_write16
                0x000000001000e315        0x0 Output\obj\driver\driver_clk.o
 .rela.text.cm_write32
                0x000000001000e315        0x0 Output\obj\driver\driver_clk.o
 .rela.text.cm_clear
                0x000000001000e315        0x0 Output\obj\driver\driver_clk.o
 .rela.text.cm_init
                0x000000001000e315        0x0 Output\obj\driver\driver_clk.o
 .rela.com_text.spiflash.id
                0x000000001000e315        0x0 Output\obj\driver\driver_clk.o
 .rela.text.xcfg_init
                0x000000001000e315        0x0 Output\obj\driver\driver_clk.o
 .rela.com_text.adpcm.dec
                0x000000001000e315        0x0 Output\obj\driver\driver_clk.o
 .rela.com_text.adpcm.enc
                0x000000001000e315        0x0 Output\obj\driver\driver_clk.o
 .rela.com_text.delay
                0x000000001000e315        0x0 Output\obj\driver\driver_clk.o
 .rela.text.platform_main
                0x000000001000e315        0x0 Output\obj\driver\driver_clk.o
 .rela.text.main_startup
                0x000000001000e315        0x0 Output\obj\driver\driver_clk.o
 .rela.com_text.irq
                0x000000001000e315        0x0 Output\obj\driver\driver_clk.o
 .rela.com_text.irq.wpt
                0x000000001000e315        0x0 Output\obj\driver\driver_clk.o
 .rela.text.sys_irq_init
                0x000000001000e315        0x0 Output\obj\driver\driver_clk.o
 .rela.text.soft_irq_init
                0x000000001000e315        0x0 Output\obj\driver\driver_clk.o
 .rela.text.bthw_irq_init
                0x000000001000e315        0x0 Output\obj\driver\driver_clk.o
 .rela.text.watch_point_set
                0x000000001000e315        0x0 Output\obj\driver\driver_clk.o
 .rela.text.usb_irq_init
                0x000000001000e315        0x0 Output\obj\driver\driver_clk.o
 .rela.text.sys_timer_init
                0x000000001000e315        0x0 Output\obj\driver\driver_clk.o
 .rela.text.thread_timer_create
                0x000000001000e315        0x0 Output\obj\driver\driver_clk.o
 .rela.text.thread_btstack_create
                0x000000001000e315        0x0 Output\obj\driver\driver_clk.o
 .rela.text.thread_driver_create
                0x000000001000e315        0x0 Output\obj\driver\driver_clk.o
 .rela.text.thread_create_callback
                0x000000001000e315        0x0 Output\obj\driver\driver_clk.o
 .rela.text.thread_main_entry
                0x000000001000e315        0x0 Output\obj\driver\driver_clk.o
 .rela.text.startup.init
                0x000000001000e315        0x0 Output\obj\driver\driver_clk.o
 .rela.com_text.thread.driver.usb
                0x000000001000e315        0x0 Output\obj\driver\driver_clk.o
 .rela.com_text.thread.driver.vs
                0x000000001000e315        0x0 Output\obj\driver\driver_clk.o
 .rela.com_text.thread.driver.enter
                0x000000001000e315        0x0 Output\obj\driver\driver_clk.o
 .rela.text.pll0_vco_band_trimming
                0x000000001000e315        0x0 Output\obj\driver\driver_clk.o
 .rela.text.pll0_init
                0x000000001000e315        0x0 Output\obj\driver\driver_clk.o
 .rela.text.pll_ext_init
                0x000000001000e315        0x0 Output\obj\driver\driver_clk.o
 .rela.com_text.trim.vddio_get
                0x000000001000e315        0x0 Output\obj\driver\driver_clk.o
 .rela.com_text.trim.vddio_set
                0x000000001000e315        0x0 Output\obj\driver\driver_clk.o
 .rela.com_text.trim.core_get
                0x000000001000e315        0x0 Output\obj\driver\driver_clk.o
 .rela.com_text.trim.core_set
                0x000000001000e315        0x0 Output\obj\driver\driver_clk.o
 .rela.com_text.trim.lvd_get
                0x000000001000e315        0x0 Output\obj\driver\driver_clk.o
 .rela.com_text.trim.lvd_set
                0x000000001000e315        0x0 Output\obj\driver\driver_clk.o
 .rela.text.pmu_voltage_configure
                0x000000001000e315        0x0 Output\obj\driver\driver_clk.o
 .rela.text.pmu_init
                0x000000001000e315        0x0 Output\obj\driver\driver_clk.o
 .rela.reset    0x000000001000e315        0x0 Output\obj\driver\driver_clk.o
 .rela.vector   0x000000001000e315        0x0 Output\obj\driver\driver_clk.o
 .rela.text.lock_code_usbdev
                0x000000001000e315        0x0 Output\obj\driver\driver_clk.o
 .rela.text.patch_init
                0x000000001000e315        0x0 Output\obj\driver\driver_clk.o
 .rela.com_sleep.lp.sleep
                0x000000001000e315        0x0 Output\obj\driver\driver_clk.o
 .rela.text.sys_clk
                0x000000001000e315        0x0 Output\obj\driver\driver_clk.o
 .rela.com_text.stack.api
                0x000000001000e315        0x0 Output\obj\driver\driver_clk.o
 .rela.com_text.stack.run_loop
                0x000000001000e315        0x0 Output\obj\driver\driver_clk.o
 .rela.text.usb_init
                0x000000001000e315        0x0 Output\obj\driver\driver_clk.o
 .rela.text.usb_interrupt_init
                0x000000001000e315        0x0 Output\obj\driver\driver_clk.o
 .rela.text.ude_init
                0x000000001000e315        0x0 Output\obj\driver\driver_clk.o
 .rela.text.usb_device_exit
                0x000000001000e315        0x0 Output\obj\driver\driver_clk.o
 .rela.com_text.wl.isr.con
                0x000000001000e315        0x0 Output\obj\driver\driver_clk.o
 .rela.text.wl.api
                0x000000001000e315        0x0 Output\obj\driver\driver_clk.o
 .rela.com_text.wl.api
                0x000000001000e315        0x0 Output\obj\driver\driver_clk.o
 .rela.text     0x000000001000e315        0x0 Output\obj\driver\driver_clk.o
 .rela.com_text.bt.timer
                0x000000001000e315        0x0 Output\obj\driver\driver_clk.o
 .rela.com_text.sleep
                0x000000001000e315        0x0 Output\obj\driver\driver_clk.o
 .rela.com_text.bb.run_loop
                0x000000001000e315        0x0 Output\obj\driver\driver_clk.o
 .rela.rodata   0x000000001000e315        0x0 Output\obj\driver\driver_clk.o
 .rela.com_text.bb.isr
                0x000000001000e315        0x0 Output\obj\driver\driver_clk.o
 .rela.com_sleep.bb
                0x000000001000e315        0x0 Output\obj\driver\driver_clk.o
 .rela.text.bb.aes
                0x000000001000e315        0x0 Output\obj\driver\driver_clk.o
 .rela.text.ble.var.init
                0x000000001000e315        0x0 Output\obj\driver\driver_clk.o
 .rela.com_text.bb.buf
                0x000000001000e315        0x0 Output\obj\driver\driver_clk.o
 .rela.text.le.stack
                0x000000001000e315        0x0 Output\obj\driver\driver_clk.o
 .rela.com_text.ble.isr.con
                0x000000001000e315        0x0 Output\obj\driver\driver_clk.o
 .rela.com_text.ble.isr.con.end
                0x000000001000e315        0x0 Output\obj\driver\driver_clk.o
 .rela.text.bb.ble.test.start
                0x000000001000e315        0x0 Output\obj\driver\driver_clk.o
 .rela.text.le.ll_cntl
                0x000000001000e315        0x0 Output\obj\driver\driver_clk.o
 .rela.text.le.ll_cntl.start
                0x000000001000e315        0x0 Output\obj\driver\driver_clk.o
 .rela.text.le.ll_cntl.send
                0x000000001000e315        0x0 Output\obj\driver\driver_clk.o
 .rela.rodata.le.ll_cntl.tbl
                0x000000001000e315        0x0 Output\obj\driver\driver_clk.o
 .rela.text.le.ll_cntl.pdu
                0x000000001000e315        0x0 Output\obj\driver\driver_clk.o
 .rela.com_rodata.bb.tbl
                0x000000001000e315        0x0 Output\obj\driver\driver_clk.o
 .rela.com_text.ble.isr
                0x000000001000e315        0x0 Output\obj\driver\driver_clk.o
 .rela.com_text.bb.rf
                0x000000001000e315        0x0 Output\obj\driver\driver_clk.o
 .rela.text.rf.tx_tone
                0x000000001000e315        0x0 Output\obj\driver\driver_clk.o
 .rela.com_sleep.rfphy.init
                0x000000001000e315        0x0 Output\obj\driver\driver_clk.o
 .rela.com_sleep.rf
                0x000000001000e315        0x0 Output\obj\driver\driver_clk.o
 .rela.com_text.wl.isr.con.adv
                0x000000001000e315        0x0 Output\obj\driver\driver_clk.o
 .rela.text.bb.aes.ecpy
                0x000000001000e315        0x0 Output\obj\driver\driver_clk.o
 .rela.com_text.bb.prog
                0x000000001000e315        0x0 Output\obj\driver\driver_clk.o
 .rela.com_text.md.nanos
                0x000000001000e315        0x0 Output\obj\driver\driver_clk.o
 .rela.text.le.ll_adv.con
                0x000000001000e315        0x0 Output\obj\driver\driver_clk.o
 .rela.text.le.ll_adv
                0x000000001000e315        0x0 Output\obj\driver\driver_clk.o
 .rela.text.le.mgr
                0x000000001000e315        0x0 Output\obj\driver\driver_clk.o
 .rela.text.bb.vs.fcc
                0x000000001000e315        0x0 Output\obj\driver\driver_clk.o
                0x000000001000e315        0x4 LONG 0x0
                0x000000001000e400                . = ALIGN (0x200)
 *fill*         0x000000001000e319       0xe7 

.stack          0x0000000000010800      0x400
                0x0000000000010800                __irq_stack_start = .
                0x0000000000000400                . = 0x400
 *fill*         0x0000000000010800      0x400 
                0x0000000000010c00                __irq_stack = .
                0x0000000000000400                __irq_stack_size = (__irq_stack - __irq_stack_start)
                0x000000000000ca00                __bank_size = SIZEOF (.flash)
                0x0000000010000200                __comm_lma = LOADADDR (.comm)
                0x0000000000001500                __comm_size = SIZEOF (.comm)
                0x0000000010001700                __pdn_comm_lma = LOADADDR (.pdn_comm)
                0x0000000000000200                __pdn_comm_size = SIZEOF (.pdn_comm)
LOAD ..\..\libs\cpu\libplatform.a
LOAD ..\..\libs\cpu\libm.a
LOAD ..\..\libs\cpu\libc.a
LOAD ..\..\libs\cpu\libgcc.a
LOAD ..\..\libs\usb\libusb.a
LOAD ..\..\libs\wireless\libwireless_slave.a
OUTPUT(Output\bin\app.rv32 elf32-littleriscv)

.comment        0x0000000000000000       0x23
 .comment       0x0000000000000000       0x11 Output\obj\driver\driver_clk.o
                                         0x12 (size before relaxing)
 .comment       0x0000000000000011       0x12 Output\obj\driver\driver_gpio.o
 .comment       0x0000000000000011       0x12 Output\obj\driver\driver_lowpwr.o
 .comment       0x0000000000000011       0x12 Output\obj\driver\driver_saradc.o
 .comment       0x0000000000000011       0x12 Output\obj\driver\driver_uart.o
 .comment       0x0000000000000011       0x12 Output\obj\project\wireless_peripheral\app\func.o
 .comment       0x0000000000000011       0x12 Output\obj\project\wireless_peripheral\app\func_idle.o
 .comment       0x0000000000000011       0x12 Output\obj\project\wireless_peripheral\app\func_lowpwr.o
 .comment       0x0000000000000011       0x12 Output\obj\project\wireless_peripheral\app\func_wireless.o
 .comment       0x0000000000000011       0x12 Output\obj\project\wireless_peripheral\bsp\bsp_io_key.o
 .comment       0x0000000000000011       0x12 Output\obj\project\wireless_peripheral\bsp\bsp_key.o
 .comment       0x0000000000000011       0x12 Output\obj\project\wireless_peripheral\bsp\bsp_param.o
 .comment       0x0000000000000011       0x12 Output\obj\project\wireless_peripheral\bsp\bsp_saradc.o
 .comment       0x0000000000000011       0x12 Output\obj\project\wireless_peripheral\bsp\bsp_saradc_vbat.o
 .comment       0x0000000000000011       0x12 Output\obj\project\wireless_peripheral\bsp\bsp_sys.o
 .comment       0x0000000000000011       0x12 Output\obj\project\wireless_peripheral\bsp\bsp_uart_debug.o
 .comment       0x0000000000000011       0x12 Output\obj\project\wireless_peripheral\main.o
 .comment       0x0000000000000011       0x12 Output\obj\project\wireless_peripheral\modules\wireless\wireless_init.o
 .comment       0x0000000000000011       0x12 Output\obj\project\wireless_peripheral\modules\wireless\wireless_service.o
 .comment       0x0000000000000011       0x12 Output\obj\project\wireless_peripheral\prod_test\prod_test.o
 .comment       0x0000000000000011       0x12 Output\obj\project\wireless_peripheral\strong_symbol.o
 .comment       0x0000000000000011       0x12 ..\..\libs\cpu\libplatform.a(cm.o)
                                         0x13 (size before relaxing)
 .comment       0x0000000000000023       0x13 ..\..\libs\cpu\libplatform.a(os_flash.o)
 .comment       0x0000000000000023       0x13 ..\..\libs\cpu\libplatform.a(xcfg.o)
 .comment       0x0000000000000023       0x13 ..\..\libs\cpu\libplatform.a(main.o)
 .comment       0x0000000000000023       0x13 ..\..\libs\cpu\libplatform.a(interrupt.o)
 .comment       0x0000000000000023       0x13 ..\..\libs\cpu\libplatform.a(startup.o)
 .comment       0x0000000000000023       0x13 ..\..\libs\cpu\libplatform.a(sys_hook.o)
 .comment       0x0000000000000023       0x13 ..\..\libs\cpu\libplatform.a(pll.o)
 .comment       0x0000000000000023       0x13 ..\..\libs\cpu\libplatform.a(pmu.o)
 .comment       0x0000000000000023       0x13 ..\..\libs\cpu\libplatform.a(debug.o)
 .comment       0x0000000000000023       0x13 ..\..\libs\cpu\libplatform.a(key.o)
 .comment       0x0000000000000023       0x13 ..\..\libs\cpu\libplatform.a(lock.o)
 .comment       0x0000000000000023       0x13 ..\..\libs\cpu\libplatform.a(patch.o)
 .comment       0x0000000000000023       0x13 ..\..\libs\cpu\libplatform.a(sys.o)
 .comment       0x0000000000000023       0x13 ..\..\libs\cpu\libplatform.a(sys_clk.o)
 .comment       0x0000000000000023       0x13 ..\..\libs\cpu\libplatform.a(voltage_trim.o)
 .comment       0x0000000000000023       0x13 ..\..\libs\cpu\libplatform.a(weak_symbol.o)
 .comment       0x0000000000000023       0x13 ..\..\libs\cpu\libplatform.a(freq_det.o)
 .comment       0x0000000000000023       0x13 ..\..\libs\wireless\libwireless_slave.a(wireless_api.o)
 .comment       0x0000000000000023       0x13 ..\..\libs\wireless\libwireless_slave.a(bb_api.o)
 .comment       0x0000000000000023       0x13 ..\..\libs\wireless\libwireless_slave.a(bb.o)
 .comment       0x0000000000000023       0x13 ..\..\libs\wireless\libwireless_slave.a(bb_alarm.o)
 .comment       0x0000000000000023       0x13 ..\..\libs\wireless\libwireless_slave.a(bb_int.o)
 .comment       0x0000000000000023       0x13 ..\..\libs\wireless\libwireless_slave.a(ble.o)
 .comment       0x0000000000000023       0x13 ..\..\libs\wireless\libwireless_slave.a(ble_buf.o)
 .comment       0x0000000000000023       0x13 ..\..\libs\wireless\libwireless_slave.a(ble_adv.o)
 .comment       0x0000000000000023       0x13 ..\..\libs\wireless\libwireless_slave.a(ble_con.o)
 .comment       0x0000000000000023       0x13 ..\..\libs\wireless\libwireless_slave.a(ble_hal.o)
 .comment       0x0000000000000023       0x13 ..\..\libs\wireless\libwireless_slave.a(ble_init.o)
 .comment       0x0000000000000023       0x13 ..\..\libs\wireless\libwireless_slave.a(ble_scan.o)
 .comment       0x0000000000000023       0x13 ..\..\libs\wireless\libwireless_slave.a(ble_sync.o)
 .comment       0x0000000000000023       0x13 ..\..\libs\wireless\libwireless_slave.a(ble_test.o)
 .comment       0x0000000000000023       0x13 ..\..\libs\wireless\libwireless_slave.a(ll.o)
 .comment       0x0000000000000023       0x13 ..\..\libs\wireless\libwireless_slave.a(ll_cntl.o)
 .comment       0x0000000000000023       0x13 ..\..\libs\wireless\libwireless_slave.a(ll_con_upd.o)
 .comment       0x0000000000000023       0x13 ..\..\libs\wireless\libwireless_slave.a(ll_encrypt.o)
 .comment       0x0000000000000023       0x13 ..\..\libs\wireless\libwireless_slave.a(ll_feature.o)
 .comment       0x0000000000000023       0x13 ..\..\libs\wireless\libwireless_slave.a(ll_length.o)
 .comment       0x0000000000000023       0x13 ..\..\libs\wireless\libwireless_slave.a(ll_phy_upd.o)
 .comment       0x0000000000000023       0x13 ..\..\libs\wireless\libwireless_slave.a(ll_proc.o)
 .comment       0x0000000000000023       0x13 ..\..\libs\wireless\libwireless_slave.a(ll_version.o)
 .comment       0x0000000000000023       0x13 ..\..\libs\wireless\libwireless_slave.a(mgr.o)
 .comment       0x0000000000000023       0x13 ..\..\libs\wireless\libwireless_slave.a(mgr_proc.o)
 .comment       0x0000000000000023       0x13 ..\..\libs\wireless\libwireless_slave.a(mgr_test.o)
 .comment       0x0000000000000023       0x13 ..\..\libs\wireless\libwireless_slave.a(hct.o)
 .comment       0x0000000000000023       0x13 ..\..\libs\wireless\libwireless_slave.a(hct_msg.o)
 .comment       0x0000000000000023       0x13 ..\..\libs\wireless\libwireless_slave.a(hct_proc.o)
 .comment       0x0000000000000023       0x13 ..\..\libs\wireless\libwireless_slave.a(ble_hook.o)
 .comment       0x0000000000000023       0x13 ..\..\libs\wireless\libwireless_slave.a(rf.o)
 .comment       0x0000000000000023       0x13 ..\..\libs\wireless\libwireless_slave.a(rf_mate.o)
 .comment       0x0000000000000023       0x13 ..\..\libs\wireless\libwireless_slave.a(vs.o)
 .comment       0x0000000000000023       0x13 ..\..\libs\wireless\libwireless_slave.a(vs_proc.o)
 .comment       0x0000000000000023       0x13 ..\..\libs\wireless\libwireless_slave.a(wireless.o)
 .comment       0x0000000000000023       0x13 ..\..\libs\wireless\libwireless_slave.a(wireless_proc.o)
 .comment       0x0000000000000023       0x13 ..\..\libs\wireless\libwireless_slave.a(extern.o)
 .comment       0x0000000000000023       0x13 ..\..\libs\wireless\libwireless_slave.a(aes.o)
 .comment       0x0000000000000023       0x13 ..\..\libs\wireless\libwireless_slave.a(platform.o)
 .comment       0x0000000000000023       0x13 ..\..\libs\wireless\libwireless_slave.a(bb_clk.o)
 .comment       0x0000000000000023       0x13 ..\..\libs\wireless\libwireless_slave.a(bb_dbg.o)
 .comment       0x0000000000000023       0x13 ..\..\libs\wireless\libwireless_slave.a(patch.o)
 .comment       0x0000000000000023       0x13 ..\..\libs\wireless\libwireless_slave.a(bb_sche.o)
 .comment       0x0000000000000023       0x13 ..\..\libs\wireless\libwireless_slave.a(nanos.o)
 .comment       0x0000000000000023       0x13 ..\..\libs\wireless\libwireless_slave.a(bb_utils.o)
 .comment       0x0000000000000023       0x13 ..\..\libs\wireless\libwireless_slave.a(ll_chmap_upd.o)
 .comment       0x0000000000000023       0x13 ..\..\libs\wireless\libwireless_slave.a(ll_clk_acc.o)
 .comment       0x0000000000000023       0x13 ..\..\libs\wireless\libwireless_slave.a(ll_disconnect.o)
 .comment       0x0000000000000023       0x13 ..\..\libs\wireless\libwireless_slave.a(ll_adv.o)
 .comment       0x0000000000000023       0x13 ..\..\libs\wireless\libwireless_slave.a(mgr_hci.o)
 .comment       0x0000000000000023       0x13 ..\..\libs\wireless\libwireless_slave.a(adv_hook.o)
 .comment       0x0000000000000023       0x13 ..\..\libs\wireless\libwireless_slave.a(vs_fcc.o)
 .comment       0x0000000000000023       0x13 ..\..\libs\wireless\libwireless_slave.a(thread.o)

.riscv.attributes
                0x0000000000000000      0xe72
 .riscv.attributes
                0x0000000000000000       0x32 ..\..\libs\cpu\libplatform.a(cm.o)
 .riscv.attributes
                0x0000000000000032       0x32 ..\..\libs\cpu\libplatform.a(os_flash.o)
 .riscv.attributes
                0x0000000000000064       0x32 ..\..\libs\cpu\libplatform.a(xcfg.o)
 .riscv.attributes
                0x0000000000000096       0x32 ..\..\libs\cpu\libplatform.a(main.o)
 .riscv.attributes
                0x00000000000000c8       0x32 ..\..\libs\cpu\libplatform.a(interrupt.o)
 .riscv.attributes
                0x00000000000000fa       0x32 ..\..\libs\cpu\libplatform.a(startup.o)
 .riscv.attributes
                0x000000000000012c       0x32 ..\..\libs\cpu\libplatform.a(sys_hook.o)
 .riscv.attributes
                0x000000000000015e       0x32 ..\..\libs\cpu\libplatform.a(pll.o)
 .riscv.attributes
                0x0000000000000190       0x32 ..\..\libs\cpu\libplatform.a(pmu.o)
 .riscv.attributes
                0x00000000000001c2       0x34 ..\..\libs\cpu\libplatform.a(reset.o)
 .riscv.attributes
                0x00000000000001f6       0x32 ..\..\libs\cpu\libplatform.a(debug.o)
 .riscv.attributes
                0x0000000000000228       0x32 ..\..\libs\cpu\libplatform.a(key.o)
 .riscv.attributes
                0x000000000000025a       0x32 ..\..\libs\cpu\libplatform.a(lock.o)
 .riscv.attributes
                0x000000000000028c       0x32 ..\..\libs\cpu\libplatform.a(patch.o)
 .riscv.attributes
                0x00000000000002be       0x30 ..\..\libs\cpu\libplatform.a(s_sys.o)
 .riscv.attributes
                0x00000000000002ee       0x32 ..\..\libs\cpu\libplatform.a(sys.o)
 .riscv.attributes
                0x0000000000000320       0x32 ..\..\libs\cpu\libplatform.a(sys_clk.o)
 .riscv.attributes
                0x0000000000000352       0x32 ..\..\libs\cpu\libplatform.a(voltage_trim.o)
 .riscv.attributes
                0x0000000000000384       0x32 ..\..\libs\cpu\libplatform.a(weak_symbol.o)
 .riscv.attributes
                0x00000000000003b6       0x32 ..\..\libs\cpu\libplatform.a(freq_det.o)
 .riscv.attributes
                0x00000000000003e8       0x32 ..\..\libs\wireless\libwireless_slave.a(wireless_api.o)
 .riscv.attributes
                0x000000000000041a       0x32 ..\..\libs\wireless\libwireless_slave.a(bb_api.o)
 .riscv.attributes
                0x000000000000044c       0x32 ..\..\libs\wireless\libwireless_slave.a(bb.o)
 .riscv.attributes
                0x000000000000047e       0x32 ..\..\libs\wireless\libwireless_slave.a(bb_alarm.o)
 .riscv.attributes
                0x00000000000004b0       0x32 ..\..\libs\wireless\libwireless_slave.a(bb_int.o)
 .riscv.attributes
                0x00000000000004e2       0x32 ..\..\libs\wireless\libwireless_slave.a(ble.o)
 .riscv.attributes
                0x0000000000000514       0x32 ..\..\libs\wireless\libwireless_slave.a(ble_buf.o)
 .riscv.attributes
                0x0000000000000546       0x32 ..\..\libs\wireless\libwireless_slave.a(ble_adv.o)
 .riscv.attributes
                0x0000000000000578       0x32 ..\..\libs\wireless\libwireless_slave.a(ble_con.o)
 .riscv.attributes
                0x00000000000005aa       0x32 ..\..\libs\wireless\libwireless_slave.a(ble_hal.o)
 .riscv.attributes
                0x00000000000005dc       0x32 ..\..\libs\wireless\libwireless_slave.a(ble_init.o)
 .riscv.attributes
                0x000000000000060e       0x32 ..\..\libs\wireless\libwireless_slave.a(ble_scan.o)
 .riscv.attributes
                0x0000000000000640       0x32 ..\..\libs\wireless\libwireless_slave.a(ble_sync.o)
 .riscv.attributes
                0x0000000000000672       0x32 ..\..\libs\wireless\libwireless_slave.a(ble_test.o)
 .riscv.attributes
                0x00000000000006a4       0x32 ..\..\libs\wireless\libwireless_slave.a(ll.o)
 .riscv.attributes
                0x00000000000006d6       0x32 ..\..\libs\wireless\libwireless_slave.a(ll_cntl.o)
 .riscv.attributes
                0x0000000000000708       0x32 ..\..\libs\wireless\libwireless_slave.a(ll_con_upd.o)
 .riscv.attributes
                0x000000000000073a       0x32 ..\..\libs\wireless\libwireless_slave.a(ll_encrypt.o)
 .riscv.attributes
                0x000000000000076c       0x32 ..\..\libs\wireless\libwireless_slave.a(ll_feature.o)
 .riscv.attributes
                0x000000000000079e       0x32 ..\..\libs\wireless\libwireless_slave.a(ll_length.o)
 .riscv.attributes
                0x00000000000007d0       0x32 ..\..\libs\wireless\libwireless_slave.a(ll_phy_upd.o)
 .riscv.attributes
                0x0000000000000802       0x32 ..\..\libs\wireless\libwireless_slave.a(ll_proc.o)
 .riscv.attributes
                0x0000000000000834       0x32 ..\..\libs\wireless\libwireless_slave.a(ll_version.o)
 .riscv.attributes
                0x0000000000000866       0x32 ..\..\libs\wireless\libwireless_slave.a(mgr.o)
 .riscv.attributes
                0x0000000000000898       0x32 ..\..\libs\wireless\libwireless_slave.a(mgr_proc.o)
 .riscv.attributes
                0x00000000000008ca       0x32 ..\..\libs\wireless\libwireless_slave.a(mgr_test.o)
 .riscv.attributes
                0x00000000000008fc       0x32 ..\..\libs\wireless\libwireless_slave.a(hct.o)
 .riscv.attributes
                0x000000000000092e       0x32 ..\..\libs\wireless\libwireless_slave.a(hct_msg.o)
 .riscv.attributes
                0x0000000000000960       0x32 ..\..\libs\wireless\libwireless_slave.a(hct_proc.o)
 .riscv.attributes
                0x0000000000000992       0x32 ..\..\libs\wireless\libwireless_slave.a(ble_hook.o)
 .riscv.attributes
                0x00000000000009c4       0x32 ..\..\libs\wireless\libwireless_slave.a(rf.o)
 .riscv.attributes
                0x00000000000009f6       0x32 ..\..\libs\wireless\libwireless_slave.a(rf_mate.o)
 .riscv.attributes
                0x0000000000000a28       0x32 ..\..\libs\wireless\libwireless_slave.a(vs.o)
 .riscv.attributes
                0x0000000000000a5a       0x32 ..\..\libs\wireless\libwireless_slave.a(vs_proc.o)
 .riscv.attributes
                0x0000000000000a8c       0x32 ..\..\libs\wireless\libwireless_slave.a(wireless.o)
 .riscv.attributes
                0x0000000000000abe       0x32 ..\..\libs\wireless\libwireless_slave.a(wireless_proc.o)
 .riscv.attributes
                0x0000000000000af0       0x32 ..\..\libs\wireless\libwireless_slave.a(extern.o)
 .riscv.attributes
                0x0000000000000b22       0x32 ..\..\libs\wireless\libwireless_slave.a(aes.o)
 .riscv.attributes
                0x0000000000000b54       0x32 ..\..\libs\wireless\libwireless_slave.a(platform.o)
 .riscv.attributes
                0x0000000000000b86       0x32 ..\..\libs\wireless\libwireless_slave.a(bb_clk.o)
 .riscv.attributes
                0x0000000000000bb8       0x32 ..\..\libs\wireless\libwireless_slave.a(bb_dbg.o)
 .riscv.attributes
                0x0000000000000bea       0x32 ..\..\libs\wireless\libwireless_slave.a(patch.o)
 .riscv.attributes
                0x0000000000000c1c       0x30 ..\..\libs\wireless\libwireless_slave.a(patch_asm.o)
 .riscv.attributes
                0x0000000000000c4c       0x32 ..\..\libs\wireless\libwireless_slave.a(bb_sche.o)
 .riscv.attributes
                0x0000000000000c7e       0x32 ..\..\libs\wireless\libwireless_slave.a(nanos.o)
 .riscv.attributes
                0x0000000000000cb0       0x32 ..\..\libs\wireless\libwireless_slave.a(bb_utils.o)
 .riscv.attributes
                0x0000000000000ce2       0x32 ..\..\libs\wireless\libwireless_slave.a(ll_chmap_upd.o)
 .riscv.attributes
                0x0000000000000d14       0x32 ..\..\libs\wireless\libwireless_slave.a(ll_clk_acc.o)
 .riscv.attributes
                0x0000000000000d46       0x32 ..\..\libs\wireless\libwireless_slave.a(ll_disconnect.o)
 .riscv.attributes
                0x0000000000000d78       0x32 ..\..\libs\wireless\libwireless_slave.a(ll_adv.o)
 .riscv.attributes
                0x0000000000000daa       0x32 ..\..\libs\wireless\libwireless_slave.a(mgr_hci.o)
 .riscv.attributes
                0x0000000000000ddc       0x32 ..\..\libs\wireless\libwireless_slave.a(adv_hook.o)
 .riscv.attributes
                0x0000000000000e0e       0x32 ..\..\libs\wireless\libwireless_slave.a(vs_fcc.o)
 .riscv.attributes
                0x0000000000000e40       0x32 ..\..\libs\wireless\libwireless_slave.a(thread.o)
