Archive member included to satisfy reference by file (symbol)

..\..\..\libs\cpu\libplatform.a(audio_mic.o)
                              Output\obj\driver\driver_saradc.o (audio_mic_analog_init)
..\..\..\libs\cpu\libplatform.a(audio_mic_trim.o)
                              ..\..\..\libs\cpu\libplatform.a(audio_mic.o) (audio_mic_trim_sta_set)
..\..\..\libs\cpu\libplatform.a(cm.o)
                              Output\obj\project\solution\wireless_remote_dongle\bsp\bsp_param.o (cm_sync)
..\..\..\libs\cpu\libplatform.a(os_flash.o)
                              ..\..\..\libs\cpu\libplatform.a(cm.o) (os_spiflash_program)
..\..\..\libs\cpu\libplatform.a(xcfg.o)
                              Output\obj\project\solution\wireless_remote_dongle\bsp\bsp_sys.o (xcfg_init)
..\..\..\libs\cpu\libplatform.a(adpcm.o)
                              Output\obj\project\solution\wireless_remote_dongle\modules\usb\usr\usb_usr_audio.o (adpcm_sample_idx_reset)
..\..\..\libs\cpu\libplatform.a(device.o)
                              Output\obj\project\solution\wireless_remote_dongle\bsp\bsp_sys.o (dev_init)
..\..\..\libs\cpu\libplatform.a(main.o)
                              Output\obj\driver\driver_lowpwr.o (delay_us)
..\..\..\libs\cpu\libplatform.a(interrupt.o)
                              Output\obj\driver\driver_gpio.o (sys_irq_init)
..\..\..\libs\cpu\libplatform.a(startup.o)
                              ..\..\..\libs\cpu\libplatform.a(interrupt.o) (soft_timer_isr_en)
..\..\..\libs\cpu\libplatform.a(sys_hook.o)
                              ..\..\..\libs\cpu\libplatform.a(startup.o) (sys_hook_init)
..\..\..\libs\cpu\libplatform.a(thread_driver.o)
                              Output\obj\project\solution\wireless_remote_dongle\modules\usb\usr\usb_usr_audio.o (thread_driver_user_msg_post)
..\..\..\libs\cpu\libplatform.a(pll.o)
                              ..\..\..\libs\cpu\libplatform.a(main.o) (pll0_disable)
..\..\..\libs\cpu\libplatform.a(pmu.o)
                              Output\obj\driver\driver_lowpwr.o (pmu_get_vddcore)
..\..\..\libs\cpu\libplatform.a(reset.o)
                              (_start)
..\..\..\libs\cpu\libplatform.a(context.o)
                              Output\obj\driver\driver_lowpwr.o (lp_sleep)
..\..\..\libs\cpu\libplatform.a(debug.o)
                              ..\..\..\libs\cpu\libplatform.a(reset.o) (exception_isr)
..\..\..\libs\cpu\libplatform.a(lock.o)
                              ..\..\..\libs\cpu\libplatform.a(main.o) (lock_init)
..\..\..\libs\cpu\libplatform.a(patch.o)
                              ..\..\..\libs\cpu\libplatform.a(main.o) (patch_init)
..\..\..\libs\cpu\libplatform.a(s_sys.o)
                              ..\..\..\libs\cpu\libplatform.a(startup.o) (dummy_func)
..\..\..\libs\cpu\libplatform.a(sleep.o)
                              Output\obj\driver\driver_lowpwr.o (lowpwr_sleep_sfr_save)
..\..\..\libs\cpu\libplatform.a(sys.o)
                              Output\obj\project\solution\wireless_remote_dongle\main.o (sys_rst_init)
..\..\..\libs\cpu\libplatform.a(sys_clk.o)
                              ..\..\..\libs\cpu\libplatform.a(audio_mic.o) (sys_clk_get_cur)
..\..\..\libs\cpu\libplatform.a(voltage_trim.o)
                              ..\..\..\libs\cpu\libplatform.a(pll.o) (sys_trim)
..\..\..\libs\cpu\libplatform.a(weak_symbol.o)
                              ..\..\..\libs\cpu\libplatform.a(main.o) (xosc_24m_div_get)
..\..\..\libs\cpu\libplatform.a(bt.o)
                              ..\..\..\libs\cpu\libplatform.a(startup.o) (thread_btstack_entry)
..\..\..\libs\cpu\libplatform.a(freq_det.o)
                              ..\..\..\libs\cpu\libplatform.a(sleep.o) (freq_det_kick)
..\..\..\libs\usb\libusb.a(usb_comm.o)
                              Output\obj\project\solution\wireless_remote_dongle\modules\usb\src\usb_com.o (usb_handler_register)
..\..\..\libs\usb\libusb.a(usb_detect.o)
                              ..\..\..\libs\usb\libusb.a(usb_comm.o) (usbchk_switch_otg_device)
..\..\..\libs\usb\libusb.a(usb_device_enum.o)
                              Output\obj\project\solution\wireless_remote_dongle\modules\usb\src\usb_audio.o (usb_ep0_transfer)
..\..\..\libs\usb\libusb.a(usb_device_ep.o)
                              ..\..\..\libs\usb\libusb.a(usb_device_enum.o) (usb_set_cur_ep)
..\..\..\libs\usb\libusb.a(usb_device_run_loop.o)
                              Output\obj\project\solution\wireless_remote_dongle\app\func.o (usb_device_enter)
..\..\..\libs\wireless\libwireless_master.a(wireless_api.o)
                              Output\obj\project\solution\wireless_remote_dongle\modules\wireless\wireless_client.o (wireless_event_handler_register)
..\..\..\libs\wireless\libwireless_master.a(bb_api.o)
                              Output\obj\project\solution\wireless_remote_dongle\modules\wireless\wireless_init.o (soft_timer_init)
..\..\..\libs\wireless\libwireless_master.a(bb.o)
                              ..\..\..\libs\wireless\libwireless_master.a(wireless_api.o) (bb_var_init)
..\..\..\libs\wireless\libwireless_master.a(bb_alarm.o)
                              ..\..\..\libs\wireless\libwireless_master.a(bb.o) (bb_timer_init)
..\..\..\libs\wireless\libwireless_master.a(bb_int.o)
                              ..\..\..\libs\wireless\libwireless_master.a(bb_api.o) (bb_sleep)
..\..\..\libs\wireless\libwireless_master.a(bb_sleep.o)
                              ..\..\..\libs\wireless\libwireless_master.a(bb_int.o) (bb_sleep_suspend)
..\..\..\libs\wireless\libwireless_master.a(ble.o)
                              ..\..\..\libs\wireless\libwireless_master.a(bb.o) (ble_var_init)
..\..\..\libs\wireless\libwireless_master.a(ble_buf.o)
                              ..\..\..\libs\wireless\libwireless_master.a(ble.o) (ble_buf_init)
..\..\..\libs\wireless\libwireless_master.a(ble_con.o)
                              ..\..\..\libs\wireless\libwireless_master.a(ble.o) (ble_get_con_var)
..\..\..\libs\wireless\libwireless_master.a(ble_hal.o)
                              ..\..\..\libs\wireless\libwireless_master.a(ble.o) (ble_get_rslv_var)
..\..\..\libs\wireless\libwireless_master.a(ble_init.o)
                              ..\..\..\libs\wireless\libwireless_master.a(ble_hal.o) (ble_init_init)
..\..\..\libs\wireless\libwireless_master.a(ble_scan.o)
                              ..\..\..\libs\wireless\libwireless_master.a(ble.o) (ble_get_scan_var)
..\..\..\libs\wireless\libwireless_master.a(ble_sync.o)
                              ..\..\..\libs\wireless\libwireless_master.a(ble.o) (ble_get_sync_var)
..\..\..\libs\wireless\libwireless_master.a(ble_test.o)
                              ..\..\..\libs\wireless\libwireless_master.a(ble_hal.o) (ble_test_init)
..\..\..\libs\wireless\libwireless_master.a(ll.o)
                              ..\..\..\libs\wireless\libwireless_master.a(ble.o) (ll_init)
..\..\..\libs\wireless\libwireless_master.a(ll_cntl.o)
                              ..\..\..\libs\wireless\libwireless_master.a(bb.o) (ll_cntl_pdu_tbl)
..\..\..\libs\wireless\libwireless_master.a(ll_con_upd.o)
                              ..\..\..\libs\wireless\libwireless_master.a(ll_cntl.o) (ll_con_update_ind_func)
..\..\..\libs\wireless\libwireless_master.a(ll_encrypt.o)
                              ..\..\..\libs\wireless\libwireless_master.a(ll_cntl.o) (ll_pause_enc_req_func)
..\..\..\libs\wireless\libwireless_master.a(ll_feature.o)
                              ..\..\..\libs\wireless\libwireless_master.a(ll_cntl.o) (ll_feature_req_func)
..\..\..\libs\wireless\libwireless_master.a(ll_length.o)
                              ..\..\..\libs\wireless\libwireless_master.a(ll_cntl.o) (ll_length_req_func)
..\..\..\libs\wireless\libwireless_master.a(ll_phy_upd.o)
                              ..\..\..\libs\wireless\libwireless_master.a(ll_cntl.o) (ll_phy_req_func)
..\..\..\libs\wireless\libwireless_master.a(ll_proc.o)
                              ..\..\..\libs\wireless\libwireless_master.a(ll_con_upd.o) (ll_cmd_cmp_send)
..\..\..\libs\wireless\libwireless_master.a(ll_version.o)
                              ..\..\..\libs\wireless\libwireless_master.a(ll_cntl.o) (ll_version_ind_func)
..\..\..\libs\wireless\libwireless_master.a(mgr.o)
                              ..\..\..\libs\wireless\libwireless_master.a(ble.o) (mgr_init)
..\..\..\libs\wireless\libwireless_master.a(mgr_proc.o)
                              ..\..\..\libs\wireless\libwireless_master.a(mgr.o) (mgr_msg_env)
..\..\..\libs\wireless\libwireless_master.a(mgr_test.o)
                              ..\..\..\libs\wireless\libwireless_master.a(mgr_proc.o) (ble_test_end_ind_func)
..\..\..\libs\wireless\libwireless_master.a(hct.o)
                              ..\..\..\libs\wireless\libwireless_master.a(bb.o) (hct_init)
..\..\..\libs\wireless\libwireless_master.a(hct_msg.o)
                              ..\..\..\libs\wireless\libwireless_master.a(hct.o) (hci_look_for_cmd_desc)
..\..\..\libs\wireless\libwireless_master.a(hct_proc.o)
                              ..\..\..\libs\wireless\libwireless_master.a(hct.o) (hct_acl_block_request)
..\..\..\libs\wireless\libwireless_master.a(hct_tl.o)
                              ..\..\..\libs\wireless\libwireless_master.a(bb_int.o) (hct_queue_is_empty)
..\..\..\libs\wireless\libwireless_master.a(ble_hook.o)
                              ..\..\..\libs\wireless\libwireless_master.a(ble_hal.o) (ble_hal_init_hook)
..\..\..\libs\wireless\libwireless_master.a(rf.o)
                              ..\..\..\libs\wireless\libwireless_master.a(ble_con.o) (rf_rssi_calc_dbm)
..\..\..\libs\wireless\libwireless_master.a(rf_mate.o)
                              ..\..\..\libs\wireless\libwireless_master.a(rf.o) (rfphy_sw_ctrl)
..\..\..\libs\wireless\libwireless_master.a(vs.o)
                              ..\..\..\libs\wireless\libwireless_master.a(bb.o) (vs_init)
..\..\..\libs\wireless\libwireless_master.a(vs_proc.o)
                              ..\..\..\libs\wireless\libwireless_master.a(vs.o) (vs_env)
..\..\..\libs\wireless\libwireless_master.a(wireless.o)
                              ..\..\..\libs\wireless\libwireless_master.a(wireless_api.o) (wireless_init_sanity_check)
..\..\..\libs\wireless\libwireless_master.a(wireless_proc.o)
                              ..\..\..\libs\wireless\libwireless_master.a(ble_con.o) (wl_con_env)
..\..\..\libs\wireless\libwireless_master.a(extern.o)
                              ..\..\..\libs\wireless\libwireless_master.a(bb_int.o) (sys_sleep_cb)
..\..\..\libs\wireless\libwireless_master.a(aes.o)
                              ..\..\..\libs\wireless\libwireless_master.a(bb.o) (aes_init)
..\..\..\libs\wireless\libwireless_master.a(platform.o)
                              ..\..\..\libs\wireless\libwireless_master.a(ble_hook.o) (bb_ll_tx_cb)
..\..\..\libs\wireless\libwireless_master.a(bb_clk.o)
                              ..\..\..\libs\wireless\libwireless_master.a(bb.o) (bb_lpcycles_2_hus_hook)
..\..\..\libs\wireless\libwireless_master.a(bb_dbg.o)
                              ..\..\..\libs\wireless\libwireless_master.a(bb.o) (bb_dbg_init)
..\..\..\libs\wireless\libwireless_master.a(patch.o)
                              ..\..\..\libs\wireless\libwireless_master.a(bb.o) (bb_patch_dummy)
..\..\..\libs\wireless\libwireless_master.a(patch_asm.o)
                              ..\..\..\libs\wireless\libwireless_master.a(patch.o) (ll_cntl_tx_check_fix_cb)
..\..\..\libs\wireless\libwireless_master.a(bb_sche.o)
                              ..\..\..\libs\wireless\libwireless_master.a(bb.o) (bb_sche_init)
..\..\..\libs\wireless\libwireless_master.a(nanos.o)
                              ..\..\..\libs\wireless\libwireless_master.a(bb.o) (nanos_init)
..\..\..\libs\wireless\libwireless_master.a(bb_utils.o)
                              ..\..\..\libs\wireless\libwireless_master.a(ll_phy_upd.o) (bb_phy_value_to_mask)
..\..\..\libs\wireless\libwireless_master.a(ll_chmap_upd.o)
                              ..\..\..\libs\wireless\libwireless_master.a(ll_cntl.o) (ll_channel_map_ind_func)
..\..\..\libs\wireless\libwireless_master.a(ll_clk_acc.o)
                              ..\..\..\libs\wireless\libwireless_master.a(ll_cntl.o) (ll_clk_acc_req_func)
..\..\..\libs\wireless\libwireless_master.a(ll_disconnect.o)
                              ..\..\..\libs\wireless\libwireless_master.a(ll_proc.o) (ll_stopped_ind_func)
..\..\..\libs\wireless\libwireless_master.a(ll_scan.o)
                              ..\..\..\libs\wireless\libwireless_master.a(mgr_proc.o) (ble_adv_rep_ind_func)
..\..\..\libs\wireless\libwireless_master.a(mgr_hci.o)
                              ..\..\..\libs\wireless\libwireless_master.a(mgr_proc.o) (hci_command_mgr_func)
..\..\..\libs\wireless\libwireless_master.a(mgr_init.o)
                              ..\..\..\libs\wireless\libwireless_master.a(mgr_hci.o) (hci_le_create_con_cmd_func)
..\..\..\libs\wireless\libwireless_master.a(scan_hook.o)
                              ..\..\..\libs\wireless\libwireless_master.a(ll_scan.o) (ble_scan_end_ind_hook)
..\..\..\libs\wireless\libwireless_master.a(vs_fcc.o)
                              ..\..\..\libs\wireless\libwireless_master.a(vs_proc.o) (vs_fcc_test_cmd)
..\..\..\libs\wireless\libwireless_master.a(thread.o)
                              ..\..\..\libs\wireless\libwireless_master.a(nanos.o) (thread_nanos_task_trigger)

Allocating common symbols
Common symbol       size              file

ude_cb              0x4               Output\obj\project\solution\wireless_remote_dongle\modules\usb\src\usb_dev_enum.o
tmr5ms_cnt          0x2               Output\obj\project\solution\wireless_remote_dongle\bsp\bsp_sys.o
ep_cb               0x20              Output\obj\project\solution\wireless_remote_dongle\modules\usb\src\usb_com.o
usb_handler_cb      0x8               Output\obj\project\solution\wireless_remote_dongle\modules\usb\src\usb_com.o
ep2_isoc_in         0x12              Output\obj\project\solution\wireless_remote_dongle\modules\usb\src\usb_audio.o
soft_timer_5ms_handle
                    0x4               Output\obj\project\solution\wireless_remote_dongle\modules\wireless\wireless_init.o
alarm_timer_5ms_scan_pool
                    0x1c              Output\obj\project\solution\wireless_remote_dongle\modules\wireless\wireless_init.o
cfg_bt_rf_def_txpwr
                    0x1               Output\obj\project\solution\wireless_remote_dongle\strong_symbol.o
xcfg_cb             0x33              Output\obj\project\solution\wireless_remote_dongle\bsp\bsp_sys.o

Discarded input sections

 .text          0x0000000000000000        0x0 Output\obj\driver\driver_clk.o
 .data          0x0000000000000000        0x0 Output\obj\driver\driver_clk.o
 .bss           0x0000000000000000        0x0 Output\obj\driver\driver_clk.o
 .text.clk_gate1_cmd
                0x0000000000000000       0x16 Output\obj\driver\driver_clk.o
 .text.clk_gate2_cmd
                0x0000000000000000       0x16 Output\obj\driver\driver_clk.o
 .text.clk_clkout_set
                0x0000000000000000       0x4e Output\obj\driver\driver_clk.o
 .text.clk_clk32k_rtc_set
                0x0000000000000000       0x28 Output\obj\driver\driver_clk.o
 .text.clk_clk32k_rtc_get
                0x0000000000000000       0x46 Output\obj\driver\driver_clk.o
 .text.clk_hsut0_clk_set
                0x0000000000000000       0x18 Output\obj\driver\driver_clk.o
 .text.clk_hsut0_clk_get
                0x0000000000000000       0x1e Output\obj\driver\driver_clk.o
 .text.clk_saradc_clk_set
                0x0000000000000000       0x18 Output\obj\driver\driver_clk.o
 .text.clk_saradc_clk_get
                0x0000000000000000       0x3e Output\obj\driver\driver_clk.o
 .text.clk_clk2m_ks_set
                0x0000000000000000       0x2e Output\obj\driver\driver_clk.o
 .text.clk_clk2m_ks_get
                0x0000000000000000       0x3e Output\obj\driver\driver_clk.o
 .text.clk_ledc_clk_set
                0x0000000000000000       0x18 Output\obj\driver\driver_clk.o
 .text.clk_ledc_clk_get
                0x0000000000000000       0x24 Output\obj\driver\driver_clk.o
 .text.clk_irtx_mod_clk_set
                0x0000000000000000       0x16 Output\obj\driver\driver_clk.o
 .text.clk_irtx_mod_clk_get
                0x0000000000000000       0x24 Output\obj\driver\driver_clk.o
 .text.clk_irrx_clk_set
                0x0000000000000000       0x16 Output\obj\driver\driver_clk.o
 .text.clk_irtx_clk_set
                0x0000000000000000        0x8 Output\obj\driver\driver_clk.o
 .text.clk_irrx_clk_get
                0x0000000000000000       0x34 Output\obj\driver\driver_clk.o
 .text.clk_irtx_clk_get
                0x0000000000000000        0x8 Output\obj\driver\driver_clk.o
 .rodata        0x0000000000000000       0x20 Output\obj\driver\driver_clk.o
 .text          0x0000000000000000        0x0 Output\obj\driver\driver_gpio.o
 .data          0x0000000000000000        0x0 Output\obj\driver\driver_gpio.o
 .bss           0x0000000000000000        0x0 Output\obj\driver\driver_gpio.o
 .text.gpio_deinit
                0x0000000000000000       0x10 Output\obj\driver\driver_gpio.o
 .com_periph.gpio.dir
                0x0000000000000000       0x12 Output\obj\driver\driver_gpio.o
 .com_periph.gpio.set
                0x0000000000000000        0x4 Output\obj\driver\driver_gpio.o
 .com_periph.gpio.reset
                0x0000000000000000        0x4 Output\obj\driver\driver_gpio.o
 .com_periph.gpio.write
                0x0000000000000000        0x4 Output\obj\driver\driver_gpio.o
 .com_periph.gpio.toggle
                0x0000000000000000        0x8 Output\obj\driver\driver_gpio.o
 .com_periph.gpio.read_data
                0x0000000000000000        0x8 Output\obj\driver\driver_gpio.o
 .com_periph.gpio.read_bit
                0x0000000000000000        0xa Output\obj\driver\driver_gpio.o
 .text.gpio_func_mapping_clear
                0x0000000000000000       0x7e Output\obj\driver\driver_gpio.o
 .com_periph.wk0.read_bit
                0x0000000000000000        0xa Output\obj\driver\driver_gpio.o
 .text.gpio_edge_capture_config_custom
                0x0000000000000000      0x116 Output\obj\driver\driver_gpio.o
 .text.gpio_set_reset_pin
                0x0000000000000000       0x4c Output\obj\driver\driver_gpio.o
 .text.gpio_get_edge_pin
                0x0000000000000000        0x8 Output\obj\driver\driver_gpio.o
 .com_periph.gpio.rise.src
                0x0000000000000000        0x8 Output\obj\driver\driver_gpio.o
 .com_periph.gpio.fall.src
                0x0000000000000000        0xc Output\obj\driver\driver_gpio.o
 .com_periph.gpio.pending_clr
                0x0000000000000000        0xc Output\obj\driver\driver_gpio.o
 .com_periph.gpio.pending_is
                0x0000000000000000       0x12 Output\obj\driver\driver_gpio.o
 .text.gpio_edge_pic_config
                0x0000000000000000       0x54 Output\obj\driver\driver_gpio.o
 .text          0x0000000000000000        0x0 Output\obj\driver\driver_hsuart.o
 .data          0x0000000000000000        0x0 Output\obj\driver\driver_hsuart.o
 .bss           0x0000000000000000        0x0 Output\obj\driver\driver_hsuart.o
 .text.hsuart_init
                0x0000000000000000       0xa0 Output\obj\driver\driver_hsuart.o
 .text.hsuart_deinit
                0x0000000000000000       0x14 Output\obj\driver\driver_hsuart.o
 .text.hsuart_cmd
                0x0000000000000000       0x16 Output\obj\driver\driver_hsuart.o
 .com_periph.hsuart.send
                0x0000000000000000       0x1a Output\obj\driver\driver_hsuart.o
 .com_periph.hsuart.recv
                0x0000000000000000        0xa Output\obj\driver\driver_hsuart.o
 .com_periph.hsuart.receive_data
                0x0000000000000000       0x44 Output\obj\driver\driver_hsuart.o
 .com_periph.hsuart.fifo_get
                0x0000000000000000        0xa Output\obj\driver\driver_hsuart.o
 .text.hsuart_clear_fifo_counter
                0x0000000000000000        0xe Output\obj\driver\driver_hsuart.o
 .text.hsuart_baud_config
                0x0000000000000000       0x2c Output\obj\driver\driver_hsuart.o
 .text.hsuart_pic_config
                0x0000000000000000       0x92 Output\obj\driver\driver_hsuart.o
 .com_periph.hsuart.get_flag
                0x0000000000000000       0x3e Output\obj\driver\driver_hsuart.o
 .com_periph.hsuart.clear
                0x0000000000000000       0x38 Output\obj\driver\driver_hsuart.o
 .text.hsuart_rx_idle_config
                0x0000000000000000       0x1e Output\obj\driver\driver_hsuart.o
 .com_periph.hsuart.dma
                0x0000000000000000       0x20 Output\obj\driver\driver_hsuart.o
 .com_periph.hsuart.stop
                0x0000000000000000       0x18 Output\obj\driver\driver_hsuart.o
 .com_periph.hsuart.hfc
                0x0000000000000000       0x32 Output\obj\driver\driver_hsuart.o
 .comment       0x0000000000000000       0x12 Output\obj\driver\driver_hsuart.o
 .text          0x0000000000000000        0x0 Output\obj\driver\driver_keyscan.o
 .data          0x0000000000000000        0x0 Output\obj\driver\driver_keyscan.o
 .bss           0x0000000000000000        0x0 Output\obj\driver\driver_keyscan.o
 .text.keyscan_init
                0x0000000000000000       0xde Output\obj\driver\driver_keyscan.o
 .text.keyscan_deinit
                0x0000000000000000        0xc Output\obj\driver\driver_keyscan.o
 .com_periph.keyscan.en_ctrl
                0x0000000000000000       0x16 Output\obj\driver\driver_keyscan.o
 .text.keyscan_pic_config
                0x0000000000000000       0x3a Output\obj\driver\driver_keyscan.o
 .com_periph.keyscan.flag
                0x0000000000000000       0x44 Output\obj\driver\driver_keyscan.o
 .com_periph.keyscan.query
                0x0000000000000000       0xca Output\obj\driver\driver_keyscan.o
 .com_periph.keyscan.lowpwr_mode
                0x0000000000000000        0xc Output\obj\driver\driver_keyscan.o
 .comment       0x0000000000000000       0x12 Output\obj\driver\driver_keyscan.o
 .text          0x0000000000000000        0x0 Output\obj\driver\driver_ledc.o
 .data          0x0000000000000000        0x0 Output\obj\driver\driver_ledc.o
 .bss           0x0000000000000000        0x0 Output\obj\driver\driver_ledc.o
 .text.ledc_init
                0x0000000000000000       0x3c Output\obj\driver\driver_ledc.o
 .text.ledc_timing_init
                0x0000000000000000       0x5c Output\obj\driver\driver_ledc.o
 .text.ledc_deinit
                0x0000000000000000       0x20 Output\obj\driver\driver_ledc.o
 .text.ledc_cmd
                0x0000000000000000       0x16 Output\obj\driver\driver_ledc.o
 .com_periph.ledc.transport
                0x0000000000000000       0x20 Output\obj\driver\driver_ledc.o
 .text.ledc_pic_config
                0x0000000000000000       0x44 Output\obj\driver\driver_ledc.o
 .com_periph.ledc.flag
                0x0000000000000000       0x42 Output\obj\driver\driver_ledc.o
 .text.ledc_set_frame_length
                0x0000000000000000        0xe Output\obj\driver\driver_ledc.o
 .text.ledc_set_loop_number
                0x0000000000000000        0xc Output\obj\driver\driver_ledc.o
 .text.ledc_get_frame_length
                0x0000000000000000       0x10 Output\obj\driver\driver_ledc.o
 .text.ledc_get_loop_number
                0x0000000000000000        0xc Output\obj\driver\driver_ledc.o
 .comment       0x0000000000000000       0x12 Output\obj\driver\driver_ledc.o
 .text          0x0000000000000000        0x0 Output\obj\driver\driver_lowpwr.o
 .data          0x0000000000000000        0x0 Output\obj\driver\driver_lowpwr.o
 .bss           0x0000000000000000       0x5c Output\obj\driver\driver_lowpwr.o
 .com_sleep.sys
                0x0000000000000000       0x8e Output\obj\driver\driver_lowpwr.o
 .com_sleep.lp_proc
                0x0000000000000000       0xc6 Output\obj\driver\driver_lowpwr.o
 .com_sleep.lp_wakeup
                0x0000000000000000      0x146 Output\obj\driver\driver_lowpwr.o
 .text.lowpwr_clr_wakeup_pending
                0x0000000000000000       0x1c Output\obj\driver\driver_lowpwr.o
 .text.lowpwr_gpio_wakeup_config_custom
                0x0000000000000000       0x4a Output\obj\driver\driver_lowpwr.o
 .text.lowpwr_wakeup_source_enable
                0x0000000000000000       0x7c Output\obj\driver\driver_lowpwr.o
 .text.lowpwr_wakeup_source_disable
                0x0000000000000000       0x92 Output\obj\driver\driver_lowpwr.o
 .com_pwroff.mode1
                0x0000000000000000       0xba Output\obj\driver\driver_lowpwr.o
 .com_sleep.sfr_save
                0x0000000000000000        0x2 Output\obj\driver\driver_lowpwr.o
 .com_sleep.sfr_resume
                0x0000000000000000        0x2 Output\obj\driver\driver_lowpwr.o
 .com_sleep.proc_do
                0x0000000000000000       0xb4 Output\obj\driver\driver_lowpwr.o
 .com_sleep.sleep
                0x0000000000000000        0x8 Output\obj\driver\driver_lowpwr.o
 .text          0x0000000000000000        0x0 Output\obj\driver\driver_rtc.o
 .data          0x0000000000000000        0x0 Output\obj\driver\driver_rtc.o
 .bss           0x0000000000000000        0x0 Output\obj\driver\driver_rtc.o
 .com_periph.rtc.cnt_set
                0x0000000000000000        0x8 Output\obj\driver\driver_rtc.o
 .com_periph.rtc.cnt_get
                0x0000000000000000        0x8 Output\obj\driver\driver_rtc.o
 .com_periph.rtc.alarm_set
                0x0000000000000000        0x8 Output\obj\driver\driver_rtc.o
 .com_periph.rtc.alarm_get
                0x0000000000000000        0x8 Output\obj\driver\driver_rtc.o
 .text.rtc_prescale_set
                0x0000000000000000       0x16 Output\obj\driver\driver_rtc.o
 .text.rtc_prescale_get
                0x0000000000000000        0xc Output\obj\driver\driver_rtc.o
 .text.rtc_pic_config
                0x0000000000000000       0x90 Output\obj\driver\driver_rtc.o
 .com_periph.rct.get
                0x0000000000000000       0x36 Output\obj\driver\driver_rtc.o
 .com_periph.rct.clear
                0x0000000000000000       0x1a Output\obj\driver\driver_rtc.o
 .comment       0x0000000000000000       0x12 Output\obj\driver\driver_rtc.o
 .text          0x0000000000000000        0x0 Output\obj\driver\driver_saradc.o
 .data          0x0000000000000000        0x0 Output\obj\driver\driver_saradc.o
 .bss           0x0000000000000000        0x0 Output\obj\driver\driver_saradc.o
 .text.saradc_mic_init
                0x0000000000000000       0x64 Output\obj\driver\driver_saradc.o
 .text.saradc_mic_cmd
                0x0000000000000000       0x1a Output\obj\driver\driver_saradc.o
 .text.saradc_mic_dma_cmd
                0x0000000000000000       0x38 Output\obj\driver\driver_saradc.o
 .text.saradc_init
                0x0000000000000000       0x88 Output\obj\driver\driver_saradc.o
 .text.saradc_add_channel
                0x0000000000000000      0x12a Output\obj\driver\driver_saradc.o
 .text.saradc_remove_channel
                0x0000000000000000       0xac Output\obj\driver\driver_saradc.o
 .text.saradc_cmd
                0x0000000000000000       0x16 Output\obj\driver\driver_saradc.o
 .com_periph.saradc.kick
                0x0000000000000000       0x2e Output\obj\driver\driver_saradc.o
 .text.saradc_set_baud
                0x0000000000000000       0x2e Output\obj\driver\driver_saradc.o
 .text.saradc_pic_config
                0x0000000000000000       0x70 Output\obj\driver\driver_saradc.o
 .com_periph.saradc.get
                0x0000000000000000       0x3a Output\obj\driver\driver_saradc.o
 .com_periph.saradc.clear
                0x0000000000000000       0x2e Output\obj\driver\driver_saradc.o
 .com_text.saradc.done
                0x0000000000000000       0x34 Output\obj\driver\driver_saradc.o
 .com_periph.saradc.get_data
                0x0000000000000000       0xa0 Output\obj\driver\driver_saradc.o
 .text          0x0000000000000000        0x0 Output\obj\driver\driver_spi.o
 .data          0x0000000000000000        0x0 Output\obj\driver\driver_spi.o
 .bss           0x0000000000000000        0x0 Output\obj\driver\driver_spi.o
 .text.spi_init
                0x0000000000000000       0x50 Output\obj\driver\driver_spi.o
 .text.spi_deinit
                0x0000000000000000       0x1c Output\obj\driver\driver_spi.o
 .text.spi_cmd  0x0000000000000000       0x10 Output\obj\driver\driver_spi.o
 .text.spi_dir_sel
                0x0000000000000000       0x16 Output\obj\driver\driver_spi.o
 .text.spi_it_cmd
                0x0000000000000000       0x12 Output\obj\driver\driver_spi.o
 .text.spi_lfsr_cmd
                0x0000000000000000       0x12 Output\obj\driver\driver_spi.o
 .text.spi_multi_bit_bus_cmd
                0x0000000000000000       0x12 Output\obj\driver\driver_spi.o
 .text.spi_hold_rx_cmd
                0x0000000000000000       0x12 Output\obj\driver\driver_spi.o
 .text.spi_hold_tx_cmd
                0x0000000000000000       0x12 Output\obj\driver\driver_spi.o
 .text.spi_soft_hold_cmd
                0x0000000000000000       0x12 Output\obj\driver\driver_spi.o
 .com_periph.spi.get
                0x0000000000000000        0xa Output\obj\driver\driver_spi.o
 .com_periph.spi.clear
                0x0000000000000000        0x8 Output\obj\driver\driver_spi.o
 .text.spi_set_dma_cnt
                0x0000000000000000        0x4 Output\obj\driver\driver_spi.o
 .text.spi_set_dma_addr
                0x0000000000000000        0x4 Output\obj\driver\driver_spi.o
 .text.spi_receive_data
                0x0000000000000000        0x8 Output\obj\driver\driver_spi.o
 .text.spi_send_data
                0x0000000000000000        0x4 Output\obj\driver\driver_spi.o
 .comment       0x0000000000000000       0x12 Output\obj\driver\driver_spi.o
 .text          0x0000000000000000        0x0 Output\obj\driver\driver_tmr.o
 .data          0x0000000000000000        0x0 Output\obj\driver\driver_tmr.o
 .bss           0x0000000000000000        0x0 Output\obj\driver\driver_tmr.o
 .text.tmr_base_init
                0x0000000000000000       0x50 Output\obj\driver\driver_tmr.o
 .text.tmr_deinit
                0x0000000000000000       0x54 Output\obj\driver\driver_tmr.o
 .text.tmr_set_counter
                0x0000000000000000        0x4 Output\obj\driver\driver_tmr.o
 .text.tmr_set_period
                0x0000000000000000        0x4 Output\obj\driver\driver_tmr.o
 .text.tmr_get_counter
                0x0000000000000000        0x4 Output\obj\driver\driver_tmr.o
 .text.tmr_get_period
                0x0000000000000000        0x4 Output\obj\driver\driver_tmr.o
 .text.tmr_cmd  0x0000000000000000       0x10 Output\obj\driver\driver_tmr.o
 .text.tmr_get_capture
                0x0000000000000000       0x1c Output\obj\driver\driver_tmr.o
 .text.tmr_pic_config
                0x0000000000000000       0x78 Output\obj\driver\driver_tmr.o
 .com_periph.tmr.get
                0x0000000000000000       0x52 Output\obj\driver\driver_tmr.o
 .com_periph.tmr.clear
                0x0000000000000000       0x3a Output\obj\driver\driver_tmr.o
 .comment       0x0000000000000000       0x12 Output\obj\driver\driver_tmr.o
 .text          0x0000000000000000        0x0 Output\obj\driver\driver_uart.o
 .data          0x0000000000000000        0x0 Output\obj\driver\driver_uart.o
 .bss           0x0000000000000000        0x0 Output\obj\driver\driver_uart.o
 .text.uart_deinit
                0x0000000000000000        0xe Output\obj\driver\driver_uart.o
 .com_periph.uart.send
                0x0000000000000000        0x8 Output\obj\driver\driver_uart.o
 .com_periph.uart.recv
                0x0000000000000000       0x14 Output\obj\driver\driver_uart.o
 .text.uart_pic_config
                0x0000000000000000       0x5c Output\obj\driver\driver_uart.o
 .com_periph.uart.get_flag
                0x0000000000000000       0x18 Output\obj\driver\driver_uart.o
 .com_periph.uart.clear_flag
                0x0000000000000000       0x2a Output\obj\driver\driver_uart.o
 .text          0x0000000000000000        0x0 Output\obj\driver\driver_wdt.o
 .data          0x0000000000000000        0x0 Output\obj\driver\driver_wdt.o
 .bss           0x0000000000000000        0x0 Output\obj\driver\driver_wdt.o
 .text.wdt_cmd  0x0000000000000000       0x18 Output\obj\driver\driver_wdt.o
 .text.wdt_reset_cmd
                0x0000000000000000       0x1e Output\obj\driver\driver_wdt.o
 .text.wdt_it_cmd
                0x0000000000000000       0x16 Output\obj\driver\driver_wdt.o
 .text.wdt_clk_select
                0x0000000000000000       0x1a Output\obj\driver\driver_wdt.o
 .text.wdt_time_select
                0x0000000000000000       0x1a Output\obj\driver\driver_wdt.o
 .text.wdt_get_flag
                0x0000000000000000        0x8 Output\obj\driver\driver_wdt.o
 .text.wdt_clear
                0x0000000000000000        0xe Output\obj\driver\driver_wdt.o
 .comment       0x0000000000000000       0x12 Output\obj\driver\driver_wdt.o
 .text          0x0000000000000000        0x0 Output\obj\project\solution\wireless_remote_dongle\app\func.o
 .data          0x0000000000000000        0x0 Output\obj\project\solution\wireless_remote_dongle\app\func.o
 .bss           0x0000000000000000        0x0 Output\obj\project\solution\wireless_remote_dongle\app\func.o
 .text          0x0000000000000000        0x0 Output\obj\project\solution\wireless_remote_dongle\app\func_idle.o
 .data          0x0000000000000000        0x0 Output\obj\project\solution\wireless_remote_dongle\app\func_idle.o
 .bss           0x0000000000000000        0x0 Output\obj\project\solution\wireless_remote_dongle\app\func_idle.o
 .text.func.idle.msg
                0x0000000000000000        0x8 Output\obj\project\solution\wireless_remote_dongle\app\func_idle.o
 .text          0x0000000000000000        0x0 Output\obj\project\solution\wireless_remote_dongle\app\func_iodm.o
 .data          0x0000000000000000        0x0 Output\obj\project\solution\wireless_remote_dongle\app\func_iodm.o
 .bss           0x0000000000000000        0x0 Output\obj\project\solution\wireless_remote_dongle\app\func_iodm.o
 .comment       0x0000000000000000       0x12 Output\obj\project\solution\wireless_remote_dongle\app\func_iodm.o
 .text          0x0000000000000000        0x0 Output\obj\project\solution\wireless_remote_dongle\app\func_lowpwr.o
 .data          0x0000000000000000        0x0 Output\obj\project\solution\wireless_remote_dongle\app\func_lowpwr.o
 .bss           0x0000000000000000        0x0 Output\obj\project\solution\wireless_remote_dongle\app\func_lowpwr.o
 .text          0x0000000000000000        0x0 Output\obj\project\solution\wireless_remote_dongle\app\func_wireless.o
 .data          0x0000000000000000        0x0 Output\obj\project\solution\wireless_remote_dongle\app\func_wireless.o
 .bss           0x0000000000000000        0x0 Output\obj\project\solution\wireless_remote_dongle\app\func_wireless.o
 .text          0x0000000000000000        0x0 Output\obj\project\solution\wireless_remote_dongle\bsp\bsp_huart_iodm.o
 .data          0x0000000000000000        0x0 Output\obj\project\solution\wireless_remote_dongle\bsp\bsp_huart_iodm.o
 .bss           0x0000000000000000        0x0 Output\obj\project\solution\wireless_remote_dongle\bsp\bsp_huart_iodm.o
 .comment       0x0000000000000000       0x12 Output\obj\project\solution\wireless_remote_dongle\bsp\bsp_huart_iodm.o
 .text          0x0000000000000000        0x0 Output\obj\project\solution\wireless_remote_dongle\bsp\bsp_io_key.o
 .data          0x0000000000000000        0x0 Output\obj\project\solution\wireless_remote_dongle\bsp\bsp_io_key.o
 .bss           0x0000000000000000        0x0 Output\obj\project\solution\wireless_remote_dongle\bsp\bsp_io_key.o
 .comment       0x0000000000000000       0x12 Output\obj\project\solution\wireless_remote_dongle\bsp\bsp_io_key.o
 .text          0x0000000000000000        0x0 Output\obj\project\solution\wireless_remote_dongle\bsp\bsp_key.o
 .data          0x0000000000000000        0x0 Output\obj\project\solution\wireless_remote_dongle\bsp\bsp_key.o
 .bss           0x0000000000000000        0x0 Output\obj\project\solution\wireless_remote_dongle\bsp\bsp_key.o
 .comment       0x0000000000000000       0x12 Output\obj\project\solution\wireless_remote_dongle\bsp\bsp_key.o
 .text          0x0000000000000000        0x0 Output\obj\project\solution\wireless_remote_dongle\bsp\bsp_param.o
 .data          0x0000000000000000        0x0 Output\obj\project\solution\wireless_remote_dongle\bsp\bsp_param.o
 .bss           0x0000000000000000        0x0 Output\obj\project\solution\wireless_remote_dongle\bsp\bsp_param.o
 .text.bsp.param.fota
                0x0000000000000000       0xc0 Output\obj\project\solution\wireless_remote_dongle\bsp\bsp_param.o
 .text          0x0000000000000000        0x0 Output\obj\project\solution\wireless_remote_dongle\bsp\bsp_saradc.o
 .data          0x0000000000000000        0x0 Output\obj\project\solution\wireless_remote_dongle\bsp\bsp_saradc.o
 .bss           0x0000000000000000        0x0 Output\obj\project\solution\wireless_remote_dongle\bsp\bsp_saradc.o
 .comment       0x0000000000000000       0x12 Output\obj\project\solution\wireless_remote_dongle\bsp\bsp_saradc.o
 .text          0x0000000000000000        0x0 Output\obj\project\solution\wireless_remote_dongle\bsp\bsp_saradc_key.o
 .data          0x0000000000000000        0x0 Output\obj\project\solution\wireless_remote_dongle\bsp\bsp_saradc_key.o
 .bss           0x0000000000000000        0x0 Output\obj\project\solution\wireless_remote_dongle\bsp\bsp_saradc_key.o
 .comment       0x0000000000000000       0x12 Output\obj\project\solution\wireless_remote_dongle\bsp\bsp_saradc_key.o
 .text          0x0000000000000000        0x0 Output\obj\project\solution\wireless_remote_dongle\bsp\bsp_saradc_vbat.o
 .data          0x0000000000000000        0x0 Output\obj\project\solution\wireless_remote_dongle\bsp\bsp_saradc_vbat.o
 .bss           0x0000000000000000        0x0 Output\obj\project\solution\wireless_remote_dongle\bsp\bsp_saradc_vbat.o
 .comment       0x0000000000000000       0x12 Output\obj\project\solution\wireless_remote_dongle\bsp\bsp_saradc_vbat.o
 .text          0x0000000000000000        0x0 Output\obj\project\solution\wireless_remote_dongle\bsp\bsp_sys.o
 .data          0x0000000000000000        0x0 Output\obj\project\solution\wireless_remote_dongle\bsp\bsp_sys.o
 .bss           0x0000000000000000        0x0 Output\obj\project\solution\wireless_remote_dongle\bsp\bsp_sys.o
 .text.power_on_check
                0x0000000000000000        0x2 Output\obj\project\solution\wireless_remote_dongle\bsp\bsp_sys.o
 .text.bsp_periph_init
                0x0000000000000000       0x20 Output\obj\project\solution\wireless_remote_dongle\bsp\bsp_sys.o
 .text          0x0000000000000000        0x0 Output\obj\project\solution\wireless_remote_dongle\bsp\bsp_uart_debug.o
 .data          0x0000000000000000        0x0 Output\obj\project\solution\wireless_remote_dongle\bsp\bsp_uart_debug.o
 .bss           0x0000000000000000        0x0 Output\obj\project\solution\wireless_remote_dongle\bsp\bsp_uart_debug.o
 .text          0x0000000000000000        0x0 Output\obj\project\solution\wireless_remote_dongle\main.o
 .data          0x0000000000000000        0x0 Output\obj\project\solution\wireless_remote_dongle\main.o
 .bss           0x0000000000000000        0x0 Output\obj\project\solution\wireless_remote_dongle\main.o
 .text          0x0000000000000000        0x0 Output\obj\project\solution\wireless_remote_dongle\modules\fota\fota_proc.o
 .data          0x0000000000000000        0x0 Output\obj\project\solution\wireless_remote_dongle\modules\fota\fota_proc.o
 .bss           0x0000000000000000        0x0 Output\obj\project\solution\wireless_remote_dongle\modules\fota\fota_proc.o
 .comment       0x0000000000000000       0x12 Output\obj\project\solution\wireless_remote_dongle\modules\fota\fota_proc.o
 .text          0x0000000000000000        0x0 Output\obj\project\solution\wireless_remote_dongle\modules\usb\src\usb_audio.o
 .data          0x0000000000000000        0x0 Output\obj\project\solution\wireless_remote_dongle\modules\usb\src\usb_audio.o
 .bss           0x0000000000000000        0x0 Output\obj\project\solution\wireless_remote_dongle\modules\usb\src\usb_audio.o
 .text          0x0000000000000000        0x0 Output\obj\project\solution\wireless_remote_dongle\modules\usb\src\usb_audio_desc.o
 .data          0x0000000000000000        0x0 Output\obj\project\solution\wireless_remote_dongle\modules\usb\src\usb_audio_desc.o
 .bss           0x0000000000000000        0x0 Output\obj\project\solution\wireless_remote_dongle\modules\usb\src\usb_audio_desc.o
 .text          0x0000000000000000        0x0 Output\obj\project\solution\wireless_remote_dongle\modules\usb\src\usb_com.o
 .data          0x0000000000000000        0x0 Output\obj\project\solution\wireless_remote_dongle\modules\usb\src\usb_com.o
 .bss           0x0000000000000000        0x0 Output\obj\project\solution\wireless_remote_dongle\modules\usb\src\usb_com.o
 .text          0x0000000000000000        0x0 Output\obj\project\solution\wireless_remote_dongle\modules\usb\src\usb_desc.o
 .data          0x0000000000000000        0x0 Output\obj\project\solution\wireless_remote_dongle\modules\usb\src\usb_desc.o
 .bss           0x0000000000000000        0x0 Output\obj\project\solution\wireless_remote_dongle\modules\usb\src\usb_desc.o
 .text          0x0000000000000000        0x0 Output\obj\project\solution\wireless_remote_dongle\modules\usb\src\usb_dev_enum.o
 .data          0x0000000000000000        0x0 Output\obj\project\solution\wireless_remote_dongle\modules\usb\src\usb_dev_enum.o
 .bss           0x0000000000000000        0x0 Output\obj\project\solution\wireless_remote_dongle\modules\usb\src\usb_dev_enum.o
 .text          0x0000000000000000        0x0 Output\obj\project\solution\wireless_remote_dongle\modules\usb\src\usb_hid.o
 .data          0x0000000000000000        0x0 Output\obj\project\solution\wireless_remote_dongle\modules\usb\src\usb_hid.o
 .bss           0x0000000000000000        0x0 Output\obj\project\solution\wireless_remote_dongle\modules\usb\src\usb_hid.o
 .text          0x0000000000000000        0x0 Output\obj\project\solution\wireless_remote_dongle\modules\usb\src\usb_hid_desc.o
 .data          0x0000000000000000        0x0 Output\obj\project\solution\wireless_remote_dongle\modules\usb\src\usb_hid_desc.o
 .bss           0x0000000000000000        0x0 Output\obj\project\solution\wireless_remote_dongle\modules\usb\src\usb_hid_desc.o
 .text          0x0000000000000000        0x0 Output\obj\project\solution\wireless_remote_dongle\modules\usb\src\usb_vendor.o
 .data          0x0000000000000000        0x0 Output\obj\project\solution\wireless_remote_dongle\modules\usb\src\usb_vendor.o
 .bss           0x0000000000000000        0x0 Output\obj\project\solution\wireless_remote_dongle\modules\usb\src\usb_vendor.o
 .comment       0x0000000000000000       0x12 Output\obj\project\solution\wireless_remote_dongle\modules\usb\src\usb_vendor.o
 .text          0x0000000000000000        0x0 Output\obj\project\solution\wireless_remote_dongle\modules\usb\src\usb_vendor_desc.o
 .data          0x0000000000000000        0x0 Output\obj\project\solution\wireless_remote_dongle\modules\usb\src\usb_vendor_desc.o
 .bss           0x0000000000000000        0x0 Output\obj\project\solution\wireless_remote_dongle\modules\usb\src\usb_vendor_desc.o
 .comment       0x0000000000000000       0x12 Output\obj\project\solution\wireless_remote_dongle\modules\usb\src\usb_vendor_desc.o
 .text          0x0000000000000000        0x0 Output\obj\project\solution\wireless_remote_dongle\modules\usb\usr\usb_usr_audio.o
 .text          0x0000000000000000        0x0 Output\obj\project\solution\wireless_remote_dongle\modules\usb\usr\usb_usr_hid.o
 .text          0x0000000000000000        0x0 Output\obj\project\solution\wireless_remote_dongle\modules\usb\usr\usb_usr_vendor.o
 .data          0x0000000000000000       0x1c Output\obj\project\solution\wireless_remote_dongle\modules\usb\usr\usb_usr_vendor.o
 .bss           0x0000000000000000      0x16c Output\obj\project\solution\wireless_remote_dongle\modules\usb\usr\usb_usr_vendor.o
 .com_text.usb.vendor.queue
                0x0000000000000000      0x100 Output\obj\project\solution\wireless_remote_dongle\modules\usb\usr\usb_usr_vendor.o
 .text.usb_usr_vendor_ready
                0x0000000000000000       0x36 Output\obj\project\solution\wireless_remote_dongle\modules\usb\usr\usb_usr_vendor.o
 .text.usb_usr_vendor_data_in
                0x0000000000000000       0x4e Output\obj\project\solution\wireless_remote_dongle\modules\usb\usr\usb_usr_vendor.o
 .text.usb_usr_vendor_data_out
                0x0000000000000000       0x42 Output\obj\project\solution\wireless_remote_dongle\modules\usb\usr\usb_usr_vendor.o
 .text.usb_usr_vendor_init
                0x0000000000000000       0x74 Output\obj\project\solution\wireless_remote_dongle\modules\usb\usr\usb_usr_vendor.o
 .text.usb_usr_vendor_consumer_write
                0x0000000000000000       0x14 Output\obj\project\solution\wireless_remote_dongle\modules\usb\usr\usb_usr_vendor.o
 .text.usb_usr_vendor_app_write
                0x0000000000000000       0x66 Output\obj\project\solution\wireless_remote_dongle\modules\usb\usr\usb_usr_vendor.o
 .text.usb_usr_vendor_dbg_write
                0x0000000000000000       0x5a Output\obj\project\solution\wireless_remote_dongle\modules\usb\usr\usb_usr_vendor.o
 .rodata.str1.4
                0x0000000000000000       0x2b Output\obj\project\solution\wireless_remote_dongle\modules\usb\usr\usb_usr_vendor.o
 .sbss          0x0000000000000000       0x20 Output\obj\project\solution\wireless_remote_dongle\modules\usb\usr\usb_usr_vendor.o
 .comment       0x0000000000000000       0x12 Output\obj\project\solution\wireless_remote_dongle\modules\usb\usr\usb_usr_vendor.o
 .text          0x0000000000000000        0x0 Output\obj\project\solution\wireless_remote_dongle\modules\wireless\wireless_client.o
 .data          0x0000000000000000        0x0 Output\obj\project\solution\wireless_remote_dongle\modules\wireless\wireless_client.o
 .bss           0x0000000000000000        0x0 Output\obj\project\solution\wireless_remote_dongle\modules\wireless\wireless_client.o
 .text          0x0000000000000000        0x0 Output\obj\project\solution\wireless_remote_dongle\modules\wireless\wireless_init.o
 .data          0x0000000000000000        0x0 Output\obj\project\solution\wireless_remote_dongle\modules\wireless\wireless_init.o
 .bss           0x0000000000000000        0x0 Output\obj\project\solution\wireless_remote_dongle\modules\wireless\wireless_init.o
 .text.soft_timer_5ms_disable
                0x0000000000000000       0x10 Output\obj\project\solution\wireless_remote_dongle\modules\wireless\wireless_init.o
 .text.soft_timer_5ms_enable
                0x0000000000000000       0x10 Output\obj\project\solution\wireless_remote_dongle\modules\wireless\wireless_init.o
 .text.wireless_link_info_write
                0x0000000000000000       0x24 Output\obj\project\solution\wireless_remote_dongle\modules\wireless\wireless_init.o
 .text.wireless_link_info_read
                0x0000000000000000       0x3e Output\obj\project\solution\wireless_remote_dongle\modules\wireless\wireless_init.o
 .text          0x0000000000000000        0x0 Output\obj\project\solution\wireless_remote_dongle\prod_test\iodm\prod_test_iodm.o
 .data          0x0000000000000000        0x0 Output\obj\project\solution\wireless_remote_dongle\prod_test\iodm\prod_test_iodm.o
 .bss           0x0000000000000000        0x0 Output\obj\project\solution\wireless_remote_dongle\prod_test\iodm\prod_test_iodm.o
 .comment       0x0000000000000000       0x12 Output\obj\project\solution\wireless_remote_dongle\prod_test\iodm\prod_test_iodm.o
 .text          0x0000000000000000        0x0 Output\obj\project\solution\wireless_remote_dongle\prod_test\prod_test.o
 .data          0x0000000000000000        0x0 Output\obj\project\solution\wireless_remote_dongle\prod_test\prod_test.o
 .bss           0x0000000000000000        0x0 Output\obj\project\solution\wireless_remote_dongle\prod_test\prod_test.o
 .text          0x0000000000000000        0x0 Output\obj\project\solution\wireless_remote_dongle\strong_symbol.o
 .data          0x0000000000000000        0x0 Output\obj\project\solution\wireless_remote_dongle\strong_symbol.o
 .bss           0x0000000000000000        0x0 Output\obj\project\solution\wireless_remote_dongle\strong_symbol.o
 .text.param_xosc_write
                0x0000000000000000       0x24 Output\obj\project\solution\wireless_remote_dongle\strong_symbol.o
 .com_text.timer
                0x0000000000000000        0x8 Output\obj\project\solution\wireless_remote_dongle\strong_symbol.o
 .text.ble_tbox_feature_req_enabled
                0x0000000000000000        0x4 Output\obj\project\solution\wireless_remote_dongle\strong_symbol.o
 .text          0x0000000000000000        0x0 ..\..\..\libs\cpu\libplatform.a(audio_mic.o)
 .data          0x0000000000000000        0x0 ..\..\..\libs\cpu\libplatform.a(audio_mic.o)
 .bss           0x0000000000000000       0x18 ..\..\..\libs\cpu\libplatform.a(audio_mic.o)
 .text.audio_mic_get_mic_type
                0x0000000000000000        0xa ..\..\..\libs\cpu\libplatform.a(audio_mic.o)
 .text.audio_mic_get_mic_gain
                0x0000000000000000        0xa ..\..\..\libs\cpu\libplatform.a(audio_mic.o)
 .text.audio_mic_get_mic_trim
                0x0000000000000000        0xa ..\..\..\libs\cpu\libplatform.a(audio_mic.o)
 .text.audio_mic_pb10_pdpu
                0x0000000000000000       0x2e ..\..\..\libs\cpu\libplatform.a(audio_mic.o)
 .text.audio_mic_power
                0x0000000000000000      0x102 ..\..\..\libs\cpu\libplatform.a(audio_mic.o)
 .text.audio_mic_analog_init
                0x0000000000000000      0x2cc ..\..\..\libs\cpu\libplatform.a(audio_mic.o)
 .comment       0x0000000000000000       0x13 ..\..\..\libs\cpu\libplatform.a(audio_mic.o)
 .riscv.attributes
                0x0000000000000000       0x32 ..\..\..\libs\cpu\libplatform.a(audio_mic.o)
 .text          0x0000000000000000        0x0 ..\..\..\libs\cpu\libplatform.a(audio_mic_trim.o)
 .data          0x0000000000000000        0x0 ..\..\..\libs\cpu\libplatform.a(audio_mic_trim.o)
 .bss           0x0000000000000000       0x18 ..\..\..\libs\cpu\libplatform.a(audio_mic_trim.o)
 .text.audio_mic_trim_sta_set
                0x0000000000000000        0xa ..\..\..\libs\cpu\libplatform.a(audio_mic_trim.o)
 .text.audio_mic_trim_sta_get
                0x0000000000000000        0xa ..\..\..\libs\cpu\libplatform.a(audio_mic_trim.o)
 .text.audio_mic_dbg
                0x0000000000000000       0x9e ..\..\..\libs\cpu\libplatform.a(audio_mic_trim.o)
 .text.audio_micdc_trim_step0_init
                0x0000000000000000       0x42 ..\..\..\libs\cpu\libplatform.a(audio_mic_trim.o)
 .text.audio_micdc_trim_step0_waiting
                0x0000000000000000       0x14 ..\..\..\libs\cpu\libplatform.a(audio_mic_trim.o)
 .rodata.str1.4
                0x0000000000000000       0x40 ..\..\..\libs\cpu\libplatform.a(audio_mic_trim.o)
 .text.audio_micdc_trim_step0_run
                0x0000000000000000      0x146 ..\..\..\libs\cpu\libplatform.a(audio_mic_trim.o)
 .text.audio_micdc_trim_step1_init
                0x0000000000000000       0x20 ..\..\..\libs\cpu\libplatform.a(audio_mic_trim.o)
 .text.audio_micdc_trim_step1_waiting
                0x0000000000000000       0x12 ..\..\..\libs\cpu\libplatform.a(audio_mic_trim.o)
 .text.audio_micdc_trim_step1_run
                0x0000000000000000       0x26 ..\..\..\libs\cpu\libplatform.a(audio_mic_trim.o)
 .text.audio_micdc_trim_step2_init
                0x0000000000000000        0x8 ..\..\..\libs\cpu\libplatform.a(audio_mic_trim.o)
 .text.audio_micdc_trim_step2_waiting
                0x0000000000000000        0x8 ..\..\..\libs\cpu\libplatform.a(audio_mic_trim.o)
 .text.audio_micdc_trim_step2_run
                0x0000000000000000        0xe ..\..\..\libs\cpu\libplatform.a(audio_mic_trim.o)
 .text.micin_config
                0x0000000000000000       0x64 ..\..\..\libs\cpu\libplatform.a(audio_mic_trim.o)
 .text.audio_micin_trim_step0_init
                0x0000000000000000       0x3a ..\..\..\libs\cpu\libplatform.a(audio_mic_trim.o)
 .text.audio_micin_trim_step0_waiting
                0x0000000000000000       0x14 ..\..\..\libs\cpu\libplatform.a(audio_mic_trim.o)
 .text.audio_micin_trim_step0_run
                0x0000000000000000       0x60 ..\..\..\libs\cpu\libplatform.a(audio_mic_trim.o)
 .text.audio_micin_trim_step1_init
                0x0000000000000000       0x2e ..\..\..\libs\cpu\libplatform.a(audio_mic_trim.o)
 .text.audio_micin_trim_step1_waiting
                0x0000000000000000        0x8 ..\..\..\libs\cpu\libplatform.a(audio_mic_trim.o)
 .text.audio_micin_trim_step1_run
                0x0000000000000000       0x4c ..\..\..\libs\cpu\libplatform.a(audio_mic_trim.o)
 .text.audio_micin_trim_step2_run
                0x0000000000000000       0x64 ..\..\..\libs\cpu\libplatform.a(audio_mic_trim.o)
 .text.audio_mic_trim_proc
                0x0000000000000000      0x180 ..\..\..\libs\cpu\libplatform.a(audio_mic_trim.o)
 .text.audio_mic_trim_is_finish
                0x0000000000000000       0x10 ..\..\..\libs\cpu\libplatform.a(audio_mic_trim.o)
 .rodata        0x0000000000000000       0x98 ..\..\..\libs\cpu\libplatform.a(audio_mic_trim.o)
 .comment       0x0000000000000000       0x13 ..\..\..\libs\cpu\libplatform.a(audio_mic_trim.o)
 .riscv.attributes
                0x0000000000000000       0x32 ..\..\..\libs\cpu\libplatform.a(audio_mic_trim.o)
 .text          0x0000000000000000        0x0 ..\..\..\libs\cpu\libplatform.a(cm.o)
 .data          0x0000000000000000        0x0 ..\..\..\libs\cpu\libplatform.a(cm.o)
 .text.cm_move_allpages
                0x0000000000000000      0x13e ..\..\..\libs\cpu\libplatform.a(cm.o)
 .text.cm_get_startaddr
                0x0000000000000000        0xa ..\..\..\libs\cpu\libplatform.a(cm.o)
 .text.cm_get_area
                0x0000000000000000       0x14 ..\..\..\libs\cpu\libplatform.a(cm.o)
 .text.cm_release_all
                0x0000000000000000       0x8c ..\..\..\libs\cpu\libplatform.a(cm.o)
 .text.cm_read8
                0x0000000000000000       0x28 ..\..\..\libs\cpu\libplatform.a(cm.o)
 .text.cm_read16
                0x0000000000000000       0x28 ..\..\..\libs\cpu\libplatform.a(cm.o)
 .text.cm_read32
                0x0000000000000000       0x24 ..\..\..\libs\cpu\libplatform.a(cm.o)
 .text.cm_write8
                0x0000000000000000       0x28 ..\..\..\libs\cpu\libplatform.a(cm.o)
 .text.cm_write16
                0x0000000000000000       0x28 ..\..\..\libs\cpu\libplatform.a(cm.o)
 .text.cm_write32
                0x0000000000000000       0x24 ..\..\..\libs\cpu\libplatform.a(cm.o)
 .text.cm_clear
                0x0000000000000000       0x60 ..\..\..\libs\cpu\libplatform.a(cm.o)
 .text          0x0000000000000000        0x0 ..\..\..\libs\cpu\libplatform.a(os_flash.o)
 .data          0x0000000000000000        0x0 ..\..\..\libs\cpu\libplatform.a(os_flash.o)
 .bss           0x0000000000000000        0x0 ..\..\..\libs\cpu\libplatform.a(os_flash.o)
 .com_text.spiflash.id
                0x0000000000000000        0x8 ..\..\..\libs\cpu\libplatform.a(os_flash.o)
 .text          0x0000000000000000        0x0 ..\..\..\libs\cpu\libplatform.a(xcfg.o)
 .data          0x0000000000000000        0x0 ..\..\..\libs\cpu\libplatform.a(xcfg.o)
 .bss           0x0000000000000000        0x0 ..\..\..\libs\cpu\libplatform.a(xcfg.o)
 .text          0x0000000000000000        0x0 ..\..\..\libs\cpu\libplatform.a(adpcm.o)
 .data          0x0000000000000000        0x0 ..\..\..\libs\cpu\libplatform.a(adpcm.o)
 .bss           0x0000000000000000        0x0 ..\..\..\libs\cpu\libplatform.a(adpcm.o)
 .text.adpcm_sample_idx_set
                0x0000000000000000        0xa ..\..\..\libs\cpu\libplatform.a(adpcm.o)
 .text.adpcm_sample_idx_get
                0x0000000000000000        0xa ..\..\..\libs\cpu\libplatform.a(adpcm.o)
 .text.adpcm_presample_set
                0x0000000000000000        0xa ..\..\..\libs\cpu\libplatform.a(adpcm.o)
 .text.adpcm_presample_get
                0x0000000000000000        0xa ..\..\..\libs\cpu\libplatform.a(adpcm.o)
 .com_text.adpcm.enc
                0x0000000000000000       0x30 ..\..\..\libs\cpu\libplatform.a(adpcm.o)
 .text          0x0000000000000000        0x0 ..\..\..\libs\cpu\libplatform.a(device.o)
 .data          0x0000000000000000        0x0 ..\..\..\libs\cpu\libplatform.a(device.o)
 .bss           0x0000000000000000        0x0 ..\..\..\libs\cpu\libplatform.a(device.o)
 .text          0x0000000000000000        0x0 ..\..\..\libs\cpu\libplatform.a(main.o)
 .data          0x0000000000000000        0x0 ..\..\..\libs\cpu\libplatform.a(main.o)
 .text          0x0000000000000000        0x0 ..\..\..\libs\cpu\libplatform.a(interrupt.o)
 .data          0x0000000000000000        0x0 ..\..\..\libs\cpu\libplatform.a(interrupt.o)
 .bss           0x0000000000000000        0x0 ..\..\..\libs\cpu\libplatform.a(interrupt.o)
 .com_text.irq.wpt
                0x0000000000000000       0x3e ..\..\..\libs\cpu\libplatform.a(interrupt.o)
 .text.sys_irq_init
                0x0000000000000000       0x96 ..\..\..\libs\cpu\libplatform.a(interrupt.o)
 .rodata.str1.4
                0x0000000000000000       0x28 ..\..\..\libs\cpu\libplatform.a(interrupt.o)
 .text.watch_point_set
                0x0000000000000000       0x5c ..\..\..\libs\cpu\libplatform.a(interrupt.o)
 .text.wdt_init
                0x0000000000000000       0x3a ..\..\..\libs\cpu\libplatform.a(interrupt.o)
 .com_rodata.irq.wpt
                0x0000000000000000       0x1b ..\..\..\libs\cpu\libplatform.a(interrupt.o)
 .text          0x0000000000000000        0x0 ..\..\..\libs\cpu\libplatform.a(startup.o)
 .data          0x0000000000000000        0x0 ..\..\..\libs\cpu\libplatform.a(startup.o)
 .bss           0x0000000000000000        0x0 ..\..\..\libs\cpu\libplatform.a(startup.o)
 .com_text.timer
                0x0000000000000000       0x16 ..\..\..\libs\cpu\libplatform.a(startup.o)
 .text.mem_heap_size_get
                0x0000000000000000        0x6 ..\..\..\libs\cpu\libplatform.a(startup.o)
 .text.thread_cfg_get
                0x0000000000000000        0x4 ..\..\..\libs\cpu\libplatform.a(startup.o)
 .text.thread_timer_create
                0x0000000000000000       0x76 ..\..\..\libs\cpu\libplatform.a(startup.o)
 .text.thread_btstack_create
                0x0000000000000000       0x96 ..\..\..\libs\cpu\libplatform.a(startup.o)
 .text.thread_create_callback
                0x0000000000000000       0x28 ..\..\..\libs\cpu\libplatform.a(startup.o)
 .text.bt_set_timer_enable
                0x0000000000000000       0x18 ..\..\..\libs\cpu\libplatform.a(startup.o)
 .bss.btstack   0x0000000000000000        0x4 ..\..\..\libs\cpu\libplatform.a(startup.o)
 .bss.timer     0x0000000000000000       0x28 ..\..\..\libs\cpu\libplatform.a(startup.o)
 .osmem         0x0000000000000000      0x600 ..\..\..\libs\cpu\libplatform.a(startup.o)
 .text          0x0000000000000000        0x0 ..\..\..\libs\cpu\libplatform.a(sys_hook.o)
 .data          0x0000000000000000        0x0 ..\..\..\libs\cpu\libplatform.a(sys_hook.o)
 .bss           0x0000000000000000        0x0 ..\..\..\libs\cpu\libplatform.a(sys_hook.o)
 .text          0x0000000000000000        0x0 ..\..\..\libs\cpu\libplatform.a(thread_driver.o)
 .data          0x0000000000000000        0x0 ..\..\..\libs\cpu\libplatform.a(thread_driver.o)
 .bss           0x0000000000000000        0x0 ..\..\..\libs\cpu\libplatform.a(thread_driver.o)
 .text          0x0000000000000000        0x0 ..\..\..\libs\cpu\libplatform.a(pll.o)
 .data          0x0000000000000000        0x0 ..\..\..\libs\cpu\libplatform.a(pll.o)
 .bss           0x0000000000000000        0x0 ..\..\..\libs\cpu\libplatform.a(pll.o)
 .text.pll_clk_nhz_get
                0x0000000000000000        0xa ..\..\..\libs\cpu\libplatform.a(pll.o)
 .text.pll_ext_init
                0x0000000000000000      0x204 ..\..\..\libs\cpu\libplatform.a(pll.o)
 .text          0x0000000000000000        0x0 ..\..\..\libs\cpu\libplatform.a(pmu.o)
 .data          0x0000000000000000        0x0 ..\..\..\libs\cpu\libplatform.a(pmu.o)
 .bss           0x0000000000000000        0x0 ..\..\..\libs\cpu\libplatform.a(pmu.o)
 .com_text.trim.vddio_get
                0x0000000000000000        0xa ..\..\..\libs\cpu\libplatform.a(pmu.o)
 .com_text.trim.vddio_set
                0x0000000000000000       0x2c ..\..\..\libs\cpu\libplatform.a(pmu.o)
 .com_text.trim.core_get
                0x0000000000000000        0xa ..\..\..\libs\cpu\libplatform.a(pmu.o)
 .com_text.trim.core_set
                0x0000000000000000       0x16 ..\..\..\libs\cpu\libplatform.a(pmu.o)
 .com_text.trim.lvd_get
                0x0000000000000000        0xa ..\..\..\libs\cpu\libplatform.a(pmu.o)
 .com_text.pmu.vddbt_set
                0x0000000000000000        0xe ..\..\..\libs\cpu\libplatform.a(pmu.o)
 .com_text.pmu.vddbt_get
                0x0000000000000000        0x8 ..\..\..\libs\cpu\libplatform.a(pmu.o)
 .text          0x0000000000000000        0x0 ..\..\..\libs\cpu\libplatform.a(reset.o)
 .data          0x0000000000000000        0x0 ..\..\..\libs\cpu\libplatform.a(reset.o)
 .bss           0x0000000000000000        0x0 ..\..\..\libs\cpu\libplatform.a(reset.o)
 .com_text.irq  0x0000000000000000        0xe ..\..\..\libs\cpu\libplatform.a(reset.o)
 .text          0x0000000000000000        0x0 ..\..\..\libs\cpu\libplatform.a(context.o)
 .data          0x0000000000000000        0x0 ..\..\..\libs\cpu\libplatform.a(context.o)
 .bss           0x0000000000000000        0x0 ..\..\..\libs\cpu\libplatform.a(context.o)
 .riscv.attributes
                0x0000000000000000       0x30 ..\..\..\libs\cpu\libplatform.a(context.o)
 .text          0x0000000000000000        0x0 ..\..\..\libs\cpu\libplatform.a(debug.o)
 .data          0x0000000000000000        0x0 ..\..\..\libs\cpu\libplatform.a(debug.o)
 .bss           0x0000000000000000        0x0 ..\..\..\libs\cpu\libplatform.a(debug.o)
 .text.debug_dump_info_nanos_schedule
                0x0000000000000000        0x2 ..\..\..\libs\cpu\libplatform.a(debug.o)
 .text.debug_dump_info_nanos_timer
                0x0000000000000000        0x2 ..\..\..\libs\cpu\libplatform.a(debug.o)
 .text          0x0000000000000000        0x0 ..\..\..\libs\cpu\libplatform.a(lock.o)
 .data          0x0000000000000000        0x0 ..\..\..\libs\cpu\libplatform.a(lock.o)
 .bss           0x0000000000000000        0x0 ..\..\..\libs\cpu\libplatform.a(lock.o)
 .text          0x0000000000000000        0x0 ..\..\..\libs\cpu\libplatform.a(patch.o)
 .data          0x0000000000000000        0x0 ..\..\..\libs\cpu\libplatform.a(patch.o)
 .bss           0x0000000000000000        0x0 ..\..\..\libs\cpu\libplatform.a(patch.o)
 .text          0x0000000000000000        0x0 ..\..\..\libs\cpu\libplatform.a(s_sys.o)
 .data          0x0000000000000000        0x0 ..\..\..\libs\cpu\libplatform.a(s_sys.o)
 .bss           0x0000000000000000        0x0 ..\..\..\libs\cpu\libplatform.a(s_sys.o)
 .com_text.sys.alu
                0x0000000000000000       0x66 ..\..\..\libs\cpu\libplatform.a(s_sys.o)
 .text          0x0000000000000000        0x0 ..\..\..\libs\cpu\libplatform.a(sleep.o)
 .data          0x0000000000000000        0x0 ..\..\..\libs\cpu\libplatform.a(sleep.o)
 .bss           0x0000000000000000        0x0 ..\..\..\libs\cpu\libplatform.a(sleep.o)
 .com_sleep.lp.sleep
                0x0000000000000000       0x7e ..\..\..\libs\cpu\libplatform.a(sleep.o)
 .comment       0x0000000000000000       0x13 ..\..\..\libs\cpu\libplatform.a(sleep.o)
 .riscv.attributes
                0x0000000000000000       0x32 ..\..\..\libs\cpu\libplatform.a(sleep.o)
 .text          0x0000000000000000        0x0 ..\..\..\libs\cpu\libplatform.a(sys.o)
 .data          0x0000000000000000        0x0 ..\..\..\libs\cpu\libplatform.a(sys.o)
 .bss           0x0000000000000000        0x0 ..\..\..\libs\cpu\libplatform.a(sys.o)
 .text.dbg_clk_out
                0x0000000000000000       0x46 ..\..\..\libs\cpu\libplatform.a(sys.o)
 .text.rc2m_clk_nhz_get
                0x0000000000000000       0x30 ..\..\..\libs\cpu\libplatform.a(sys.o)
 .com_text.sys  0x0000000000000000       0x1e ..\..\..\libs\cpu\libplatform.a(sys.o)
 .text.sw_reset_source_get
                0x0000000000000000       0x2a ..\..\..\libs\cpu\libplatform.a(sys.o)
 .text.random_init
                0x0000000000000000        0xa ..\..\..\libs\cpu\libplatform.a(sys.o)
 .text.sys_get_rand_key
                0x0000000000000000       0x6c ..\..\..\libs\cpu\libplatform.a(sys.o)
 .text.get_random
                0x0000000000000000       0x26 ..\..\..\libs\cpu\libplatform.a(sys.o)
 .text.bsp.param
                0x0000000000000000       0x32 ..\..\..\libs\cpu\libplatform.a(sys.o)
 .text.bt_restore_xosc_cap
                0x0000000000000000        0x8 ..\..\..\libs\cpu\libplatform.a(sys.o)
 .text.bt_get_xosc_cap
                0x0000000000000000        0xc ..\..\..\libs\cpu\libplatform.a(sys.o)
 .text.bt_set_xosc_cap
                0x0000000000000000       0x18 ..\..\..\libs\cpu\libplatform.a(sys.o)
 .text.bt_adj_xosc_cap
                0x0000000000000000       0x72 ..\..\..\libs\cpu\libplatform.a(sys.o)
 .text.__divdi3
                0x0000000000000000       0x5c ..\..\..\libs\cpu\libplatform.a(sys.o)
 .text.__umoddi3
                0x0000000000000000       0x30 ..\..\..\libs\cpu\libplatform.a(sys.o)
 .text          0x0000000000000000        0x0 ..\..\..\libs\cpu\libplatform.a(sys_clk.o)
 .data          0x0000000000000000        0x0 ..\..\..\libs\cpu\libplatform.a(sys_clk.o)
 .bss           0x0000000000000000        0x0 ..\..\..\libs\cpu\libplatform.a(sys_clk.o)
 .text.periph_cacl_clkdiv
                0x0000000000000000        0x2 ..\..\..\libs\cpu\libplatform.a(sys_clk.o)
 .text.sys_clk_nhz_get
                0x0000000000000000       0x5e ..\..\..\libs\cpu\libplatform.a(sys_clk.o)
 .text.sys_clk_get
                0x0000000000000000        0xa ..\..\..\libs\cpu\libplatform.a(sys_clk.o)
 .text.sys_clk_lower_limit_lock
                0x0000000000000000       0x84 ..\..\..\libs\cpu\libplatform.a(sys_clk.o)
 .text.sys_clk_lower_limit_unlock
                0x0000000000000000       0x6c ..\..\..\libs\cpu\libplatform.a(sys_clk.o)
 .text.sys_clk_lower_limit_all_unlock
                0x0000000000000000       0x50 ..\..\..\libs\cpu\libplatform.a(sys_clk.o)
 .sbss          0x0000000000000000        0x1 ..\..\..\libs\cpu\libplatform.a(sys_clk.o)
 .srodata       0x0000000000000000        0x4 ..\..\..\libs\cpu\libplatform.a(sys_clk.o)
 .text          0x0000000000000000        0x0 ..\..\..\libs\cpu\libplatform.a(voltage_trim.o)
 .data          0x0000000000000000        0x0 ..\..\..\libs\cpu\libplatform.a(voltage_trim.o)
 .bss           0x0000000000000000        0x0 ..\..\..\libs\cpu\libplatform.a(voltage_trim.o)
 .text.pmu_get_vbg_mv
                0x0000000000000000        0xe ..\..\..\libs\cpu\libplatform.a(voltage_trim.o)
 .text.pmu_get_vbatdet
                0x0000000000000000       0x46 ..\..\..\libs\cpu\libplatform.a(voltage_trim.o)
 .rodata.str1.4
                0x0000000000000000       0x63 ..\..\..\libs\cpu\libplatform.a(voltage_trim.o)
 .text.voltage_trim_value_dump
                0x0000000000000000       0x8c ..\..\..\libs\cpu\libplatform.a(voltage_trim.o)
 .text          0x0000000000000000        0x0 ..\..\..\libs\cpu\libplatform.a(weak_symbol.o)
 .data          0x0000000000000000        0x0 ..\..\..\libs\cpu\libplatform.a(weak_symbol.o)
 .bss           0x0000000000000000       0x20 ..\..\..\libs\cpu\libplatform.a(weak_symbol.o)
 .text.xosc_get_xcfg
                0x0000000000000000        0x2 ..\..\..\libs\cpu\libplatform.a(weak_symbol.o)
 .text.param_xosc_read
                0x0000000000000000        0x2 ..\..\..\libs\cpu\libplatform.a(weak_symbol.o)
 .text.param_xosc_write
                0x0000000000000000        0x2 ..\..\..\libs\cpu\libplatform.a(weak_symbol.o)
 .text.sys_clk_change_callback
                0x0000000000000000        0x2 ..\..\..\libs\cpu\libplatform.a(weak_symbol.o)
 .text.uart_debug_init_callback
                0x0000000000000000        0x2 ..\..\..\libs\cpu\libplatform.a(weak_symbol.o)
 .text.nanos_var_init
                0x0000000000000000       0x1a ..\..\..\libs\cpu\libplatform.a(weak_symbol.o)
 .text.btstack_message
                0x0000000000000000        0x4 ..\..\..\libs\cpu\libplatform.a(weak_symbol.o)
 .com_text.stack.api
                0x0000000000000000        0x4 ..\..\..\libs\cpu\libplatform.a(weak_symbol.o)
 .com_text.ret.stack.thread
                0x0000000000000000        0x2 ..\..\..\libs\cpu\libplatform.a(weak_symbol.o)
 .com_text.bb.isr
                0x0000000000000000        0x6 ..\..\..\libs\cpu\libplatform.a(weak_symbol.o)
 .text.btstack_var_init
                0x0000000000000000        0x2 ..\..\..\libs\cpu\libplatform.a(weak_symbol.o)
 .com_text.stack.run_loop
                0x0000000000000000        0x2 ..\..\..\libs\cpu\libplatform.a(weak_symbol.o)
 .text.bb_patch_init
                0x0000000000000000        0x4 ..\..\..\libs\cpu\libplatform.a(weak_symbol.o)
 .text.bb_nanos_mem_init
                0x0000000000000000        0x2 ..\..\..\libs\cpu\libplatform.a(weak_symbol.o)
 .text          0x0000000000000000        0x0 ..\..\..\libs\cpu\libplatform.a(bt.o)
 .data          0x0000000000000000        0x0 ..\..\..\libs\cpu\libplatform.a(bt.o)
 .bss           0x0000000000000000        0x0 ..\..\..\libs\cpu\libplatform.a(bt.o)
 .com_text.stack.api
                0x0000000000000000       0x34 ..\..\..\libs\cpu\libplatform.a(bt.o)
 .com_text.stack.thread
                0x0000000000000000       0x36 ..\..\..\libs\cpu\libplatform.a(bt.o)
 .com_text.stack.run_loop
                0x0000000000000000       0x50 ..\..\..\libs\cpu\libplatform.a(bt.o)
 .comment       0x0000000000000000       0x13 ..\..\..\libs\cpu\libplatform.a(bt.o)
 .riscv.attributes
                0x0000000000000000       0x32 ..\..\..\libs\cpu\libplatform.a(bt.o)
 .text          0x0000000000000000        0x0 ..\..\..\libs\cpu\libplatform.a(freq_det.o)
 .data          0x0000000000000000        0x0 ..\..\..\libs\cpu\libplatform.a(freq_det.o)
 .bss           0x0000000000000000        0x0 ..\..\..\libs\cpu\libplatform.a(freq_det.o)
 .com_sleep.sleep.rc
                0x0000000000000000       0x44 ..\..\..\libs\cpu\libplatform.a(freq_det.o)
 .text          0x0000000000000000        0x0 ..\..\..\libs\usb\libusb.a(usb_comm.o)
 .data          0x0000000000000000        0x0 ..\..\..\libs\usb\libusb.a(usb_comm.o)
 .bss           0x0000000000000000        0x0 ..\..\..\libs\usb\libusb.a(usb_comm.o)
 .text.usb_suspend
                0x0000000000000000        0xe ..\..\..\libs\usb\libusb.a(usb_comm.o)
 .text          0x0000000000000000        0x0 ..\..\..\libs\usb\libusb.a(usb_detect.o)
 .data          0x0000000000000000        0x0 ..\..\..\libs\usb\libusb.a(usb_detect.o)
 .bss           0x0000000000000000        0x0 ..\..\..\libs\usb\libusb.a(usb_detect.o)
 .com_text.usb.dect.otg_host
                0x0000000000000000       0x14 ..\..\..\libs\usb\libusb.a(usb_detect.o)
 .com_text.usb.dect.host
                0x0000000000000000       0x12 ..\..\..\libs\usb\libusb.a(usb_detect.o)
 .com_text.usb.dect.proc
                0x0000000000000000       0xba ..\..\..\libs\usb\libusb.a(usb_detect.o)
 .text          0x0000000000000000        0x0 ..\..\..\libs\usb\libusb.a(usb_device_enum.o)
 .data          0x0000000000000000        0x0 ..\..\..\libs\usb\libusb.a(usb_device_enum.o)
 .bss           0x0000000000000000        0x0 ..\..\..\libs\usb\libusb.a(usb_device_enum.o)
 .text          0x0000000000000000        0x0 ..\..\..\libs\usb\libusb.a(usb_device_ep.o)
 .data          0x0000000000000000        0x0 ..\..\..\libs\usb\libusb.a(usb_device_ep.o)
 .text          0x0000000000000000        0x0 ..\..\..\libs\usb\libusb.a(usb_device_run_loop.o)
 .data          0x0000000000000000        0x0 ..\..\..\libs\usb\libusb.a(usb_device_run_loop.o)
 .bss           0x0000000000000000        0x0 ..\..\..\libs\usb\libusb.a(usb_device_run_loop.o)
 .text          0x0000000000000000        0x0 ..\..\..\libs\wireless\libwireless_master.a(wireless_api.o)
 .data          0x0000000000000000        0x0 ..\..\..\libs\wireless\libwireless_master.a(wireless_api.o)
 .bss           0x0000000000000000        0x0 ..\..\..\libs\wireless\libwireless_master.a(wireless_api.o)
 .text.le.sw.fcc
                0x0000000000000000       0x7e ..\..\..\libs\wireless\libwireless_master.a(wireless_api.o)
 .data          0x0000000000000000        0x0 ..\..\..\libs\wireless\libwireless_master.a(bb_api.o)
 .bss           0x0000000000000000        0x0 ..\..\..\libs\wireless\libwireless_master.a(bb_api.o)
 .com_text.bt.timer
                0x0000000000000000       0xc0 ..\..\..\libs\wireless\libwireless_master.a(bb_api.o)
 .com_text.sleep
                0x0000000000000000        0x8 ..\..\..\libs\wireless\libwireless_master.a(bb_api.o)
 .com_sleep.sleep
                0x0000000000000000        0x8 ..\..\..\libs\wireless\libwireless_master.a(bb_api.o)
 .data          0x0000000000000000        0x0 ..\..\..\libs\wireless\libwireless_master.a(bb.o)
 .bss           0x0000000000000000        0x0 ..\..\..\libs\wireless\libwireless_master.a(bb.o)
 .text          0x0000000000000000        0x0 ..\..\..\libs\wireless\libwireless_master.a(bb_alarm.o)
 .data          0x0000000000000000        0x0 ..\..\..\libs\wireless\libwireless_master.a(bb_alarm.o)
 .bss           0x0000000000000000        0x0 ..\..\..\libs\wireless\libwireless_master.a(bb_alarm.o)
 .com_text.bb.isr.nest
                0x0000000000000000        0xa ..\..\..\libs\wireless\libwireless_master.a(bb_alarm.o)
 .data          0x0000000000000000        0x0 ..\..\..\libs\wireless\libwireless_master.a(bb_int.o)
 .bss           0x0000000000000000        0x0 ..\..\..\libs\wireless\libwireless_master.a(bb_int.o)
 .com_text.bb.hs_get
                0x0000000000000000       0x22 ..\..\..\libs\wireless\libwireless_master.a(bb_int.o)
 .com_sleep.bb  0x0000000000000000      0x1c0 ..\..\..\libs\wireless\libwireless_master.a(bb_int.o)
 .text          0x0000000000000000        0x0 ..\..\..\libs\wireless\libwireless_master.a(bb_sleep.o)
 .data          0x0000000000000000        0x0 ..\..\..\libs\wireless\libwireless_master.a(bb_sleep.o)
 .bss           0x0000000000000000        0x0 ..\..\..\libs\wireless\libwireless_master.a(bb_sleep.o)
 .com_sleep.bb  0x0000000000000000       0xa2 ..\..\..\libs\wireless\libwireless_master.a(bb_sleep.o)
 .comment       0x0000000000000000       0x13 ..\..\..\libs\wireless\libwireless_master.a(bb_sleep.o)
 .riscv.attributes
                0x0000000000000000       0x32 ..\..\..\libs\wireless\libwireless_master.a(bb_sleep.o)
 .data          0x0000000000000000        0x0 ..\..\..\libs\wireless\libwireless_master.a(ble.o)
 .bss           0x0000000000000000        0x0 ..\..\..\libs\wireless\libwireless_master.a(ble.o)
 .data          0x0000000000000000        0x0 ..\..\..\libs\wireless\libwireless_master.a(ble_buf.o)
 .text.le.stack
                0x0000000000000000       0x2c ..\..\..\libs\wireless\libwireless_master.a(ble_buf.o)
 .data          0x0000000000000000        0x0 ..\..\..\libs\wireless\libwireless_master.a(ble_con.o)
 .bss           0x0000000000000000        0x0 ..\..\..\libs\wireless\libwireless_master.a(ble_con.o)
 .data          0x0000000000000000        0x0 ..\..\..\libs\wireless\libwireless_master.a(ble_hal.o)
 .bss           0x0000000000000000        0x0 ..\..\..\libs\wireless\libwireless_master.a(ble_hal.o)
 .data          0x0000000000000000        0x0 ..\..\..\libs\wireless\libwireless_master.a(ble_init.o)
 .bss           0x0000000000000000        0x0 ..\..\..\libs\wireless\libwireless_master.a(ble_init.o)
 .com_rodata.bb.tbl
                0x0000000000000000        0x8 ..\..\..\libs\wireless\libwireless_master.a(ble_init.o)
 .data          0x0000000000000000        0x0 ..\..\..\libs\wireless\libwireless_master.a(ble_scan.o)
 .bss           0x0000000000000000        0x0 ..\..\..\libs\wireless\libwireless_master.a(ble_scan.o)
 .com_rodata.bb.tbl
                0x0000000000000000        0x7 ..\..\..\libs\wireless\libwireless_master.a(ble_scan.o)
 .data          0x0000000000000000        0x0 ..\..\..\libs\wireless\libwireless_master.a(ble_sync.o)
 .bss           0x0000000000000000        0x0 ..\..\..\libs\wireless\libwireless_master.a(ble_sync.o)
 .data          0x0000000000000000        0x0 ..\..\..\libs\wireless\libwireless_master.a(ble_test.o)
 .bss           0x0000000000000000        0x0 ..\..\..\libs\wireless\libwireless_master.a(ble_test.o)
 .text          0x0000000000000000        0x0 ..\..\..\libs\wireless\libwireless_master.a(ll.o)
 .data          0x0000000000000000        0x0 ..\..\..\libs\wireless\libwireless_master.a(ll.o)
 .bss           0x0000000000000000        0x0 ..\..\..\libs\wireless\libwireless_master.a(ll.o)
 .data          0x0000000000000000        0x0 ..\..\..\libs\wireless\libwireless_master.a(ll_cntl.o)
 .bss           0x0000000000000000        0x0 ..\..\..\libs\wireless\libwireless_master.a(ll_cntl.o)
 .data          0x0000000000000000        0x0 ..\..\..\libs\wireless\libwireless_master.a(ll_con_upd.o)
 .bss           0x0000000000000000        0x0 ..\..\..\libs\wireless\libwireless_master.a(ll_con_upd.o)
 .data          0x0000000000000000        0x0 ..\..\..\libs\wireless\libwireless_master.a(ll_encrypt.o)
 .bss           0x0000000000000000        0x0 ..\..\..\libs\wireless\libwireless_master.a(ll_encrypt.o)
 .data          0x0000000000000000        0x0 ..\..\..\libs\wireless\libwireless_master.a(ll_feature.o)
 .bss           0x0000000000000000        0x0 ..\..\..\libs\wireless\libwireless_master.a(ll_feature.o)
 .data          0x0000000000000000        0x0 ..\..\..\libs\wireless\libwireless_master.a(ll_length.o)
 .bss           0x0000000000000000        0x0 ..\..\..\libs\wireless\libwireless_master.a(ll_length.o)
 .data          0x0000000000000000        0x0 ..\..\..\libs\wireless\libwireless_master.a(ll_phy_upd.o)
 .bss           0x0000000000000000        0x0 ..\..\..\libs\wireless\libwireless_master.a(ll_phy_upd.o)
 .data          0x0000000000000000        0x0 ..\..\..\libs\wireless\libwireless_master.a(ll_proc.o)
 .bss           0x0000000000000000        0x0 ..\..\..\libs\wireless\libwireless_master.a(ll_proc.o)
 .data          0x0000000000000000        0x0 ..\..\..\libs\wireless\libwireless_master.a(ll_version.o)
 .bss           0x0000000000000000        0x0 ..\..\..\libs\wireless\libwireless_master.a(ll_version.o)
 .data          0x0000000000000000        0x0 ..\..\..\libs\wireless\libwireless_master.a(mgr.o)
 .bss           0x0000000000000000        0x0 ..\..\..\libs\wireless\libwireless_master.a(mgr.o)
 .data          0x0000000000000000        0x0 ..\..\..\libs\wireless\libwireless_master.a(mgr_proc.o)
 .bss           0x0000000000000000        0x0 ..\..\..\libs\wireless\libwireless_master.a(mgr_proc.o)
 .data          0x0000000000000000        0x0 ..\..\..\libs\wireless\libwireless_master.a(mgr_test.o)
 .bss           0x0000000000000000        0x0 ..\..\..\libs\wireless\libwireless_master.a(mgr_test.o)
 .data          0x0000000000000000        0x0 ..\..\..\libs\wireless\libwireless_master.a(hct.o)
 .bss           0x0000000000000000        0x0 ..\..\..\libs\wireless\libwireless_master.a(hct.o)
 .data          0x0000000000000000        0x0 ..\..\..\libs\wireless\libwireless_master.a(hct_msg.o)
 .bss           0x0000000000000000        0x0 ..\..\..\libs\wireless\libwireless_master.a(hct_msg.o)
 .data          0x0000000000000000        0x0 ..\..\..\libs\wireless\libwireless_master.a(hct_proc.o)
 .bss           0x0000000000000000        0x0 ..\..\..\libs\wireless\libwireless_master.a(hct_proc.o)
 .text          0x0000000000000000        0x0 ..\..\..\libs\wireless\libwireless_master.a(hct_tl.o)
 .data          0x0000000000000000        0x0 ..\..\..\libs\wireless\libwireless_master.a(hct_tl.o)
 .bss           0x0000000000000000        0x0 ..\..\..\libs\wireless\libwireless_master.a(hct_tl.o)
 .com_text.bb.sleep
                0x0000000000000000        0x4 ..\..\..\libs\wireless\libwireless_master.a(hct_tl.o)
 .comment       0x0000000000000000       0x13 ..\..\..\libs\wireless\libwireless_master.a(hct_tl.o)
 .riscv.attributes
                0x0000000000000000       0x32 ..\..\..\libs\wireless\libwireless_master.a(hct_tl.o)
 .data          0x0000000000000000        0x0 ..\..\..\libs\wireless\libwireless_master.a(ble_hook.o)
 .bss           0x0000000000000000        0x0 ..\..\..\libs\wireless\libwireless_master.a(ble_hook.o)
 .data          0x0000000000000000        0x0 ..\..\..\libs\wireless\libwireless_master.a(rf.o)
 .bss           0x0000000000000000        0x0 ..\..\..\libs\wireless\libwireless_master.a(rf.o)
 .com_text.bb.isr.lv
                0x0000000000000000       0x3e ..\..\..\libs\wireless\libwireless_master.a(rf.o)
 .com_text.bb.isr.dbm
                0x0000000000000000       0x12 ..\..\..\libs\wireless\libwireless_master.a(rf.o)
 .com_sleep.bb  0x0000000000000000       0xae ..\..\..\libs\wireless\libwireless_master.a(rf.o)
 .text.rf.tx_tone
                0x0000000000000000       0x72 ..\..\..\libs\wireless\libwireless_master.a(rf.o)
 .btmem.rf.dc   0x0000000000000000       0x48 ..\..\..\libs\wireless\libwireless_master.a(rf.o)
 .com_rodata.bb.tbl
                0x0000000000000000        0x8 ..\..\..\libs\wireless\libwireless_master.a(rf.o)
 .sbss          0x0000000000000000        0x1 ..\..\..\libs\wireless\libwireless_master.a(rf.o)
 .bss           0x0000000000000000        0x0 ..\..\..\libs\wireless\libwireless_master.a(rf_mate.o)
 .text.rf.vddvco.set
                0x0000000000000000       0x18 ..\..\..\libs\wireless\libwireless_master.a(rf_mate.o)
 .text.rf.vddvco.get
                0x0000000000000000        0xa ..\..\..\libs\wireless\libwireless_master.a(rf_mate.o)
 .text.rf.pll.set
                0x0000000000000000       0x12 ..\..\..\libs\wireless\libwireless_master.a(rf_mate.o)
 .data          0x0000000000000000        0x0 ..\..\..\libs\wireless\libwireless_master.a(vs.o)
 .bss           0x0000000000000000        0x0 ..\..\..\libs\wireless\libwireless_master.a(vs.o)
 .data          0x0000000000000000        0x0 ..\..\..\libs\wireless\libwireless_master.a(vs_proc.o)
 .bss           0x0000000000000000        0x0 ..\..\..\libs\wireless\libwireless_master.a(vs_proc.o)
 .data          0x0000000000000000        0x0 ..\..\..\libs\wireless\libwireless_master.a(wireless.o)
 .bss           0x0000000000000000        0x0 ..\..\..\libs\wireless\libwireless_master.a(wireless.o)
 .data          0x0000000000000000        0x0 ..\..\..\libs\wireless\libwireless_master.a(wireless_proc.o)
 .bss           0x0000000000000000        0x0 ..\..\..\libs\wireless\libwireless_master.a(wireless_proc.o)
 .data          0x0000000000000000        0x0 ..\..\..\libs\wireless\libwireless_master.a(extern.o)
 .bss           0x0000000000000000        0x0 ..\..\..\libs\wireless\libwireless_master.a(extern.o)
 .text.bsp.param
                0x0000000000000000        0x2 ..\..\..\libs\wireless\libwireless_master.a(extern.o)
 .com_sleep.sleep
                0x0000000000000000        0x2 ..\..\..\libs\wireless\libwireless_master.a(extern.o)
 .sdata         0x0000000000000000        0x4 ..\..\..\libs\wireless\libwireless_master.a(extern.o)
 .text          0x0000000000000000        0x0 ..\..\..\libs\wireless\libwireless_master.a(aes.o)
 .data          0x0000000000000000        0x0 ..\..\..\libs\wireless\libwireless_master.a(aes.o)
 .com_text.bb.isr
                0x0000000000000000       0x28 ..\..\..\libs\wireless\libwireless_master.a(aes.o)
 .text.bb.aes.ecpy
                0x0000000000000000       0xe8 ..\..\..\libs\wireless\libwireless_master.a(aes.o)
 .text          0x0000000000000000        0x0 ..\..\..\libs\wireless\libwireless_master.a(platform.o)
 .data          0x0000000000000000        0x0 ..\..\..\libs\wireless\libwireless_master.a(platform.o)
 .bss           0x0000000000000000        0x0 ..\..\..\libs\wireless\libwireless_master.a(platform.o)
 .com_text.bb.dbg.bt21
                0x0000000000000000        0x4 ..\..\..\libs\wireless\libwireless_master.a(platform.o)
 .text          0x0000000000000000        0x0 ..\..\..\libs\wireless\libwireless_master.a(bb_clk.o)
 .data          0x0000000000000000        0x0 ..\..\..\libs\wireless\libwireless_master.a(bb_clk.o)
 .bss           0x0000000000000000        0x0 ..\..\..\libs\wireless\libwireless_master.a(bb_clk.o)
 .text          0x0000000000000000        0x0 ..\..\..\libs\wireless\libwireless_master.a(bb_dbg.o)
 .data          0x0000000000000000        0x0 ..\..\..\libs\wireless\libwireless_master.a(bb_dbg.o)
 .bss           0x0000000000000000        0x0 ..\..\..\libs\wireless\libwireless_master.a(bb_dbg.o)
 .com_text.spi_init
                0x0000000000000000       0x60 ..\..\..\libs\wireless\libwireless_master.a(bb_dbg.o)
 .com_text.bb.putc
                0x0000000000000000       0x60 ..\..\..\libs\wireless\libwireless_master.a(bb_dbg.o)
 .data          0x0000000000000000        0x0 ..\..\..\libs\wireless\libwireless_master.a(patch.o)
 .bss           0x0000000000000000        0x0 ..\..\..\libs\wireless\libwireless_master.a(patch.o)
 .com_text.ble.isr.con.end
                0x0000000000000000       0x1a ..\..\..\libs\wireless\libwireless_master.a(patch.o)
 .text          0x0000000000000000        0x0 ..\..\..\libs\wireless\libwireless_master.a(patch_asm.o)
 .data          0x0000000000000000        0x0 ..\..\..\libs\wireless\libwireless_master.a(patch_asm.o)
 .bss           0x0000000000000000        0x0 ..\..\..\libs\wireless\libwireless_master.a(patch_asm.o)
 .com_text.bb.patch
                0x0000000000000000       0x1a ..\..\..\libs\wireless\libwireless_master.a(patch_asm.o)
 .data          0x0000000000000000        0x0 ..\..\..\libs\wireless\libwireless_master.a(bb_sche.o)
 .com_sleep.bb  0x0000000000000000        0xa ..\..\..\libs\wireless\libwireless_master.a(bb_sche.o)
 .data          0x0000000000000000        0x0 ..\..\..\libs\wireless\libwireless_master.a(nanos.o)
 .bss           0x0000000000000000        0x0 ..\..\..\libs\wireless\libwireless_master.a(nanos.o)
 .com_text.ret.bb
                0x0000000000000000        0x2 ..\..\..\libs\wireless\libwireless_master.a(nanos.o)
 .com_text.nanos.malloc
                0x0000000000000000        0xc ..\..\..\libs\wireless\libwireless_master.a(nanos.o)
 .com_text.nanos.free
                0x0000000000000000        0xa ..\..\..\libs\wireless\libwireless_master.a(nanos.o)
 .text          0x0000000000000000       0x3e ..\..\..\libs\wireless\libwireless_master.a(bb_utils.o)
 .data          0x0000000000000000        0x0 ..\..\..\libs\wireless\libwireless_master.a(bb_utils.o)
 .bss           0x0000000000000000        0x0 ..\..\..\libs\wireless\libwireless_master.a(bb_utils.o)
 .com_rodata.bb.tbl.r2m
                0x0000000000000000        0x4 ..\..\..\libs\wireless\libwireless_master.a(bb_utils.o)
 .com_rodata.bb.tbl.rate.dur
                0x0000000000000000        0x5 ..\..\..\libs\wireless\libwireless_master.a(bb_utils.o)
 .srodata       0x0000000000000000        0x5 ..\..\..\libs\wireless\libwireless_master.a(bb_utils.o)
 .data          0x0000000000000000        0x0 ..\..\..\libs\wireless\libwireless_master.a(ll_chmap_upd.o)
 .bss           0x0000000000000000        0x0 ..\..\..\libs\wireless\libwireless_master.a(ll_chmap_upd.o)
 .text          0x0000000000000000        0x0 ..\..\..\libs\wireless\libwireless_master.a(ll_clk_acc.o)
 .data          0x0000000000000000        0x0 ..\..\..\libs\wireless\libwireless_master.a(ll_clk_acc.o)
 .bss           0x0000000000000000        0x0 ..\..\..\libs\wireless\libwireless_master.a(ll_clk_acc.o)
 .data          0x0000000000000000        0x0 ..\..\..\libs\wireless\libwireless_master.a(ll_disconnect.o)
 .bss           0x0000000000000000        0x0 ..\..\..\libs\wireless\libwireless_master.a(ll_disconnect.o)
 .data          0x0000000000000000        0x0 ..\..\..\libs\wireless\libwireless_master.a(ll_scan.o)
 .bss           0x0000000000000000        0x0 ..\..\..\libs\wireless\libwireless_master.a(ll_scan.o)
 .data          0x0000000000000000        0x0 ..\..\..\libs\wireless\libwireless_master.a(mgr_hci.o)
 .bss           0x0000000000000000        0x0 ..\..\..\libs\wireless\libwireless_master.a(mgr_hci.o)
 .data          0x0000000000000000        0x0 ..\..\..\libs\wireless\libwireless_master.a(mgr_init.o)
 .bss           0x0000000000000000        0x0 ..\..\..\libs\wireless\libwireless_master.a(mgr_init.o)
 .data          0x0000000000000000        0x0 ..\..\..\libs\wireless\libwireless_master.a(scan_hook.o)
 .bss           0x0000000000000000        0x0 ..\..\..\libs\wireless\libwireless_master.a(scan_hook.o)
 .text          0x0000000000000000        0x0 ..\..\..\libs\wireless\libwireless_master.a(vs_fcc.o)
 .data          0x0000000000000000        0x0 ..\..\..\libs\wireless\libwireless_master.a(vs_fcc.o)
 .bss           0x0000000000000000        0x0 ..\..\..\libs\wireless\libwireless_master.a(vs_fcc.o)
 .data          0x0000000000000000        0x0 ..\..\..\libs\wireless\libwireless_master.a(thread.o)
 .bss           0x0000000000000000        0x0 ..\..\..\libs\wireless\libwireless_master.a(thread.o)

Memory Configuration

Name             Origin             Length             Attributes
init             0x0000000010000000 0x0000000000000200
flash            0x0000000010000200 0x000000000003e000 xr
stack            0x0000000000010800 0x0000000000000400
sram             0x0000000000010c00 0x0000000000005400
pdn_comm         0x0000000000010c00 0x0000000000000400
*default*        0x0000000000000000 0xffffffffffffffff

Linker script and memory map

LOAD Output\obj\driver\driver_clk.o
LOAD Output\obj\driver\driver_gpio.o
LOAD Output\obj\driver\driver_hsuart.o
LOAD Output\obj\driver\driver_keyscan.o
LOAD Output\obj\driver\driver_ledc.o
LOAD Output\obj\driver\driver_lowpwr.o
LOAD Output\obj\driver\driver_rtc.o
LOAD Output\obj\driver\driver_saradc.o
LOAD Output\obj\driver\driver_spi.o
LOAD Output\obj\driver\driver_tmr.o
LOAD Output\obj\driver\driver_uart.o
LOAD Output\obj\driver\driver_wdt.o
LOAD Output\obj\project\solution\wireless_remote_dongle\app\func.o
LOAD Output\obj\project\solution\wireless_remote_dongle\app\func_idle.o
LOAD Output\obj\project\solution\wireless_remote_dongle\app\func_iodm.o
LOAD Output\obj\project\solution\wireless_remote_dongle\app\func_lowpwr.o
LOAD Output\obj\project\solution\wireless_remote_dongle\app\func_wireless.o
LOAD Output\obj\project\solution\wireless_remote_dongle\bsp\bsp_huart_iodm.o
LOAD Output\obj\project\solution\wireless_remote_dongle\bsp\bsp_io_key.o
LOAD Output\obj\project\solution\wireless_remote_dongle\bsp\bsp_key.o
LOAD Output\obj\project\solution\wireless_remote_dongle\bsp\bsp_param.o
LOAD Output\obj\project\solution\wireless_remote_dongle\bsp\bsp_saradc.o
LOAD Output\obj\project\solution\wireless_remote_dongle\bsp\bsp_saradc_key.o
LOAD Output\obj\project\solution\wireless_remote_dongle\bsp\bsp_saradc_vbat.o
LOAD Output\obj\project\solution\wireless_remote_dongle\bsp\bsp_sys.o
LOAD Output\obj\project\solution\wireless_remote_dongle\bsp\bsp_uart_debug.o
LOAD Output\obj\project\solution\wireless_remote_dongle\main.o
LOAD Output\obj\project\solution\wireless_remote_dongle\modules\fota\fota_proc.o
LOAD Output\obj\project\solution\wireless_remote_dongle\modules\usb\src\usb_audio.o
LOAD Output\obj\project\solution\wireless_remote_dongle\modules\usb\src\usb_audio_desc.o
LOAD Output\obj\project\solution\wireless_remote_dongle\modules\usb\src\usb_com.o
LOAD Output\obj\project\solution\wireless_remote_dongle\modules\usb\src\usb_desc.o
LOAD Output\obj\project\solution\wireless_remote_dongle\modules\usb\src\usb_dev_enum.o
LOAD Output\obj\project\solution\wireless_remote_dongle\modules\usb\src\usb_hid.o
LOAD Output\obj\project\solution\wireless_remote_dongle\modules\usb\src\usb_hid_desc.o
LOAD Output\obj\project\solution\wireless_remote_dongle\modules\usb\src\usb_vendor.o
LOAD Output\obj\project\solution\wireless_remote_dongle\modules\usb\src\usb_vendor_desc.o
LOAD Output\obj\project\solution\wireless_remote_dongle\modules\usb\usr\usb_usr_audio.o
LOAD Output\obj\project\solution\wireless_remote_dongle\modules\usb\usr\usb_usr_hid.o
LOAD Output\obj\project\solution\wireless_remote_dongle\modules\usb\usr\usb_usr_vendor.o
LOAD Output\obj\project\solution\wireless_remote_dongle\modules\wireless\wireless_client.o
LOAD Output\obj\project\solution\wireless_remote_dongle\modules\wireless\wireless_init.o
LOAD Output\obj\project\solution\wireless_remote_dongle\prod_test\iodm\prod_test_iodm.o
LOAD Output\obj\project\solution\wireless_remote_dongle\prod_test\prod_test.o
LOAD Output\obj\project\solution\wireless_remote_dongle\strong_symbol.o
                0x000000000003e000                __max_flash_size = 0x3e000
                0x0000000010000000                __base = 0x10000000
                0x0000000000010600                __cache_stack_vma = 0x10600
                0x0000000000000200                __cache_stack_size = 0x200
                0x0000000000010800                __stack_vma = 0x10800
                0x0000000000000400                __stack_ram_size = 0x400
                0x0000000000010c00                __sram_vma = 0x10c00
                0x0000000000005400                __sram_ram_size = 0x5400
                0x0000000000014700                __comm_vma = __comm_start
                0x0000000000000400                __pdn_comm_ram_size = 0x400
                0x0000000000010c00                __pdn_comm_vma = __sram_vma

.init           0x0000000010000000       0x4e
 *(.reset)
 .reset         0x0000000010000000       0x4e ..\..\..\libs\cpu\libplatform.a(reset.o)
                0x0000000010000000                _start

.bss            0x0000000000010c00     0x3b00
                0x0000000000010c00                __bss_start = .
 *(.btmem.bthw)
 .btmem.bthw    0x0000000000010c00      0xad0 ..\..\..\libs\wireless\libwireless_master.a(bb.o)
                0x0000000000010c00                bthw_mem
 *(.btmem*)
 .btmem.alloc.bb.buf
                0x00000000000116d0      0x680 ..\..\..\libs\wireless\libwireless_master.a(bb.o)
 .btmem.bb.buf  0x0000000000011d50      0x53c ..\..\..\libs\wireless\libwireless_master.a(bb.o)
 .btmem.bb.rf   0x000000000001228c        0x3 ..\..\..\libs\wireless\libwireless_master.a(bb.o)
                0x000000000001228c                rf_api
 *fill*         0x000000000001228f        0x1 
 .btmem.bb.timer
                0x0000000000012290        0x8 ..\..\..\libs\wireless\libwireless_master.a(bb_alarm.o)
 .btmem.bb.env  0x0000000000012298       0x60 ..\..\..\libs\wireless\libwireless_master.a(bb_int.o)
                0x0000000000012298                bb_env
 .btmem.bb.ble.tbl
                0x00000000000122f8       0x10 ..\..\..\libs\wireless\libwireless_master.a(ble.o)
 .btmem.ble.buf
                0x0000000000012308       0x30 ..\..\..\libs\wireless\libwireless_master.a(ble_buf.o)
 .btmem.ble.con
                0x0000000000012338        0xc ..\..\..\libs\wireless\libwireless_master.a(ble_con.o)
                0x0000000000012338                ble_con_env
 .btmem.ble.hal
                0x0000000000012344      0x127 ..\..\..\libs\wireless\libwireless_master.a(ble_hal.o)
                0x0000000000012344                ble_env
                0x0000000000012460                ble_exp_sync_pos_tab
 *fill*         0x000000000001246b        0x1 
 .btmem.ble.init
                0x000000000001246c        0x4 ..\..\..\libs\wireless\libwireless_master.a(ble_init.o)
 .btmem.ble.scan
                0x0000000000012470        0x8 ..\..\..\libs\wireless\libwireless_master.a(ble_scan.o)
 .btmem.ble.test
                0x0000000000012478        0x4 ..\..\..\libs\wireless\libwireless_master.a(ble_test.o)
 .btmem.ble.lc  0x000000000001247c        0xc ..\..\..\libs\wireless\libwireless_master.a(ll.o)
                0x000000000001247c                ll_env
 .btmem.ble.lm  0x0000000000012488      0x194 ..\..\..\libs\wireless\libwireless_master.a(mgr.o)
                0x0000000000012488                mgr_env
 .btmem.bb.hci  0x000000000001261c        0x3 ..\..\..\libs\wireless\libwireless_master.a(hct.o)
                0x000000000001261c                hci_env
 *fill*         0x000000000001261f        0x1 
 .btmem.hct.env
                0x0000000000012620       0x50 ..\..\..\libs\wireless\libwireless_master.a(hct_proc.o)
 .btmem.bb.vs   0x0000000000012670        0xd ..\..\..\libs\wireless\libwireless_master.a(vs_proc.o)
                0x0000000000012670                vs_env
 *fill*         0x000000000001267d        0x3 
 .btmem.ble.hal
                0x0000000000012680        0x1 ..\..\..\libs\wireless\libwireless_master.a(wireless.o)
                0x0000000000012680                wl_env
 *fill*         0x0000000000012681        0x3 
 .btmem.bb.wl   0x0000000000012684        0xc ..\..\..\libs\wireless\libwireless_master.a(wireless_proc.o)
                0x0000000000012684                wl_con_env
 .btmem.bb.buf  0x0000000000012690       0x3c ..\..\..\libs\wireless\libwireless_master.a(nanos.o)
 *(.osmem*)
 .osmem         0x00000000000126cc      0xc48 Output\obj\project\solution\wireless_remote_dongle\strong_symbol.o
                0x00000000000126cc                mem_heap
 .osmem.bb.nanos
                0x0000000000013314      0x488 ..\..\..\libs\wireless\libwireless_master.a(thread.o)
 *(COMMON)
 COMMON         0x000000000001379c       0x37 Output\obj\project\solution\wireless_remote_dongle\bsp\bsp_sys.o
                0x000000000001379c                tmr5ms_cnt
                0x00000000000137a0                xcfg_cb
 *fill*         0x00000000000137d3        0x1 
 COMMON         0x00000000000137d4       0x12 Output\obj\project\solution\wireless_remote_dongle\modules\usb\src\usb_audio.o
                0x00000000000137d4                ep2_isoc_in
 *fill*         0x00000000000137e6        0x2 
 COMMON         0x00000000000137e8       0x28 Output\obj\project\solution\wireless_remote_dongle\modules\usb\src\usb_com.o
                0x00000000000137e8                ep_cb
                0x0000000000013808                usb_handler_cb
 COMMON         0x0000000000013810        0x4 Output\obj\project\solution\wireless_remote_dongle\modules\usb\src\usb_dev_enum.o
                0x0000000000013810                ude_cb
 COMMON         0x0000000000013814       0x20 Output\obj\project\solution\wireless_remote_dongle\modules\wireless\wireless_init.o
                0x0000000000013814                soft_timer_5ms_handle
                0x0000000000013818                alarm_timer_5ms_scan_pool
 COMMON         0x0000000000013834        0x1 Output\obj\project\solution\wireless_remote_dongle\strong_symbol.o
                0x0000000000013834                cfg_bt_rf_def_txpwr
 *(.bss*)
 *fill*         0x0000000000013835        0x3 
 .bss.periph.saradc
                0x0000000000013838       0x24 Output\obj\driver\driver_saradc.o
 .bss.usb_buf.hid
                0x000000000001385c        0x4 Output\obj\project\solution\wireless_remote_dongle\modules\usb\src\usb_hid.o
                0x000000000001385c                tick_resume_prevent
 .bss           0x0000000000013860      0x6ae Output\obj\project\solution\wireless_remote_dongle\modules\usb\usr\usb_usr_audio.o
 *fill*         0x0000000000013f0e        0x2 
 .bss           0x0000000000013f10       0x3c Output\obj\project\solution\wireless_remote_dongle\modules\usb\usr\usb_usr_hid.o
 .bss           0x0000000000013f4c      0x130 ..\..\..\libs\cpu\libplatform.a(cm.o)
                0x0000000000013f4c                cm
 .bss           0x000000000001407c       0x18 ..\..\..\libs\cpu\libplatform.a(main.o)
                0x000000000001407c                sys
 .bss.irq_tbl   0x0000000000014094       0x88 ..\..\..\libs\cpu\libplatform.a(interrupt.o)
 .bss.sys.timer
                0x000000000001411c        0x8 ..\..\..\libs\cpu\libplatform.a(interrupt.o)
 .bss.driver    0x0000000000014124        0x4 ..\..\..\libs\cpu\libplatform.a(startup.o)
                0x0000000000014124                pmq_driver
 .bss           0x0000000000014128       0x28 ..\..\..\libs\usb\libusb.a(usb_device_ep.o)
                0x0000000000014128                eps
 .bss.bb.timer  0x0000000000014150        0x1 ..\..\..\libs\wireless\libwireless_master.a(bb_alarm.o)
 *fill*         0x0000000000014151        0x3 
 .bss           0x0000000000014154       0x78 ..\..\..\libs\wireless\libwireless_master.a(ble_buf.o)
 .bss.hct.env   0x00000000000141cc       0x18 ..\..\..\libs\wireless\libwireless_master.a(hct_proc.o)
 .bss           0x00000000000141e4        0xc ..\..\..\libs\wireless\libwireless_master.a(aes.o)
                0x00000000000141e4                aes_env
 .bss           0x00000000000141f0      0x130 ..\..\..\libs\wireless\libwireless_master.a(bb_sche.o)
 *(.sbss*)
 .sbss          0x0000000000014320       0x10 Output\obj\project\solution\wireless_remote_dongle\modules\usb\usr\usb_usr_hid.o
 .sbss          0x0000000000014330        0x8 Output\obj\project\solution\wireless_remote_dongle\modules\wireless\wireless_client.o
 .sbss          0x0000000000014338        0x8 ..\..\..\libs\cpu\libplatform.a(os_flash.o)
                0x0000000000014338                spi_baud_w
                0x000000000001433c                spi_baud_r
 .sbss          0x0000000000014340       0x10 ..\..\..\libs\cpu\libplatform.a(adpcm.o)
                0x0000000000014348                adpcm_cb
 .sbss          0x0000000000014350       0x10 ..\..\..\libs\cpu\libplatform.a(startup.o)
                0x0000000000014350                soft_timer_isr_en
                0x0000000000014354                pmutex_clk
                0x0000000000014358                pmutex_cm
                0x000000000001435c                psem_btstack
 .sbss          0x0000000000014360        0x8 ..\..\..\libs\cpu\libplatform.a(thread_driver.o)
                0x0000000000014360                thread_driver_vs_enter_func
                0x0000000000014364                thread_driver_usb_enter_func
 .sbss          0x0000000000014368        0x8 ..\..\..\libs\cpu\libplatform.a(lock.o)
 .sbss          0x0000000000014370        0x8 ..\..\..\libs\cpu\libplatform.a(voltage_trim.o)
                0x0000000000014370                sys_trim
 .sbss          0x0000000000014378        0x1 ..\..\..\libs\cpu\libplatform.a(freq_det.o)
                0x0000000000014378                freq_det_kick
 *fill*         0x0000000000014379        0x3 
 .sbss          0x000000000001437c        0x8 ..\..\..\libs\usb\libusb.a(usb_comm.o)
                0x000000000001437c                p_usb_sof_hook
                0x0000000000014380                p_usb_handler_cb
 .sbss          0x0000000000014384        0x8 ..\..\..\libs\wireless\libwireless_master.a(wireless_api.o)
 .sbss          0x000000000001438c        0x1 ..\..\..\libs\wireless\libwireless_master.a(bb.o)
 *fill*         0x000000000001438d        0x3 
 .sbss          0x0000000000014390        0x8 ..\..\..\libs\wireless\libwireless_master.a(ble_buf.o)
 .sbss          0x0000000000014398        0x3 ..\..\..\libs\wireless\libwireless_master.a(ll_proc.o)
 *fill*         0x000000000001439b        0x1 
 .sbss          0x000000000001439c        0x2 ..\..\..\libs\wireless\libwireless_master.a(mgr_proc.o)
 *fill*         0x000000000001439e        0x2 
 .sbss          0x00000000000143a0        0x3 ..\..\..\libs\wireless\libwireless_master.a(hct_proc.o)
 *fill*         0x00000000000143a3        0x1 
 .sbss          0x00000000000143a4        0x3 ..\..\..\libs\wireless\libwireless_master.a(wireless_proc.o)
 *fill*         0x00000000000143a7        0x1 
 .sbss          0x00000000000143a8        0x8 ..\..\..\libs\wireless\libwireless_master.a(bb_sche.o)
                0x00000000000143a8                ss_params
 *(.buf*)
 .buf.func_cb   0x00000000000143b0        0x2 Output\obj\project\solution\wireless_remote_dongle\app\func.o
                0x00000000000143b0                func_cb
 *fill*         0x00000000000143b2        0x2 
 .buf.bsp.sys_cb
                0x00000000000143b4        0x8 Output\obj\project\solution\wireless_remote_dongle\bsp\bsp_sys.o
                0x00000000000143b4                sys_cb
 .buf.device.cb
                0x00000000000143bc        0xa ..\..\..\libs\cpu\libplatform.a(device.o)
                0x00000000000143bc                dev_cb
 *fill*         0x00000000000143c6        0x2 
 .buf.usbchk.cb
                0x00000000000143c8        0x2 ..\..\..\libs\usb\libusb.a(usb_detect.o)
                0x00000000000143c8                usbchk_cb
 *fill*         0x00000000000143ca        0x2 
 .buf.usb.ctrl  0x00000000000143cc       0x44 ..\..\..\libs\usb\libusb.a(usb_device_enum.o)
                0x00000000000143cc                ep0_buf
 *(.ble_cache*)
 *(.ble_buf*)
 *(.fot_data.*)
 *(.tbox.*)
 *(.notch_iir*)
 *(.prod_test*)
 *(.fcc.huart_buf)
 *(.hci.h3*)
 *(.usb_buf*)
 .usb_buf.usb   0x0000000000014410       0x24 Output\obj\project\solution\wireless_remote_dongle\modules\usb\src\usb_audio.o
                0x0000000000014410                uda_0
                0x000000000001441c                epcb2_tx
 .usb_buf.desc  0x0000000000014434       0x40 Output\obj\project\solution\wireless_remote_dongle\modules\usb\src\usb_desc.o
                0x0000000000014434                usb_str_desc_buf
 .usb_buf.device.desc.buf
                0x0000000000014474      0x100 Output\obj\project\solution\wireless_remote_dongle\modules\usb\src\usb_dev_enum.o
                0x0000000000014474                cfg_desc_buf
 .usb_buf.hid   0x0000000000014574       0x4b Output\obj\project\solution\wireless_remote_dongle\modules\usb\src\usb_hid.o
                0x0000000000014574                ep_hid_buf_in
                0x000000000001457c                ep_hid_buf_out
 *fill*         0x00000000000145bf        0x1 
 .usb_buf.usb   0x00000000000145c0       0x3c Output\obj\project\solution\wireless_remote_dongle\modules\usb\src\usb_hid.o
                0x00000000000145c0                udh_0
                0x00000000000145cc                ep_hid_tx
                0x00000000000145e4                ep_hid_rx
 .usb_buf.usb   0x00000000000145fc       0x24 ..\..\..\libs\usb\libusb.a(usb_device_enum.o)
                0x00000000000145fc                ude_0
                0x0000000000014700                . = ALIGN (0x100)
 *fill*         0x0000000000014620       0xe0 
                0x0000000000014700                __bss_end = .
                0x0000000000003b00                __bss_size = (__bss_end - __bss_start)

.comm           0x0000000000014700     0x1700 load address 0x0000000010000200
                0x0000000000014700                __comm_start = .
 *(.vector)
 .vector        0x0000000000014700       0xc8 ..\..\..\libs\cpu\libplatform.a(reset.o)
                0x00000000000147a0                _exception_isr
                0x00000000000147a2                nop_isr
 *(.com_text*)
 .com_text.sleep_tick
                0x00000000000147c8        0x2 Output\obj\project\solution\wireless_remote_dongle\app\func_lowpwr.o
                0x00000000000147c8                lowpwr_tout_ticks
 .com_text.dev.detect
                0x00000000000147ca       0x2c Output\obj\project\solution\wireless_remote_dongle\bsp\bsp_sys.o
                0x00000000000147ca                usb_detect
 .com_text.timer
                0x00000000000147f6       0x50 Output\obj\project\solution\wireless_remote_dongle\bsp\bsp_sys.o
                0x00000000000147f6                usr_tmr5ms_callback
 .com_text.isr.sof
                0x0000000000014846        0x8 Output\obj\project\solution\wireless_remote_dongle\modules\usb\src\usb_com.o
                0x0000000000014846                usb_sof_callback
 .com_text.thread.driver
                0x000000000001484e       0x32 Output\obj\project\solution\wireless_remote_dongle\modules\usb\src\usb_com.o
                0x000000000001484e                thread_driver_event_handle
 .com_text.isr.suspend
                0x0000000000014880       0x28 Output\obj\project\solution\wireless_remote_dongle\modules\usb\src\usb_hid.o
                0x0000000000014880                usb_hid_suspend_callback
 .com_text.usb.kick
                0x00000000000148a8       0x6a Output\obj\project\solution\wireless_remote_dongle\modules\usb\src\usb_hid.o
                0x00000000000148a8                usb_hid_in_callback
 .com_text.usb.uac.dec
                0x0000000000014912       0x46 Output\obj\project\solution\wireless_remote_dongle\modules\usb\usr\usb_usr_audio.o
                0x0000000000014912                usb_usr_audio_mic_decode
 .com_text.usb.uac.stream
                0x0000000000014958       0x28 Output\obj\project\solution\wireless_remote_dongle\modules\usb\usr\usb_usr_audio.o
                0x0000000000014958                usb_usr_audio_mic_write
 .com_text.usb.hid.queue
                0x0000000000014980       0x50 Output\obj\project\solution\wireless_remote_dongle\modules\usb\usr\usb_usr_hid.o
 .com_text.usb.hid.in
                0x00000000000149d0       0x38 Output\obj\project\solution\wireless_remote_dongle\modules\usb\usr\usb_usr_hid.o
 .com_text.usb.hid.data.keyboard
                0x0000000000014a08       0x6c Output\obj\project\solution\wireless_remote_dongle\modules\usb\usr\usb_usr_hid.o
                0x0000000000014a08                usb_usr_hid_keyboard_write
 .com_text.wireless.transmit
                0x0000000000014a74       0x54 Output\obj\project\solution\wireless_remote_dongle\modules\wireless\wireless_client.o
 .com_text.timer
                0x0000000000014ac8        0x2 Output\obj\project\solution\wireless_remote_dongle\modules\wireless\wireless_init.o
                0x0000000000014ac8                alarm_timer_5ms_callback
 .com_text.spiflash
                0x0000000000014aca       0x34 Output\obj\project\solution\wireless_remote_dongle\strong_symbol.o
                0x0000000000014aca                os_spiflash_addr_check
 .com_text.spiflash
                0x0000000000014afe       0x5e ..\..\..\libs\cpu\libplatform.a(os_flash.o)
                0x0000000000014b02                os_spiflash_program_do
                0x0000000000014b14                os_spiflash_program
                0x0000000000014b36                os_spiflash_erase_do
                0x0000000000014b48                os_spiflash_erase
 .com_text.adpcm.dec
                0x0000000000014b5c      0x108 ..\..\..\libs\cpu\libplatform.a(adpcm.o)
                0x0000000000014bf0                adpcm_decode_block_proc
                0x0000000000014c5c                adpcm_decode_block
                0x0000000000014c60                adpcm_decode_block_big
 .com_text.device
                0x0000000000014c64       0xf2 ..\..\..\libs\cpu\libplatform.a(device.o)
                0x0000000000014c64                dev_is_online
                0x0000000000014c72                dev_online_filter
                0x0000000000014cea                dev_offline_filter
 .com_text.delay
                0x0000000000014d56       0x54 ..\..\..\libs\cpu\libplatform.a(main.o)
                0x0000000000014d56                delay_5ms
                0x0000000000014d70                delay_ms
                0x0000000000014d88                delay_us
                0x0000000000014da0                delay
 .com_text.irq  0x0000000000014daa       0x70 ..\..\..\libs\cpu\libplatform.a(interrupt.o)
                0x0000000000014daa                tick0_isr
                0x0000000000014e00                tick_get
                0x0000000000014e08                tick_check_expire
 .com_text.thread.driver.usb
                0x0000000000014e1a       0x42 ..\..\..\libs\cpu\libplatform.a(thread_driver.o)
                0x0000000000014e1a                thread_driver_usb_msg_post
 .com_text.thread.driver.vs
                0x0000000000014e5c       0x42 ..\..\..\libs\cpu\libplatform.a(thread_driver.o)
                0x0000000000014e5c                thread_driver_user_msg_post
 .com_text.thread.driver.enter
                0x0000000000014e9e       0x52 ..\..\..\libs\cpu\libplatform.a(thread_driver.o)
                0x0000000000014e9e                thread_driver_entry
 .com_text.trim.lvd_set
                0x0000000000014ef0       0x3e ..\..\..\libs\cpu\libplatform.a(pmu.o)
                0x0000000000014ef0                pmu_set_lvd
                0x0000000000014f1c                pmu_set_vbg
 .com_text.exception
                0x0000000000014f2e        0xa ..\..\..\libs\cpu\libplatform.a(debug.o)
                0x0000000000014f2e                exception_isr
 .com_text.exception.hook
                0x0000000000014f38        0x4 ..\..\..\libs\cpu\libplatform.a(debug.o)
                0x0000000000014f38                sys_error_hook
 .com_text.sys  0x0000000000014f3c        0x2 ..\..\..\libs\cpu\libplatform.a(s_sys.o)
                0x0000000000014f3c                dummy_func
 .com_text.timer
                0x0000000000014f3e        0x4 ..\..\..\libs\cpu\libplatform.a(weak_symbol.o)
                0x0000000000014f40                usr_tmr1ms_isr_callback
 .com_text.isr  0x0000000000014f42        0x2 ..\..\..\libs\cpu\libplatform.a(weak_symbol.o)
                0x0000000000014f42                bt_timer_isr
 .com_text.thread.driver.usb
                0x0000000000014f44       0x54 ..\..\..\libs\usb\libusb.a(usb_comm.o)
                0x0000000000014f44                thread_driver_usb_event_callback
 .com_text.usbdev.com
                0x0000000000014f98       0x20 ..\..\..\libs\usb\libusb.a(usb_comm.o)
                0x0000000000014f98                usb_interrupt_disable
 .com_text.irq  0x0000000000014fb8        0xc ..\..\..\libs\usb\libusb.a(usb_comm.o)
                0x0000000000014fb8                usb_isr
 .com_text.usb.dect.otg_dev
                0x0000000000014fc4       0x12 ..\..\..\libs\usb\libusb.a(usb_detect.o)
                0x0000000000014fc4                usbchk_switch_otg_device
 .com_text.usb.dect.dev
                0x0000000000014fd6       0x12 ..\..\..\libs\usb\libusb.a(usb_detect.o)
                0x0000000000014fd6                usbchk_only_device
 .com_text.usb.dect.pc
                0x0000000000014fe8       0x10 ..\..\..\libs\usb\libusb.a(usb_detect.o)
                0x0000000000014fe8                usbchk_host_connect
 .com_text.irq  0x0000000000014ff8        0x8 ..\..\..\libs\usb\libusb.a(usb_device_run_loop.o)
                0x0000000000014ff8                usb_dev_isr
 .com_text.wl.isr.con
                0x0000000000015000      0x142 ..\..\..\libs\wireless\libwireless_master.a(wireless_api.o)
                0x0000000000015016                wireless_event_emit
                0x0000000000015022                wireless_receive_data_emit
                0x000000000001503a                wireless_send_for_con
 .com_text.wl.api
                0x0000000000015142       0x30 ..\..\..\libs\wireless\libwireless_master.a(wireless_api.o)
                0x0000000000015142                wireless_rxbuf_release
 .com_text.bb.run_loop
                0x0000000000015172       0x30 ..\..\..\libs\wireless\libwireless_master.a(bb.o)
                0x0000000000015172                bb_run_loop
 .com_text.bb.isr.timer
                0x00000000000151a2       0x50 ..\..\..\libs\wireless\libwireless_master.a(bb_alarm.o)
 .com_text.bb.timer.check
                0x00000000000151f2       0x1e ..\..\..\libs\wireless\libwireless_master.a(bb_alarm.o)
                0x00000000000151f2                bb_timer_queue_check
 .com_text.bb.timer.push
                0x0000000000015210       0x64 ..\..\..\libs\wireless\libwireless_master.a(bb_alarm.o)
                0x0000000000015210                bb_timer_queue_release
                0x000000000001523e                bb_timer_queue_free
 .com_text.bb.isr
                0x0000000000015274       0x7c ..\..\..\libs\wireless\libwireless_master.a(bb_int.o)
                0x00000000000152a6                bb_isr
                0x00000000000152e4                bb_hal_isr
 .com_text.bb.isr
                0x00000000000152f0       0x34 ..\..\..\libs\wireless\libwireless_master.a(ble.o)
                0x00000000000152f0                ble_isr
 .com_text.bb.buf
                0x0000000000015324       0xbc ..\..\..\libs\wireless\libwireless_master.a(ble_buf.o)
                0x0000000000015324                ble_buf_acl_tx_alloc
                0x000000000001536e                ble_buf_acl_tx_free_do
                0x0000000000015380                ble_buf_acl_tx_free
 .com_text.bb.patch
                0x00000000000153e0       0x24 ..\..\..\libs\wireless\libwireless_master.a(ble_buf.o)
                0x00000000000153e0                bb_patch1
                0x00000000000153e2                bb_patch3
 .com_text.ble.isr.con
                0x0000000000015404      0x1f8 ..\..\..\libs\wireless\libwireless_master.a(ble_con.o)
                0x0000000000015422                ble_con_tx_len_update_fix_cb
                0x000000000001550a                ble_con_evt_time_update_fix_cb
 .com_text.ble.isr.con.end
                0x00000000000155fc       0x9a ..\..\..\libs\wireless\libwireless_master.a(ble_con.o)
                0x00000000000155fc                ble_con_rx_end
 .com_text.ble.isr.con.rx_desc
                0x0000000000015696        0x2 ..\..\..\libs\wireless\libwireless_master.a(ble_con.o)
                0x0000000000015696                ble_con_rx_desc
 .com_text.ble.init
                0x0000000000015698      0x23e ..\..\..\libs\wireless\libwireless_master.a(ble_init.o)
                0x0000000000015698                ble_init_process_pkt_tx_fix_cb
 .com_text.bb.buf
                0x00000000000158d6       0x24 ..\..\..\libs\wireless\libwireless_master.a(hct_proc.o)
                0x00000000000158d6                hct_block_is_reserved
 .com_text.ble.isr
                0x00000000000158fa       0xac ..\..\..\libs\wireless\libwireless_master.a(ble_hook.o)
                0x00000000000158fa                ble_isr_hook
 .com_text.bb.isr.rssi
                0x00000000000159a6        0xa ..\..\..\libs\wireless\libwireless_master.a(rf.o)
                0x00000000000159a6                rf_rssi_calc_dbm
 .com_text.bb.rf
                0x00000000000159b0       0x26 ..\..\..\libs\wireless\libwireless_master.a(rf.o)
                0x00000000000159b0                rf_hal_init
 .com_text.wl.isr.con
                0x00000000000159d6       0x60 ..\..\..\libs\wireless\libwireless_master.a(wireless_proc.o)
 .com_text.ble.phy
                0x0000000000015a36        0x4 ..\..\..\libs\wireless\libwireless_master.a(extern.o)
                0x0000000000015a36                ble_phy_2M_enable
 .com_text.bb.dbg.ble
                0x0000000000015a3a        0x4 ..\..\..\libs\wireless\libwireless_master.a(platform.o)
                0x0000000000015a3a                bb_ll_tx_cb
                0x0000000000015a3c                bb_ll_rx_cb
 .com_text.bb.utils.dummy
                0x0000000000015a3e        0x6 ..\..\..\libs\wireless\libwireless_master.a(platform.o)
                0x0000000000015a3e                dummy_void
                0x0000000000015a40                dummy_false
 .com_text.bb.isr
                0x0000000000015a44        0xe ..\..\..\libs\wireless\libwireless_master.a(bb_clk.o)
                0x0000000000015a44                bb_lpcycles_2_hus_hook
 .com_text.bb.patch.trc
                0x0000000000015a52       0x1e ..\..\..\libs\wireless\libwireless_master.a(patch_asm.o)
                0x0000000000015a52                ll_cntl_tx_check_fix_cb
 .com_text.bb.frag
                0x0000000000015a70       0x2a ..\..\..\libs\wireless\libwireless_master.a(bb_sche.o)
 .com_text.bb.prog
                0x0000000000015a9a       0x30 ..\..\..\libs\wireless\libwireless_master.a(bb_sche.o)
 .com_text.md.nanos
                0x0000000000015aca       0x14 ..\..\..\libs\wireless\libwireless_master.a(nanos.o)
                0x0000000000015aca                nanos_event_set
 .com_text.bb.nanos.loop
                0x0000000000015ade       0x1c ..\..\..\libs\wireless\libwireless_master.a(thread.o)
 .com_text.bb.nanos.trigger
                0x0000000000015afa       0x10 ..\..\..\libs\wireless\libwireless_master.a(thread.o)
                0x0000000000015afa                thread_nanos_task_trigger
 *(.com_rodata*)
 *fill*         0x0000000000015b0a        0x2 
 .com_rodata.epsize.table
                0x0000000000015b0c        0x4 ..\..\..\libs\usb\libusb.a(usb_device_ep.o)
                0x0000000000015b0c                epsize_tbl
 .com_rodata.bb.tbl
                0x0000000000015b10       0x16 ..\..\..\libs\wireless\libwireless_master.a(bb.o)
                0x0000000000015b10                bb_priority
 *fill*         0x0000000000015b26        0x2 
 .com_rodata.bb.err
                0x0000000000015b28        0xd ..\..\..\libs\wireless\libwireless_master.a(bb_int.o)
                0x0000000000015b28                str_bb_err
 *fill*         0x0000000000015b35        0x3 
 .com_rodata.bb.err
                0x0000000000015b38        0xf ..\..\..\libs\wireless\libwireless_master.a(ble.o)
                0x0000000000015b38                str_ble_err
 *fill*         0x0000000000015b47        0x1 
 .com_rodata.bb.tbl
                0x0000000000015b48       0x18 ..\..\..\libs\wireless\libwireless_master.a(ble_buf.o)
 .com_rodata.bb.tbl
                0x0000000000015b60       0x10 ..\..\..\libs\wireless\libwireless_master.a(ble_con.o)
                0x0000000000015b60                fixed_tx_time
                0x0000000000015b68                byte_tx_time
 .com_rodata.bb.tbl
                0x0000000000015b70        0xc ..\..\..\libs\wireless\libwireless_master.a(ll_proc.o)
                0x0000000000015b70                ll_msg_env
 .com_rodata.bb.tbl
                0x0000000000015b7c        0xc ..\..\..\libs\wireless\libwireless_master.a(mgr_proc.o)
                0x0000000000015b7c                mgr_msg_env
 .com_rodata.bb.tbl
                0x0000000000015b88        0xc ..\..\..\libs\wireless\libwireless_master.a(hct_proc.o)
 .com_rodata.bb.tbl
                0x0000000000015b94        0xc ..\..\..\libs\wireless\libwireless_master.a(vs_proc.o)
                0x0000000000015b94                vs_msg_env
 .com_rodata.bb.tbl
                0x0000000000015ba0        0xc ..\..\..\libs\wireless\libwireless_master.a(wireless_proc.o)
                0x0000000000015ba0                wl_msg_env
 .com_rodata.bb.tbl
                0x0000000000015bac       0x10 ..\..\..\libs\wireless\libwireless_master.a(bb_utils.o)
                0x0000000000015bac                bb_sca2ppm
 .com_rodata.bb.tbl.bits
                0x0000000000015bbc       0x10 ..\..\..\libs\wireless\libwireless_master.a(bb_utils.o)
                0x0000000000015bbc                one_bits
 .com_rodata.bb.tbl.i2m
                0x0000000000015bcc        0x4 ..\..\..\libs\wireless\libwireless_master.a(bb_utils.o)
                0x0000000000015bcc                bb_phy_value_to_mask
 .com_rodata.bb.tbl.phy.i2r
                0x0000000000015bd0        0x4 ..\..\..\libs\wireless\libwireless_master.a(bb_utils.o)
                0x0000000000015bd0                bb_phy_to_rate
 .com_rodata.bb.tbl.phy.m2i
                0x0000000000015bd4        0x5 ..\..\..\libs\wireless\libwireless_master.a(bb_utils.o)
                0x0000000000015bd4                bb_phy_mask_to_value
 *fill*         0x0000000000015bd9        0x3 
 .com_rodata.bb.tbl.phy.r2i
                0x0000000000015bdc        0x5 ..\..\..\libs\wireless\libwireless_master.a(bb_utils.o)
                0x0000000000015bdc                bb_rate_to_phy
 *debug.o(.rodata*)
 *(.com_periph.*)
 *(.data*)
 *fill*         0x0000000000015be1        0x3 
 .data          0x0000000000015be4       0x18 Output\obj\project\solution\wireless_remote_dongle\modules\usb\usr\usb_usr_audio.o
                0x0000000000015be4                usb_usr_audio_cb
 .data          0x0000000000015bfc       0x1c Output\obj\project\solution\wireless_remote_dongle\modules\usb\usr\usb_usr_hid.o
                0x0000000000015bfc                usb_usr_hid_cb
 .data          0x0000000000015c18       0x28 ..\..\..\libs\wireless\libwireless_master.a(rf_mate.o)
                0x0000000000015c24                rf_init_cb
 *(.sdata*)
 .sdata         0x0000000000015c40        0x2 Output\obj\project\solution\wireless_remote_dongle\strong_symbol.o
                0x0000000000015c40                cfg_bt_work_mode
                0x0000000000015c41                cfg_spiflash_speed_up_en
 *fill*         0x0000000000015c42        0x2 
 .sdata         0x0000000000015c44        0x4 ..\..\..\libs\cpu\libplatform.a(debug.o)
                0x0000000000015c44                cpu_gprs
 .sdata         0x0000000000015c48        0x1 ..\..\..\libs\wireless\libwireless_master.a(rf_mate.o)
                0x0000000000015e00                . = ALIGN (0x200)
 *fill*         0x0000000000015c49      0x1b7 
                0x0000000000015e00                __comm_end = .
                0x0000000000001700                __comm_size = (__comm_end - __comm_start)

.pdn_comm       0x0000000000010c00      0x200 load address 0x0000000010001900
 *(.com_pwroff*)
 .com_pwroff.mode2
                0x0000000000010c00      0x188 Output\obj\driver\driver_lowpwr.o
                0x0000000000010c00                pwroff_mode2_final
                0x0000000000010c9a                lowpwr_pwroff_mode2_do
                0x0000000000010e00                . = ALIGN (0x200)
 *fill*         0x0000000000010d88       0x78 

.flash          0x0000000010001c00     0xf200
                0x0000000010001c00                __code_start_app_proc = .
 *(.text.app.proc.*)
 .text.app.proc.func
                0x0000000010001c00       0x14 Output\obj\project\solution\wireless_remote_dongle\app\func.o
                0x0000000010001c00                func_process
 .text.app.proc.test
                0x0000000010001c14        0x2 Output\obj\project\solution\wireless_remote_dongle\prod_test\prod_test.o
                0x0000000010001c14                prod_test_process
                0x0000000010001e00                . = ALIGN (0x200)
 *fill*         0x0000000010001c16      0x1ea 
                0x0000000010001e00                __code_end_app_proc = .
                0x0000000010001e00                __code_start_stack_send = .
 *(.text.stack.send.*)
 .text.stack.send.acl
                0x0000000010001e00       0xe2 ..\..\..\libs\wireless\libwireless_master.a(ll_proc.o)
                0x0000000010001e00                hci_acl_data_func
                0x0000000010002000                . = ALIGN (0x200)
 *fill*         0x0000000010001ee2      0x11e 
                0x0000000010002000                __code_end_stack_send = .
                0x0000000010002000                __code_start_sleep_send = .
 *(.com_sleep*)
 .com_sleep.rf.txpwr
                0x0000000010002000       0x1a Output\obj\project\solution\wireless_remote_dongle\strong_symbol.o
                0x0000000010002000                bt_rf_get_tx_pwr
 .com_sleep.rfphy
                0x000000001000201a       0xf0 ..\..\..\libs\wireless\libwireless_master.a(rf_mate.o)
                0x0000000010002096                rfphy_txrx_init
 .com_sleep.rfphy.init
                0x000000001000210a       0x6a ..\..\..\libs\wireless\libwireless_master.a(rf_mate.o)
                0x000000001000210a                rfphy_init
 .com_sleep.rf  0x0000000010002174       0x36 ..\..\..\libs\wireless\libwireless_master.a(rf_mate.o)
                0x0000000010002174                modem_init
 .com_sleep.bb.putc
                0x00000000100021aa        0x2 ..\..\..\libs\wireless\libwireless_master.a(bb_dbg.o)
                0x00000000100021aa                bb_dbg_init
                0x0000000010002200                . = ALIGN (0x200)
 *fill*         0x00000000100021ac       0x54 
                0x0000000010002200                __code_end_sleep_send = .
                0x0000000010002200                __code_start_usbdev = .
 *(.usbdev*)
 .usbdev.com    0x0000000010002200      0x170 Output\obj\project\solution\wireless_remote_dongle\modules\usb\src\usb_audio.o
                0x0000000010002200                ude_isoc_tx_process
                0x000000001000224a                uda_set_isocin_flag
                0x0000000010002252                uda_get_isocin_flag
                0x000000001000225a                uda_get_mic_mute
                0x000000001000227a                uda_set_mic_mute
                0x0000000010002292                uda_set_mic_volume
                0x00000000100022a6                uda_get_mic_volume
                0x000000001000230c                usb_isoc_ep_reset
                0x000000001000231e                uda_run_loop_execute
 *fill*         0x0000000010002370        0x0 
 .usbdev.com.table
                0x0000000010002370        0x3 Output\obj\project\solution\wireless_remote_dongle\modules\usb\src\usb_audio.o
 *fill*         0x0000000010002373        0x1 
 .usbdev.com    0x0000000010002374       0xe8 Output\obj\project\solution\wireless_remote_dongle\modules\usb\src\usb_com.o
                0x0000000010002374                usb_event_callback
                0x000000001000244e                usb_device_process
 .usbdev.com    0x000000001000245c      0x4b0 Output\obj\project\solution\wireless_remote_dongle\modules\usb\src\usb_dev_enum.o
                0x000000001000245c                get_config_descriptor
                0x0000000010002602                usb_ep0_ctl_callback
 .usbdev.com    0x000000001000290c       0x44 Output\obj\project\solution\wireless_remote_dongle\modules\usb\src\usb_hid.o
                0x000000001000290c                ude_hid_rx_process
                0x000000001000293a                usb_hid_sof_isr
                0x0000000010002948                ude_hid_tx_process
 *fill*         0x0000000010002950        0x0 
 .usbdev.com.table
                0x0000000010002950       0x20 Output\obj\project\solution\wireless_remote_dongle\modules\usb\src\usb_hid_desc.o
                0x0000000010002950                desc_config_hid
 .usbdev.com    0x0000000010002970       0x12 ..\..\..\libs\usb\libusb.a(usb_comm.o)
                0x0000000010002970                usb_flush_fifo0
 .usbdev.com    0x0000000010002982      0x274 ..\..\..\libs\usb\libusb.a(usb_device_enum.o)
                0x00000000100029ec                usb_ep0_transfer
                0x00000000100029fa                get_setup
                0x0000000010002a12                ude_ep_reset
                0x0000000010002a62                ude_control_flow
 .usbdev.com.ep.cur_set
                0x0000000010002bf6       0x18 ..\..\..\libs\usb\libusb.a(usb_device_ep.o)
                0x0000000010002bf6                usb_set_cur_ep
 .usbdev.co.ep.halt
                0x0000000010002c0e       0x4e ..\..\..\libs\usb\libusb.a(usb_device_ep.o)
                0x0000000010002c0e                usb_ep_halt
 .usbdev.com.ep.tx
                0x0000000010002c5c       0xc2 ..\..\..\libs\usb\libusb.a(usb_device_ep.o)
                0x0000000010002c5c                usb_ep_transfer
 .usbdev.com    0x0000000010002d1e       0xde ..\..\..\libs\usb\libusb.a(usb_device_run_loop.o)
                0x0000000010002d1e                ude_run_loop_execute
                0x0000000010002e00                . = ALIGN (0x200)
 *fill*         0x0000000010002dfc        0x4 
                0x0000000010002e00                __code_end_usbdev = .
 *(.text*)
 .text.clk_gate0_cmd
                0x0000000010002e00       0x16 Output\obj\driver\driver_clk.o
                0x0000000010002e00                clk_gate0_cmd
 .text.clk_uart_clk_set
                0x0000000010002e16       0x16 Output\obj\driver\driver_clk.o
                0x0000000010002e16                clk_uart_clk_set
 .text.clk_uart_clk_get
                0x0000000010002e2c       0x32 Output\obj\driver\driver_clk.o
                0x0000000010002e2c                clk_uart_clk_get
 .text.gpio_init
                0x0000000010002e5e      0x122 Output\obj\driver\driver_gpio.o
                0x0000000010002e5e                gpio_init
 .text.gpio_func_mapping_config
                0x0000000010002f80       0xac Output\obj\driver\driver_gpio.o
                0x0000000010002f80                gpio_func_mapping_config
 .text.wko_io_config
                0x000000001000302c       0x3e Output\obj\driver\driver_gpio.o
                0x000000001000302c                wko_io_config
 .text.wk0_edge_capture_config
                0x000000001000306a       0x60 Output\obj\driver\driver_gpio.o
                0x000000001000306a                wk0_edge_capture_config
 .text.gpio_edge_capture_config
                0x00000000100030ca       0xd4 Output\obj\driver\driver_gpio.o
                0x00000000100030ca                gpio_edge_capture_config
 .text.lowpwr_get_wakeup_source
                0x000000001000319e       0x80 Output\obj\driver\driver_lowpwr.o
                0x000000001000319e                lowpwr_get_wakeup_source
 .text.lowpwr_wakeup_disable
                0x000000001000321e       0x38 Output\obj\driver\driver_lowpwr.o
                0x000000001000321e                lowpwr_wakeup_disable
 .text.lowpwr_wk0_wakeup_config
                0x0000000010003256       0x72 Output\obj\driver\driver_lowpwr.o
                0x0000000010003256                lowpwr_wk0_wakeup_config
 .text.lowpwr_gpio_wakeup_config
                0x00000000100032c8       0x3c Output\obj\driver\driver_lowpwr.o
                0x00000000100032c8                lowpwr_gpio_wakeup_config
 .text.lowpwr_wakeup_config
                0x0000000010003304       0xd8 Output\obj\driver\driver_lowpwr.o
                0x0000000010003304                lowpwr_wakeup_config
 .text.saradc_deinit
                0x00000000100033dc       0xca Output\obj\driver\driver_saradc.o
                0x00000000100033dc                saradc_deinit
 .text.uart_init
                0x00000000100034a6       0x46 Output\obj\driver\driver_uart.o
                0x00000000100034a6                uart_init
 .text.uart_cmd
                0x00000000100034ec       0x10 Output\obj\driver\driver_uart.o
                0x00000000100034ec                uart_cmd
 .text.uart_baud_config
                0x00000000100034fc       0x36 Output\obj\driver\driver_uart.o
                0x00000000100034fc                uart_baud_config
 .text.func.msg
                0x0000000010003532       0x4a Output\obj\project\solution\wireless_remote_dongle\app\func.o
                0x0000000010003532                func_message
 .text.func     0x000000001000357c       0x54 Output\obj\project\solution\wireless_remote_dongle\app\func.o
                0x000000001000357c                func_enter
                0x000000001000357e                func_exit
                0x0000000010003588                func_run
 .text.func.idle
                0x00000000100035d0       0x40 Output\obj\project\solution\wireless_remote_dongle\app\func_idle.o
                0x00000000100035d0                func_idle_process
                0x00000000100035d4                func_idle
 .text.lowpwr_pwroff_wakeup_config
                0x0000000010003610       0x1e Output\obj\project\solution\wireless_remote_dongle\app\func_lowpwr.o
                0x0000000010003610                lowpwr_pwroff_wakeup_config
 .text.lowpwr.pwroff
                0x000000001000362e       0x44 Output\obj\project\solution\wireless_remote_dongle\app\func_lowpwr.o
                0x000000001000362e                func_pwroff
 .text.func.wireless
                0x0000000010003672       0x58 Output\obj\project\solution\wireless_remote_dongle\app\func_wireless.o
                0x0000000010003672                func_wireless
 .text.bsp.param
                0x00000000100036ca       0x18 Output\obj\project\solution\wireless_remote_dongle\bsp\bsp_param.o
                0x00000000100036ca                bsp_param_init
                0x00000000100036d6                bsp_param_write
                0x00000000100036da                bsp_param_read
                0x00000000100036de                bsp_param_sync
 .text.sys_ram_info_dump
                0x00000000100036e2       0x50 Output\obj\project\solution\wireless_remote_dongle\bsp\bsp_sys.o
                0x00000000100036e2                sys_ram_info_dump
 .text.bsp.sys.init
                0x0000000010003732       0xb8 Output\obj\project\solution\wireless_remote_dongle\bsp\bsp_sys.o
                0x0000000010003732                bsp_sys_init
 .text.bsp_uart_debug_init
                0x00000000100037ea       0x84 Output\obj\project\solution\wireless_remote_dongle\bsp\bsp_uart_debug.o
                0x00000000100037ea                bsp_uart_debug_init
 .text.startup.main
                0x000000001000386e       0x56 Output\obj\project\solution\wireless_remote_dongle\main.o
                0x000000001000386e                main
 .text.uda_exit
                0x00000000100038c4       0x18 Output\obj\project\solution\wireless_remote_dongle\modules\usb\src\usb_audio.o
                0x00000000100038c4                uda_exit
 .text.uda_init
                0x00000000100038dc       0xc0 Output\obj\project\solution\wireless_remote_dongle\modules\usb\src\usb_audio.o
                0x00000000100038dc                uda_init
 .text.usb_audio_init
                0x000000001000399c        0x2 Output\obj\project\solution\wireless_remote_dongle\modules\usb\src\usb_audio.o
                0x000000001000399c                usb_audio_init
 .text.usb_audio_deinit
                0x000000001000399e        0x8 Output\obj\project\solution\wireless_remote_dongle\modules\usb\src\usb_audio.o
                0x000000001000399e                usb_audio_deinit
 .text.usb_audio_process
                0x00000000100039a6        0x4 Output\obj\project\solution\wireless_remote_dongle\modules\usb\src\usb_audio.o
                0x00000000100039a6                usb_audio_process
 .text.usb_audio_itf_header_desc_get
                0x00000000100039aa       0x12 Output\obj\project\solution\wireless_remote_dongle\modules\usb\src\usb_audio_desc.o
                0x00000000100039aa                usb_audio_itf_header_desc_get
 .text.usb_audio_itf_mic_stream_desc_get
                0x00000000100039bc       0x12 Output\obj\project\solution\wireless_remote_dongle\modules\usb\src\usb_audio_desc.o
                0x00000000100039bc                usb_audio_itf_mic_stream_desc_get
 .text.usb_ep_init_handler
                0x00000000100039ce       0x16 Output\obj\project\solution\wireless_remote_dongle\modules\usb\src\usb_com.o
                0x00000000100039ce                usb_ep_init_handler
 .text.usb_ep_callback_register
                0x00000000100039e4       0x1a Output\obj\project\solution\wireless_remote_dongle\modules\usb\src\usb_com.o
                0x00000000100039e4                usb_ep_callback_register
 .text.usb_ep_start_transfer
                0x00000000100039fe       0x24 Output\obj\project\solution\wireless_remote_dongle\modules\usb\src\usb_com.o
                0x00000000100039fe                usb_ep_start_transfer
 .text.usb_ep_reset_deal
                0x0000000010003a22        0xe Output\obj\project\solution\wireless_remote_dongle\modules\usb\src\usb_com.o
                0x0000000010003a22                usb_ep_reset_deal
 .text.usb_device_init
                0x0000000010003a30       0x4c Output\obj\project\solution\wireless_remote_dongle\modules\usb\src\usb_com.o
                0x0000000010003a30                usb_device_init
 .text.usb_device_deinit
                0x0000000010003a7c       0x12 Output\obj\project\solution\wireless_remote_dongle\modules\usb\src\usb_com.o
                0x0000000010003a7c                usb_device_deinit
 .text.usb_desc_swapper.constprop.1
                0x0000000010003a8e       0x62 Output\obj\project\solution\wireless_remote_dongle\modules\usb\src\usb_desc.o
 .text.usb_get_device_descriptor
                0x0000000010003af0       0x10 Output\obj\project\solution\wireless_remote_dongle\modules\usb\src\usb_desc.o
                0x0000000010003af0                usb_get_device_descriptor
 .text.usb_get_cfg_descriptor
                0x0000000010003b00       0x10 Output\obj\project\solution\wireless_remote_dongle\modules\usb\src\usb_desc.o
                0x0000000010003b00                usb_get_cfg_descriptor
 .text.usb_get_lang_id_str_descriptor
                0x0000000010003b10       0x10 Output\obj\project\solution\wireless_remote_dongle\modules\usb\src\usb_desc.o
                0x0000000010003b10                usb_get_lang_id_str_descriptor
 .text.usb_get_manufacturer_str_descriptor
                0x0000000010003b20       0x1a Output\obj\project\solution\wireless_remote_dongle\modules\usb\src\usb_desc.o
                0x0000000010003b20                usb_get_manufacturer_str_descriptor
 .text.usb_get_product_str_descriptor
                0x0000000010003b3a       0x1a Output\obj\project\solution\wireless_remote_dongle\modules\usb\src\usb_desc.o
                0x0000000010003b3a                usb_get_product_str_descriptor
 .text.usb_get_serial_str_descriptor
                0x0000000010003b54       0x1a Output\obj\project\solution\wireless_remote_dongle\modules\usb\src\usb_desc.o
                0x0000000010003b54                usb_get_serial_str_descriptor
 .text.ude_state_reset
                0x0000000010003b6e        0xa Output\obj\project\solution\wireless_remote_dongle\modules\usb\src\usb_dev_enum.o
                0x0000000010003b6e                ude_state_reset
 .text.ude_hid_setvalid
                0x0000000010003b78       0x14 Output\obj\project\solution\wireless_remote_dongle\modules\usb\src\usb_hid.o
                0x0000000010003b78                ude_hid_setvalid
 .text.ude_hid_is_valid
                0x0000000010003b8c       0x24 Output\obj\project\solution\wireless_remote_dongle\modules\usb\src\usb_hid.o
                0x0000000010003b8c                ude_hid_is_valid
 .text.usb_int_ep_reset
                0x0000000010003bb0       0x28 Output\obj\project\solution\wireless_remote_dongle\modules\usb\src\usb_hid.o
                0x0000000010003bb0                usb_int_ep_reset
 .text.udh_init
                0x0000000010003bd8      0x112 Output\obj\project\solution\wireless_remote_dongle\modules\usb\src\usb_hid.o
                0x0000000010003bd8                udh_init
 .text.usb_hid_init
                0x0000000010003cea        0x2 Output\obj\project\solution\wireless_remote_dongle\modules\usb\src\usb_hid.o
                0x0000000010003cea                usb_hid_init
 .text.usb_hid_deinit
                0x0000000010003cec        0x6 Output\obj\project\solution\wireless_remote_dongle\modules\usb\src\usb_hid.o
                0x0000000010003cec                usb_hid_deinit
 .text.usb_hid_itf_desc_get
                0x0000000010003cf2       0x12 Output\obj\project\solution\wireless_remote_dongle\modules\usb\src\usb_hid_desc.o
                0x0000000010003cf2                usb_hid_itf_desc_get
 .text.usb_hid_report_desc_get
                0x0000000010003d04       0x12 Output\obj\project\solution\wireless_remote_dongle\modules\usb\src\usb_hid_desc.o
                0x0000000010003d04                usb_hid_report_desc_get
 .text.usb_usr_audio_mic_data_request
                0x0000000010003d16        0xe Output\obj\project\solution\wireless_remote_dongle\modules\usb\usr\usb_usr_audio.o
 .text.usb_usr_audio_mic_vol_set
                0x0000000010003d24       0x28 Output\obj\project\solution\wireless_remote_dongle\modules\usb\usr\usb_usr_audio.o
 .text.usb_usr_audio_mic_mute_set
                0x0000000010003d4c       0x28 Output\obj\project\solution\wireless_remote_dongle\modules\usb\usr\usb_usr_audio.o
 .text.usb_usr_audio_mic_stop
                0x0000000010003d74       0x20 Output\obj\project\solution\wireless_remote_dongle\modules\usb\usr\usb_usr_audio.o
 .text.usb_usr_audio_mic_start
                0x0000000010003d94       0x20 Output\obj\project\solution\wireless_remote_dongle\modules\usb\usr\usb_usr_audio.o
 .text.usb_usr_audio_init
                0x0000000010003db4       0x20 Output\obj\project\solution\wireless_remote_dongle\modules\usb\usr\usb_usr_audio.o
 .text.usb_usr_audio_mic_is_start
                0x0000000010003dd4       0x10 Output\obj\project\solution\wireless_remote_dongle\modules\usb\usr\usb_usr_audio.o
                0x0000000010003dd4                usb_usr_audio_mic_is_start
 .text.usb_usr_hid_resume
                0x0000000010003de4       0x20 Output\obj\project\solution\wireless_remote_dongle\modules\usb\usr\usb_usr_hid.o
 .text.usb_usr_hid_data_out
                0x0000000010003e04       0x2e Output\obj\project\solution\wireless_remote_dongle\modules\usb\usr\usb_usr_hid.o
 .text.usb_usr_hid_suspend
                0x0000000010003e32       0x42 Output\obj\project\solution\wireless_remote_dongle\modules\usb\usr\usb_usr_hid.o
 .text.usb_usr_hid_init
                0x0000000010003e74       0x22 Output\obj\project\solution\wireless_remote_dongle\modules\usb\usr\usb_usr_hid.o
 .text.wireless_event_packet_handler
                0x0000000010003e96      0x1da Output\obj\project\solution\wireless_remote_dongle\modules\wireless\wireless_client.o
 .text.wireless_client_init
                0x0000000010004070       0x62 Output\obj\project\solution\wireless_remote_dongle\modules\wireless\wireless_client.o
                0x0000000010004070                wireless_client_init
 .text.wireless_client_process
                0x00000000100040d2        0x2 Output\obj\project\solution\wireless_remote_dongle\modules\wireless\wireless_client.o
                0x00000000100040d2                wireless_client_process
 .text.wireless_module_deinit
                0x00000000100040d4        0x4 Output\obj\project\solution\wireless_remote_dongle\modules\wireless\wireless_init.o
                0x00000000100040d4                wireless_module_deinit
 .text.wireless_module_init
                0x00000000100040d8       0x6e Output\obj\project\solution\wireless_remote_dongle\modules\wireless\wireless_init.o
                0x00000000100040d8                wireless_module_init
 .text.prod_test_init
                0x0000000010004146        0x2 Output\obj\project\solution\wireless_remote_dongle\prod_test\prod_test.o
                0x0000000010004146                prod_test_init
 .text.mem_heap_size_get
                0x0000000010004148        0x8 Output\obj\project\solution\wireless_remote_dongle\strong_symbol.o
                0x0000000010004148                mem_heap_size_get
 .text.thread_cfg_get
                0x0000000010004150        0xa Output\obj\project\solution\wireless_remote_dongle\strong_symbol.o
                0x0000000010004150                thread_cfg_get
 .text.thread_create_callback
                0x000000001000415a        0x4 Output\obj\project\solution\wireless_remote_dongle\strong_symbol.o
                0x000000001000415a                thread_create_callback
 .text.ble_get_local_bd_addr
                0x000000001000415e       0x14 Output\obj\project\solution\wireless_remote_dongle\strong_symbol.o
                0x000000001000415e                ble_get_local_bd_addr
 .text.bt_rf_get_param
                0x0000000010004172       0x2c Output\obj\project\solution\wireless_remote_dongle\strong_symbol.o
                0x0000000010004172                bt_rf_get_param
 .text.xosc_get_xcfg
                0x000000001000419e       0x20 Output\obj\project\solution\wireless_remote_dongle\strong_symbol.o
                0x000000001000419e                xosc_get_xcfg
 .text.param_xosc_read
                0x00000000100041be        0x8 Output\obj\project\solution\wireless_remote_dongle\strong_symbol.o
                0x00000000100041be                param_xosc_read
 .text.sys_clk_change_callback
                0x00000000100041c6       0x10 Output\obj\project\solution\wireless_remote_dongle\strong_symbol.o
                0x00000000100041c6                sys_clk_change_callback
 .text.uart_debug_init_callback
                0x00000000100041d6        0x4 Output\obj\project\solution\wireless_remote_dongle\strong_symbol.o
                0x00000000100041d6                uart_debug_init_callback
 .text.private_freq_bands_hook
                0x00000000100041da        0x4 Output\obj\project\solution\wireless_remote_dongle\strong_symbol.o
                0x00000000100041da                private_freq_bands_hook
 .text.private_access_code_hook
                0x00000000100041de        0xa Output\obj\project\solution\wireless_remote_dongle\strong_symbol.o
                0x00000000100041de                private_access_code_hook
 .text.cm_loadpage
                0x00000000100041e8       0xb0 ..\..\..\libs\cpu\libplatform.a(cm.o)
 .text.cm_next_freepage
                0x0000000010004298       0x54 ..\..\..\libs\cpu\libplatform.a(cm.o)
 .text.cm_loadparam
                0x00000000100042ec        0x4 ..\..\..\libs\cpu\libplatform.a(cm.o)
                0x00000000100042ec                cm_loadparam
 .text.cm_factory
                0x00000000100042f0        0xa ..\..\..\libs\cpu\libplatform.a(cm.o)
                0x00000000100042f0                cm_factory
 .text.cm_addr_check
                0x00000000100042fa        0x4 ..\..\..\libs\cpu\libplatform.a(cm.o)
                0x00000000100042fa                cm_addr_check
 .text.cm_writepage
                0x00000000100042fe       0x2a ..\..\..\libs\cpu\libplatform.a(cm.o)
 .text.cm_movepage
                0x0000000010004328       0x56 ..\..\..\libs\cpu\libplatform.a(cm.o)
 .text.cm_erase
                0x000000001000437e       0x1e ..\..\..\libs\cpu\libplatform.a(cm.o)
 .text.cm_release
                0x000000001000439c      0x100 ..\..\..\libs\cpu\libplatform.a(cm.o)
 .text.cm_savepage
                0x000000001000449c       0xda ..\..\..\libs\cpu\libplatform.a(cm.o)
 .text.cm_check_loadpage
                0x0000000010004576       0xb0 ..\..\..\libs\cpu\libplatform.a(cm.o)
 .text.cm_sync  0x0000000010004626       0x3e ..\..\..\libs\cpu\libplatform.a(cm.o)
                0x0000000010004626                cm_sync
 .text.cm_read  0x0000000010004664       0x44 ..\..\..\libs\cpu\libplatform.a(cm.o)
                0x0000000010004664                cm_read
 .text.cm_write
                0x00000000100046a8       0x5e ..\..\..\libs\cpu\libplatform.a(cm.o)
                0x00000000100046a8                cm_write
 .text.cm_init  0x0000000010004706      0x1e2 ..\..\..\libs\cpu\libplatform.a(cm.o)
                0x0000000010004706                cm_init
 .text.xcfg_init
                0x00000000100048e8       0x4c ..\..\..\libs\cpu\libplatform.a(xcfg.o)
                0x00000000100048e8                xcfg_init
 .text.adpcm_sample_idx_reset
                0x0000000010004934       0x40 ..\..\..\libs\cpu\libplatform.a(adpcm.o)
                0x0000000010004934                adpcm_sample_idx_reset
 .text.device.init
                0x0000000010004974       0x7e ..\..\..\libs\cpu\libplatform.a(device.o)
                0x0000000010004974                dev_init
                0x000000001000498e                dev_delay_times
                0x00000000100049a4                dev_delay_online_times
                0x00000000100049b6                dev_delay_offline_times
                0x00000000100049c8                dev_clr_sta
 .text.platform_main
                0x00000000100049f2      0x152 ..\..\..\libs\cpu\libplatform.a(main.o)
                0x00000000100049f2                platform_main
 .text.main_startup
                0x0000000010004b44        0xe ..\..\..\libs\cpu\libplatform.a(main.o)
                0x0000000010004b44                main_startup
 .text.register_isr
                0x0000000010004b52       0x38 ..\..\..\libs\cpu\libplatform.a(interrupt.o)
                0x0000000010004b52                register_isr
 .text.soft_irq_init
                0x0000000010004b8a       0x44 ..\..\..\libs\cpu\libplatform.a(interrupt.o)
                0x0000000010004b8a                soft_irq_init
 .text.bthw_irq_init
                0x0000000010004bce        0xe ..\..\..\libs\cpu\libplatform.a(interrupt.o)
                0x0000000010004bce                bthw_irq_init
 .text.usb_irq_init
                0x0000000010004bdc       0x22 ..\..\..\libs\cpu\libplatform.a(interrupt.o)
                0x0000000010004bdc                usb_irq_init
 .text.sys_timer_init
                0x0000000010004bfe       0x5e ..\..\..\libs\cpu\libplatform.a(interrupt.o)
                0x0000000010004bfe                sys_timer_init
 .text.thread_driver_create
                0x0000000010004c5c       0x62 ..\..\..\libs\cpu\libplatform.a(startup.o)
                0x0000000010004c5c                thread_driver_create
 .text.thread_main_entry
                0x0000000010004cbe       0x2e ..\..\..\libs\cpu\libplatform.a(startup.o)
 .text.startup.init
                0x0000000010004cec      0x100 ..\..\..\libs\cpu\libplatform.a(startup.o)
                0x0000000010004cec                platform_init
                0x0000000010004cf4                sys_startup
 .text.sys_set_tmr_enable
                0x0000000010004dec       0x20 ..\..\..\libs\cpu\libplatform.a(startup.o)
                0x0000000010004dec                sys_set_tmr_enable
 .text.sys_hook_init
                0x0000000010004e0c        0x2 ..\..\..\libs\cpu\libplatform.a(sys_hook.o)
                0x0000000010004e0c                sys_hook_init
 .text.thread.driver.usb
                0x0000000010004e0e       0x16 ..\..\..\libs\cpu\libplatform.a(thread_driver.o)
                0x0000000010004e0e                thread_driver_usb_callback_register
 .text.thread.driver.vs
                0x0000000010004e24       0x16 ..\..\..\libs\cpu\libplatform.a(thread_driver.o)
                0x0000000010004e24                thread_driver_user_callback_register
 .text.pll0_vco_band_trimming
                0x0000000010004e3a      0x176 ..\..\..\libs\cpu\libplatform.a(pll.o)
                0x0000000010004e3a                pll0_vco_band_trimming
 .text.pll0_init
                0x0000000010004fb0       0x62 ..\..\..\libs\cpu\libplatform.a(pll.o)
                0x0000000010004fb0                pll0_init
 .text.pll0_disable
                0x0000000010005012       0x16 ..\..\..\libs\cpu\libplatform.a(pll.o)
                0x0000000010005012                pll0_disable
 .text.pmu_set_buck_mode
                0x0000000010005028       0x48 ..\..\..\libs\cpu\libplatform.a(pmu.o)
                0x0000000010005028                pmu_set_buck_mode
 .text.pmu_voltage_configure
                0x0000000010005070       0x48 ..\..\..\libs\cpu\libplatform.a(pmu.o)
                0x0000000010005070                pmu_voltage_configure
 .text.pmu_init
                0x00000000100050b8      0x2e2 ..\..\..\libs\cpu\libplatform.a(pmu.o)
                0x00000000100050b8                pmu_init
 .text.debug_set
                0x000000001000539a       0x20 ..\..\..\libs\cpu\libplatform.a(debug.o)
                0x000000001000539a                debug_set
 .text.lock_init
                0x00000000100053ba       0x10 ..\..\..\libs\cpu\libplatform.a(lock.o)
                0x00000000100053ba                lock_init
 .text.lock_code_usbdev
                0x00000000100053ca       0x46 ..\..\..\libs\cpu\libplatform.a(lock.o)
                0x00000000100053ca                lock_code_usbdev
 .text.unlock_code_usbdev
                0x0000000010005410       0x2a ..\..\..\libs\cpu\libplatform.a(lock.o)
                0x0000000010005410                unlock_code_usbdev
 .text.patch_init
                0x000000001000543a       0x1e ..\..\..\libs\cpu\libplatform.a(patch.o)
                0x000000001000543a                patch_init
 .text.udivmoddi4
                0x0000000010005458       0x96 ..\..\..\libs\cpu\libplatform.a(sys.o)
 .text.sys_rst_init
                0x00000000100054ee       0x84 ..\..\..\libs\cpu\libplatform.a(sys.o)
                0x00000000100054ee                sys_rst_init
 .text.sys_rst_dump
                0x0000000010005572       0x74 ..\..\..\libs\cpu\libplatform.a(sys.o)
                0x0000000010005572                sys_rst_dump
 .text.rc2m_clk_nhz_cal
                0x00000000100055e6      0x10c ..\..\..\libs\cpu\libplatform.a(sys.o)
                0x00000000100055e6                rc2m_clk_nhz_cal
 .text.sys_get_rand_key_init
                0x00000000100056f2        0xa ..\..\..\libs\cpu\libplatform.a(sys.o)
                0x00000000100056f2                sys_get_rand_key_init
 .text.xosc_init
                0x00000000100056fc       0xa0 ..\..\..\libs\cpu\libplatform.a(sys.o)
                0x00000000100056fc                xosc_init
 .text.__udivdi3
                0x000000001000579c        0x6 ..\..\..\libs\cpu\libplatform.a(sys.o)
                0x000000001000579c                __udivdi3
 .text.sys_clk_cacl_curr
                0x00000000100057a2       0x18 ..\..\..\libs\cpu\libplatform.a(sys_clk.o)
 *fill*         0x00000000100057ba       0x46 
 .text.set_sys_clk_do
                0x0000000010005800      0x1f2 ..\..\..\libs\cpu\libplatform.a(sys_clk.o)
                0x0000000010005800                set_sys_clk_do
 .text.sys_clk  0x00000000100059f2      0x1ca ..\..\..\libs\cpu\libplatform.a(sys_clk.o)
                0x00000000100059f2                sys_clk_get_cur
                0x00000000100059fa                sys_clk_set_do
 .text.sys_clk_set
                0x0000000010005bbc       0x60 ..\..\..\libs\cpu\libplatform.a(sys_clk.o)
                0x0000000010005bbc                sys_clk_set
 *fill*         0x0000000010005c1c        0x0 
 .text.sys_clk.table
                0x0000000010005c1c       0x16 ..\..\..\libs\cpu\libplatform.a(sys_clk.o)
                0x0000000010005c1c                sysclk_info_tbl
 .text.voltage.trim
                0x0000000010005c32       0xb0 ..\..\..\libs\cpu\libplatform.a(voltage_trim.o)
                0x0000000010005c32                voltage_trim_value_init
 .text.xosc_24m_div_get
                0x0000000010005ce2        0x4 ..\..\..\libs\cpu\libplatform.a(weak_symbol.o)
                0x0000000010005ce2                xosc_24m_div_get
 .text.freq_det_kick_flag_clr
                0x0000000010005ce6        0x8 ..\..\..\libs\cpu\libplatform.a(freq_det.o)
                0x0000000010005ce6                freq_det_kick_flag_clr
 .text.usb_handler_register
                0x0000000010005cee        0x8 ..\..\..\libs\usb\libusb.a(usb_comm.o)
                0x0000000010005cee                usb_handler_register
 .text.usb_sof_hook_register
                0x0000000010005cf6        0x8 ..\..\..\libs\usb\libusb.a(usb_comm.o)
                0x0000000010005cf6                usb_sof_hook_register
 .text.usb_disable
                0x0000000010005cfe       0x2a ..\..\..\libs\usb\libusb.a(usb_comm.o)
                0x0000000010005cfe                usb_disable
 .text.usb_init
                0x0000000010005d28       0x8c ..\..\..\libs\usb\libusb.a(usb_comm.o)
                0x0000000010005d28                usb_init
 .text.usb_interrupt_init
                0x0000000010005db4       0x8e ..\..\..\libs\usb\libusb.a(usb_comm.o)
                0x0000000010005db4                usb_interrupt_init
 .text.usb_device_suspend_enable
                0x0000000010005e42        0xe ..\..\..\libs\usb\libusb.a(usb_comm.o)
                0x0000000010005e42                usb_device_suspend_enable
 .text.usb_device_is_suspend
                0x0000000010005e50        0xa ..\..\..\libs\usb\libusb.a(usb_comm.o)
                0x0000000010005e50                usb_device_is_suspend
 .text.usb_device_resume
                0x0000000010005e5a       0x36 ..\..\..\libs\usb\libusb.a(usb_comm.o)
                0x0000000010005e5a                usb_device_resume
 .text.ude_init
                0x0000000010005e90       0x48 ..\..\..\libs\usb\libusb.a(usb_device_enum.o)
                0x0000000010005e90                ude_init
 .text.usb_ep_get_max_len
                0x0000000010005ed8       0x10 ..\..\..\libs\usb\libusb.a(usb_device_ep.o)
                0x0000000010005ed8                usb_ep_get_max_len
 .text.usb_ep_get_rx_len
                0x0000000010005ee8       0x24 ..\..\..\libs\usb\libusb.a(usb_device_ep.o)
                0x0000000010005ee8                usb_ep_get_rx_len
 .text.usb_ep_clear_rx_fifo
                0x0000000010005f0c       0x1a ..\..\..\libs\usb\libusb.a(usb_device_ep.o)
                0x0000000010005f0c                usb_ep_clear_rx_fifo
 .text.usb_ep_get_for_index
                0x0000000010005f26       0x1e ..\..\..\libs\usb\libusb.a(usb_device_ep.o)
                0x0000000010005f26                usb_ep_get_for_index
 .text.usb_ep_init
                0x0000000010005f44       0xae ..\..\..\libs\usb\libusb.a(usb_device_ep.o)
                0x0000000010005f44                usb_ep_init
 .text.usb_ep_clear
                0x0000000010005ff2       0x46 ..\..\..\libs\usb\libusb.a(usb_device_ep.o)
                0x0000000010005ff2                usb_ep_clear
 .text.usb_ep_reset
                0x0000000010006038       0x92 ..\..\..\libs\usb\libusb.a(usb_device_ep.o)
                0x0000000010006038                usb_ep_reset
 .text.usb_device_enter
                0x00000000100060ca       0x7a ..\..\..\libs\usb\libusb.a(usb_device_run_loop.o)
                0x00000000100060ca                usb_device_enter
 .text.usb_device_exit
                0x0000000010006144       0x22 ..\..\..\libs\usb\libusb.a(usb_device_run_loop.o)
                0x0000000010006144                usb_device_exit
 .text.wl.api   0x0000000010006166      0x556 ..\..\..\libs\wireless\libwireless_master.a(wireless_api.o)
                0x0000000010006166                wireless_event_handler_register
                0x0000000010006170                wireless_receive_handler_register
                0x000000001000617a                wireless_connect_by_addr
                0x00000000100062a4                wireless_scan_param_set
                0x000000001000633a                wireless_scan_ctrl
                0x000000001000637c                wireless_scan_state_get
                0x00000000100063ca                wireless_adv_param_set
                0x00000000100063ce                wireless_adv_ctrl
                0x00000000100063d2                wireless_adv_state_get
                0x00000000100063d6                wireless_latency_applied
                0x00000000100063da                wireless_disconnect
                0x0000000010006452                wireless_conn_update
                0x000000001000658c                wireless_conn_query
                0x0000000010006602                wireless_mtu_get
                0x000000001000663a                wireless_frame_start_hook_register
                0x0000000010006670                wireless_setup
                0x00000000100066ba                wireless_off
 .text          0x00000000100066bc       0xdc ..\..\..\libs\wireless\libwireless_master.a(bb_api.o)
                0x00000000100066bc                ble_alarm_timer_init
                0x00000000100066bc                soft_timer_init
                0x00000000100066c6                soft_timer_mem_extend
                0x00000000100066c6                ble_alarm_timer_mem_extend
                0x00000000100066d0                soft_timer_mem_free
                0x00000000100066d0                ble_alarm_timer_mem_free
                0x00000000100066f8                soft_timer_start
                0x00000000100066f8                ble_alarm_timer_start
                0x0000000010006720                soft_timer_stop
                0x0000000010006720                ble_alarm_timer_stop
                0x0000000010006752                soft_timer_acquire
                0x0000000010006752                ble_alarm_timer_acquire
                0x000000001000675c                ble_alarm_timer_release
                0x000000001000675c                soft_timer_release
 .text          0x0000000010006798      0x26e ..\..\..\libs\wireless\libwireless_master.a(bb.o)
                0x00000000100067ba                bb_rand_init
                0x00000000100067c2                bb_get_heap_info
                0x00000000100067d4                bb_var_init
                0x00000000100067dc                bb_nanos_mem_init
                0x0000000010006822                bb_reset
                0x00000000100068a6                bb_init
                0x00000000100069a8                bb_off
 .text.bb.timer.ind
                0x0000000010006a06       0x24 ..\..\..\libs\wireless\libwireless_master.a(bb_alarm.o)
                0x0000000010006a06                bb_timer_end_ind
 .text.bb.timer.init
                0x0000000010006a2a       0xcc ..\..\..\libs\wireless\libwireless_master.a(bb_alarm.o)
                0x0000000010006a2a                bb_timer_init
 .text          0x0000000010006af6      0x110 ..\..\..\libs\wireless\libwireless_master.a(bb_int.o)
                0x0000000010006af6                bb_sleep_init
                0x0000000010006af8                bb_driver_init
 *fill*         0x0000000010006c06       0xfa 
 .text.bb.aes   0x0000000010006d00       0xf4 ..\..\..\libs\wireless\libwireless_master.a(bb_int.o)
                0x0000000010006d00                bb_aes_encrypt
 .text          0x0000000010006df4       0x40 ..\..\..\libs\wireless\libwireless_master.a(ble.o)
                0x0000000010006df4                ble_init
 .text.ble.var.init
                0x0000000010006e34       0x56 ..\..\..\libs\wireless\libwireless_master.a(ble.o)
                0x0000000010006e34                ble_var_init
 .text          0x0000000010006e8a      0x156 ..\..\..\libs\wireless\libwireless_master.a(ble_buf.o)
                0x0000000010006e8a                ble_buf_init_do
                0x0000000010006f96                ble_buf_init
 *fill*         0x0000000010006fe0       0x20 
 .text.bb.buf   0x0000000010007000       0x98 ..\..\..\libs\wireless\libwireless_master.a(ble_buf.o)
                0x0000000010007000                ble_buf_acl_tx_elt_get
                0x0000000010007040                ble_buf_acl_tx_elt_set
 *fill*         0x0000000010007098       0x68 
 .text          0x0000000010007100      0x640 ..\..\..\libs\wireless\libwireless_master.a(ble_con.o)
                0x0000000010007100                ble_con_start_do
                0x0000000010007128                ble_con_start
                0x0000000010007600                ble_con_stop
                0x0000000010007680                ble_con_offset_get
                0x00000000100076ba                ble_con_peer_sca_set
 .text.le.con   0x0000000010007740       0x8a ..\..\..\libs\wireless\libwireless_master.a(ble_con.o)
                0x0000000010007740                ble_get_con_var
                0x0000000010007748                ble_get_con_rssi
                0x000000001000775e                ble_con_init
 .text          0x00000000100077ca      0x2a8 ..\..\..\libs\wireless\libwireless_master.a(ble_hal.o)
                0x00000000100077ca                ble_get_rslv_var
                0x00000000100077ce                ble_hal_init
                0x00000000100079cc                ble_ch_assess_data_get
                0x00000000100079d4                ble_aa_gen
 .text          0x0000000010007a72      0x120 ..\..\..\libs\wireless\libwireless_master.a(ble_init.o)
                0x0000000010007a72                ble_init_start_hook
                0x0000000010007b20                ble_init_init
                0x0000000010007b8a                ble_get_init_var
 .text          0x0000000010007b92      0x104 ..\..\..\libs\wireless\libwireless_master.a(ble_scan.o)
                0x0000000010007b92                ble_get_scan_var
                0x0000000010007b9a                ble_get_ssync_var
                0x0000000010007ba2                ble_scan_init_hook
                0x0000000010007c22                ble_scan_init
 .text          0x0000000010007c96        0x4 ..\..\..\libs\wireless\libwireless_master.a(ble_sync.o)
                0x0000000010007c96                ble_get_sync_var
 .text          0x0000000010007c9a       0x28 ..\..\..\libs\wireless\libwireless_master.a(ble_test.o)
                0x0000000010007c9a                ble_test_init
                0x0000000010007cba                ble_get_test_var
 .text.bb.ble.test.start
                0x0000000010007cc2       0x2e ..\..\..\libs\wireless\libwireless_master.a(ble_test.o)
                0x0000000010007cc2                ble_test_start
 .text.le.ll_cntl
                0x0000000010007cf0       0x6a ..\..\..\libs\wireless\libwireless_master.a(ll.o)
                0x0000000010007cf0                ll_init
 .text.le.ll_cntl.start
                0x0000000010007d5a      0x250 ..\..\..\libs\wireless\libwireless_master.a(ll.o)
                0x0000000010007d5a                ll_start
 .text          0x0000000010007faa      0x198 ..\..\..\libs\wireless\libwireless_master.a(ll_cntl.o)
                0x0000000010007faa                ble_cntl_rx_ind_func
 .text.le.ll_cntl.pdu
                0x0000000010008142       0x1a ..\..\..\libs\wireless\libwireless_master.a(ll_cntl.o)
 .text.le.ll_cntl.send
                0x000000001000815c       0xa2 ..\..\..\libs\wireless\libwireless_master.a(ll_cntl.o)
                0x000000001000815c                ll_cntl_send
 *fill*         0x00000000100081fe        0x2 
 .text          0x0000000010008200      0xe8e ..\..\..\libs\wireless\libwireless_master.a(ll_con_upd.o)
                0x0000000010008b58                hci_le_con_upd_cmd_func
                0x0000000010008ce2                hci_le_rem_con_param_req_reply_cmd_func
                0x0000000010008dc0                hci_le_rem_con_param_req_neg_reply_cmd_func
                0x0000000010008e28                ll_op_con_upd_ind_func
                0x0000000010008eca                ble_con_param_upd_cfm_func
                0x0000000010008f42                ble_con_offset_upd_ind_func
                0x0000000010008f94                ll_con_move_cb
 .text.le.ll_cntl.pdu
                0x000000001000908e      0x332 ..\..\..\libs\wireless\libwireless_master.a(ll_con_upd.o)
                0x000000001000908e                ll_con_update_ind_func
                0x00000000100091fe                ll_con_param_req_func
                0x0000000010009322                ll_con_param_rsp_func
 *fill*         0x00000000100093c0        0x0 
 .text          0x00000000100093c0      0xc6c ..\..\..\libs\wireless\libwireless_master.a(ll_encrypt.o)
                0x0000000010009c96                hci_le_en_enc_cmd_func
                0x0000000010009d7a                hci_le_ltk_req_reply_cmd_func
                0x0000000010009df8                hci_le_ltk_req_neg_reply_cmd_func
                0x0000000010009e92                ll_encrypt_ind_func
                0x0000000010009fbc                ll_op_encrypt_ind_func
 .text.le.ll_cntl.pdu
                0x000000001000a02c      0x348 ..\..\..\libs\wireless\libwireless_master.a(ll_encrypt.o)
                0x000000001000a02c                ll_pause_enc_req_func
                0x000000001000a0b2                ll_pause_enc_rsp_func
                0x000000001000a11e                ll_enc_req_func
                0x000000001000a238                ll_enc_rsp_func
                0x000000001000a2be                ll_start_enc_req_func
                0x000000001000a31a                ll_start_enc_rsp_func
 .text          0x000000001000a374      0x292 ..\..\..\libs\wireless\libwireless_master.a(ll_feature.o)
                0x000000001000a53a                ll_op_feats_exch_ind_func
                0x000000001000a5b6                ll_feature_exchange_proc_start
 .text.le.ll_cntl.pdu
                0x000000001000a606      0x168 ..\..\..\libs\wireless\libwireless_master.a(ll_feature.o)
                0x000000001000a606                ll_feature_req_func
                0x000000001000a67a                ll_slave_feature_req_func
                0x000000001000a6ee                ll_feature_rsp_func
 .text          0x000000001000a76e      0x3ae ..\..\..\libs\wireless\libwireless_master.a(ll_length.o)
                0x000000001000aa12                ll_op_length_upd_ind_func
                0x000000001000aa80                ll_length_proc_start_for_param
                0x000000001000aae8                ll_length_proc_start
 .text.le.ll_cntl.pdu
                0x000000001000ab1c      0x214 ..\..\..\libs\wireless\libwireless_master.a(ll_length.o)
                0x000000001000ab1c                ll_length_req_func
                0x000000001000ac8e                ll_length_rsp_func
 *fill*         0x000000001000ad30        0x0 
 .text          0x000000001000ad30      0xa26 ..\..\..\libs\wireless\libwireless_master.a(ll_phy_upd.o)
                0x000000001000b5f6                ll_op_phy_upd_ind_func
                0x000000001000b692                ble_phy_upd_cfm_func
                0x000000001000b6d2                ll_phy_upd_proc_start
 .text.le.ll_cntl.pdu
                0x000000001000b756      0x264 ..\..\..\libs\wireless\libwireless_master.a(ll_phy_upd.o)
                0x000000001000b756                ll_phy_req_func
                0x000000001000b82c                ll_phy_rsp_func
                0x000000001000b8c6                ll_phy_update_ind_func
 .text          0x000000001000b9ba      0x234 ..\..\..\libs\wireless\libwireless_master.a(ll_proc.o)
                0x000000001000b9da                hci_command_ll_func
                0x000000001000ba12                ble_acl_rx_ind_func
                0x000000001000bb84                ble_acl_tx_cfm_func
                0x000000001000bb94                ll_cmd_cmp_send
                0x000000001000bbc6                ll_cmd_stat_send
 .text          0x000000001000bbee       0x60 ..\..\..\libs\wireless\libwireless_master.a(ll_version.o)
                0x000000001000bc1a                ble_ll_version_get
 .text.le.ll_cntl.pdu
                0x000000001000bc4e      0x14e ..\..\..\libs\wireless\libwireless_master.a(ll_version.o)
                0x000000001000bc4e                ll_version_ind_func
 .text          0x000000001000bd9c      0x4a8 ..\..\..\libs\wireless\libwireless_master.a(mgr.o)
                0x000000001000bd9c                mgr_cmd_cmp_send
                0x000000001000bdc4                mgr_cmd_stat_send
                0x000000001000bdec                mgr_is_dev_connected
                0x000000001000be3e                mgr_ral_is_empty
                0x000000001000be42                mgr_ch_map_update
                0x000000001000bf94                mgr_init
                0x000000001000c0b2                mgr_clk_acc_set
                0x000000001000c0f0                mgr_link_disc
                0x000000001000c124                mgr_master_ch_map_get
                0x000000001000c12c                mgr_le_evt_mask_check
                0x000000001000c146                mgr_le_get_features
                0x000000001000c1b6                mgr_le_get_tbox_feat
                0x000000001000c1c4                mgr_plan_elt_get
                0x000000001000c1d2                mgr_act_get_free
                0x000000001000c222                mgr_act_set_free
 .text          0x000000001000c244       0x52 ..\..\..\libs\wireless\libwireless_master.a(mgr_proc.o)
 .text          0x000000001000c296      0x224 ..\..\..\libs\wireless\libwireless_master.a(mgr_test.o)
                0x000000001000c2c0                ble_test_end_ind_func
                0x000000001000c300                hci_le_rx_test_v1_cmd_func
                0x000000001000c346                hci_le_tx_test_v1_cmd_func
                0x000000001000c3aa                hci_le_rx_test_v2_cmd_func
                0x000000001000c40a                hci_le_tx_test_v2_cmd_func
                0x000000001000c480                hci_le_test_end_cmd_func
 *fill*         0x000000001000c4ba       0x46 
 .text          0x000000001000c500      0x2ce ..\..\..\libs\wireless\libwireless_master.a(hct.o)
                0x000000001000c500                hct_init
                0x000000001000c518                hci_send_2_host
                0x000000001000c554                hci_cmd_send_2_controller
                0x000000001000c5fe                hci_acl_send_2_controller
                0x000000001000c700                hci_malloc_for_cmd_tmpl
                0x000000001000c752                hci_malloc_for_acl_tx
                0x000000001000c770                hci_ble_conhdl_register
                0x000000001000c77e                hci_ble_conhdl_unregister
 .text          0x000000001000c7ce      0x112 ..\..\..\libs\wireless\libwireless_master.a(hct_msg.o)
                0x000000001000c7ce                hci_look_for_cmd_desc
                0x000000001000c858                hci_look_for_evt_desc
                0x000000001000c89a                hci_look_for_dbg_evt_desc
                0x000000001000c89e                hci_look_for_le_evt_desc
 .text          0x000000001000c8e0      0x402 ..\..\..\libs\wireless\libwireless_master.a(hct_proc.o)
                0x000000001000cc42                hct_register_handler_evt
                0x000000001000cc4a                hct_register_handler_acl
                0x000000001000cc52                hct_acl_block_request
                0x000000001000cca2                hct_init_do
 .text          0x000000001000cce2        0x2 ..\..\..\libs\wireless\libwireless_master.a(ble_hook.o)
                0x000000001000cce2                ble_hal_init_hook
 .text          0x000000001000cce4       0x7a ..\..\..\libs\wireless\libwireless_master.a(rf.o)
                0x000000001000cce4                rf_off
                0x000000001000ccfc                rf_reset
                0x000000001000ccfe                rf_init
 .text          0x000000001000cd5e      0x2ca ..\..\..\libs\wireless\libwireless_master.a(rf_mate.o)
                0x000000001000ce44                rfphy_tx
                0x000000001000cff6                rfphy_test
                0x000000001000cff8                ble_rf_external_pa_init
 .text.rfphy.other
                0x000000001000d028       0x8a ..\..\..\libs\wireless\libwireless_master.a(rf_mate.o)
 .text.rf.param.init
                0x000000001000d0b2       0xda ..\..\..\libs\wireless\libwireless_master.a(rf_mate.o)
 .text.bb.rf    0x000000001000d18c       0x7a ..\..\..\libs\wireless\libwireless_master.a(rf_mate.o)
                0x000000001000d18c                rfphy_sw_ctrl
                0x000000001000d1bc                rfphy_tx_pwr
 .text.bb.phy.tx
                0x000000001000d206       0x8c ..\..\..\libs\wireless\libwireless_master.a(rf_mate.o)
                0x000000001000d206                rfphy_tx_tone
 .text          0x000000001000d292       0x9c ..\..\..\libs\wireless\libwireless_master.a(vs.o)
                0x000000001000d292                vs_init
                0x000000001000d2ce                vs_reset_complete_evt
 .text          0x000000001000d32e       0xb8 ..\..\..\libs\wireless\libwireless_master.a(vs_proc.o)
 .text          0x000000001000d3e6       0x80 ..\..\..\libs\wireless\libwireless_master.a(wireless.o)
                0x000000001000d3e6                wireless_init_sanity_check
                0x000000001000d418                wireless_init
 .text          0x000000001000d466      0x414 ..\..\..\libs\wireless\libwireless_master.a(wireless_proc.o)
 .text          0x000000001000d87a       0x34 ..\..\..\libs\wireless\libwireless_master.a(extern.o)
                0x000000001000d884                ble_rx_exit_sleep
                0x000000001000d888                ble_feature_exchange_enabled
                0x000000001000d88c                ble_length_request_enabled
                0x000000001000d890                bt_rf_get_fcc_param
                0x000000001000d894                ble_phy_update_enable
                0x000000001000d8aa                ble_chmap_instant_pass_discon
 .text.bb.aes   0x000000001000d8ae      0x19a ..\..\..\libs\wireless\libwireless_master.a(aes.o)
                0x000000001000d8ae                aes_init
                0x000000001000d8f8                aes_alloc
                0x000000001000d91a                aes_start
                0x000000001000d958                aes_encrypt
                0x000000001000d9a4                aes_rand
                0x000000001000d9e0                aes_result_handler
 .text          0x000000001000da48      0x166 ..\..\..\libs\wireless\libwireless_master.a(patch.o)
                0x000000001000da48                bb_patch_dummy
                0x000000001000da4a                bb_patch_init
 .text          0x000000001000dbae       0x34 ..\..\..\libs\wireless\libwireless_master.a(bb_sche.o)
                0x000000001000dbae                bb_sche_frag_ble_dur_set
                0x000000001000dbc0                bb_sche_init
 .text          0x000000001000dbe2       0x76 ..\..\..\libs\wireless\libwireless_master.a(nanos.o)
                0x000000001000dbe2                nanos_init
                0x000000001000dc18                nanos_var_init
 .text          0x000000001000dc58      0x348 ..\..\..\libs\wireless\libwireless_master.a(ll_chmap_upd.o)
                0x000000001000de90                ll_op_ch_map_upd_ind_func
                0x000000001000def8                mgr_ch_map_update_ind_func
                0x000000001000df78                ble_ch_map_upd_cfm_func
 .text.le.ll_cntl.pdu
                0x000000001000dfa0      0x1da ..\..\..\libs\wireless\libwireless_master.a(ll_chmap_upd.o)
                0x000000001000dfa0                ll_channel_map_ind_func
                0x000000001000e0d0                ll_min_used_channels_ind_func
 .text.le.ll_cntl.pdu
                0x000000001000e17a      0x112 ..\..\..\libs\wireless\libwireless_master.a(ll_clk_acc.o)
                0x000000001000e17a                ll_clk_acc_req_func
                0x000000001000e1d4                ll_clk_acc_rsp_func
 .text          0x000000001000e28c      0x112 ..\..\..\libs\wireless\libwireless_master.a(ll_disconnect.o)
                0x000000001000e28c                ll_stopped_ind_func
                0x000000001000e2ec                hci_disconnect_cmd_func
 .text          0x000000001000e39e      0x4da ..\..\..\libs\wireless\libwireless_master.a(ll_scan.o)
                0x000000001000e39e                hci_le_set_scan_param_cmd_func
                0x000000001000e540                hci_le_set_scan_en_cmd_func
 .text.le.ll_scan
                0x000000001000e878      0x60c ..\..\..\libs\wireless\libwireless_master.a(ll_scan.o)
                0x000000001000e878                ble_adv_rep_ind_func
                0x000000001000edf4                ble_scan_end_ind_func
 .text          0x000000001000ee84      0x16c ..\..\..\libs\wireless\libwireless_master.a(mgr_hci.o)
                0x000000001000efdc                hci_le_rd_buff_size
 .text.le.mgr   0x000000001000eff0       0x38 ..\..\..\libs\wireless\libwireless_master.a(mgr_hci.o)
                0x000000001000eff0                hci_command_mgr_func
 .text          0x000000001000f028      0xc40 ..\..\..\libs\wireless\libwireless_master.a(mgr_init.o)
                0x000000001000f028                hci_le_create_con_cmd_func
                0x000000001000f432                hci_le_ext_create_con_cmd_func
                0x000000001000f826                hci_le_create_con_cancel_cmd_func
                0x000000001000f8a4                ble_init_end_ind_func
 .text          0x000000001000fc68        0x4 ..\..\..\libs\wireless\libwireless_master.a(scan_hook.o)
                0x000000001000fc68                ble_scan_end_ind_hook
 .text.bb.vs.fcc_ble.do
                0x000000001000fc6c       0x8a ..\..\..\libs\wireless\libwireless_master.a(vs_fcc.o)
                0x000000001000fc6c                vs_ble_test_do
 .text.bb.vs.fcc
                0x000000001000fcf6       0xc2 ..\..\..\libs\wireless\libwireless_master.a(vs_fcc.o)
                0x000000001000fcf6                vs_ble_test
                0x000000001000fcfa                vs_fcc_test_cmd
 .text          0x000000001000fdb8       0x72 ..\..\..\libs\wireless\libwireless_master.a(thread.o)
                0x000000001000fdb8                thread_nanos_task_create
 *(.rodata*)
 *fill*         0x000000001000fe2a        0x2 
 .rodata.str1.4
                0x000000001000fe2c       0x3b Output\obj\driver\driver_lowpwr.o
 *fill*         0x000000001000fe67        0x1 
 .rodata        0x000000001000fe68        0x9 Output\obj\project\solution\wireless_remote_dongle\app\func.o
 *fill*         0x000000001000fe71        0x3 
 .rodata.str1.4
                0x000000001000fe74       0x18 Output\obj\project\solution\wireless_remote_dongle\app\func.o
                                         0x1c (size before relaxing)
 .rodata        0x000000001000fe8c        0xa Output\obj\project\solution\wireless_remote_dongle\app\func_idle.o
 .rodata.str1.4
                0x000000001000fe96        0x4 Output\obj\project\solution\wireless_remote_dongle\app\func_idle.o
 *fill*         0x000000001000fe96        0x2 
 .rodata        0x000000001000fe98        0xc Output\obj\project\solution\wireless_remote_dongle\app\func_lowpwr.o
 .rodata.str1.4
                0x000000001000fea4        0x4 Output\obj\project\solution\wireless_remote_dongle\app\func_lowpwr.o
 .rodata        0x000000001000fea4        0xe Output\obj\project\solution\wireless_remote_dongle\app\func_wireless.o
 .rodata.str1.4
                0x000000001000feb2        0x4 Output\obj\project\solution\wireless_remote_dongle\app\func_wireless.o
 *fill*         0x000000001000feb2        0x2 
 .rodata        0x000000001000feb4        0xd Output\obj\project\solution\wireless_remote_dongle\bsp\bsp_sys.o
 *fill*         0x000000001000fec1        0x3 
 .rodata.str1.4
                0x000000001000fec4       0x5d Output\obj\project\solution\wireless_remote_dongle\bsp\bsp_sys.o
                                         0x64 (size before relaxing)
 *fill*         0x000000001000ff21        0x3 
 .rodata.str1.4
                0x000000001000ff24       0x2c Output\obj\project\solution\wireless_remote_dongle\main.o
 .rodata.str1.4
                0x000000001000ff50       0x4e Output\obj\project\solution\wireless_remote_dongle\modules\usb\src\usb_audio.o
 *fill*         0x000000001000ff9e        0x2 
 .rodata.usb.desc
                0x000000001000ffa0       0x64 Output\obj\project\solution\wireless_remote_dongle\modules\usb\src\usb_audio_desc.o
                0x000000001000ffa0                desc_itf_header_audio
                0x000000001000ffd0                desc_itf_mic_stream_audio
 .rodata.str1.4
                0x0000000010010004       0x44 Output\obj\project\solution\wireless_remote_dongle\modules\usb\src\usb_com.o
 .rodata.str1.4
                0x0000000010010048       0x1d Output\obj\project\solution\wireless_remote_dongle\modules\usb\src\usb_desc.o
 *fill*         0x0000000010010065        0x3 
 .rodata.usb.desc
                0x0000000010010068       0x24 Output\obj\project\solution\wireless_remote_dongle\modules\usb\src\usb_desc.o
                0x0000000010010068                usb_device_desc
                0x000000001001007c                usb_cfg_desc
                0x0000000010010088                usb_lang_desc
 .rodata.str1.4
                0x000000001001008c      0x140 Output\obj\project\solution\wireless_remote_dongle\modules\usb\src\usb_dev_enum.o
 .rodata.str1.4
                0x00000000100101cc       0x12 Output\obj\project\solution\wireless_remote_dongle\modules\usb\src\usb_hid.o
                                         0x2e (size before relaxing)
 *fill*         0x00000000100101de        0x2 
 .rodata.usb.desc
                0x00000000100101e0       0x3f Output\obj\project\solution\wireless_remote_dongle\modules\usb\src\usb_hid_desc.o
                0x00000000100101e0                desc_hid_report
 *fill*         0x000000001001021f        0x1 
 .rodata.str1.4
                0x0000000010010220       0x4c Output\obj\project\solution\wireless_remote_dongle\modules\usb\usr\usb_usr_audio.o
 .rodata.str1.4
                0x000000001001026c       0x35 Output\obj\project\solution\wireless_remote_dongle\modules\usb\usr\usb_usr_hid.o
 *fill*         0x00000000100102a1        0x3 
 .rodata        0x00000000100102a4       0x28 Output\obj\project\solution\wireless_remote_dongle\modules\wireless\wireless_client.o
                0x00000000100102bc                test_data
 .rodata.str1.4
                0x00000000100102cc       0xdd Output\obj\project\solution\wireless_remote_dongle\modules\wireless\wireless_client.o
                                         0xe1 (size before relaxing)
 *fill*         0x00000000100103a9        0x3 
 .rodata        0x00000000100103ac       0x15 Output\obj\project\solution\wireless_remote_dongle\modules\wireless\wireless_init.o
 *fill*         0x00000000100103c1        0x3 
 .rodata.str1.4
                0x00000000100103c4        0xc Output\obj\project\solution\wireless_remote_dongle\modules\wireless\wireless_init.o
 .rodata        0x00000000100103d0       0x10 Output\obj\project\solution\wireless_remote_dongle\strong_symbol.o
 .rodata.str1.4
                0x00000000100103e0       0x1e Output\obj\project\solution\wireless_remote_dongle\strong_symbol.o
 *fill*         0x00000000100103fe        0x2 
 .rodata.str1.4
                0x0000000010010400       0xfc ..\..\..\libs\cpu\libplatform.a(cm.o)
 .rodata.str1.4
                0x00000000100104fc       0x10 ..\..\..\libs\cpu\libplatform.a(main.o)
 .rodata.str1.4
                0x000000001001050c       0x3f ..\..\..\libs\cpu\libplatform.a(startup.o)
 *fill*         0x000000001001054b        0x1 
 .rodata.str1.4
                0x000000001001054c       0x20 ..\..\..\libs\cpu\libplatform.a(pll.o)
 .rodata.str1.4
                0x000000001001056c       0x16 ..\..\..\libs\cpu\libplatform.a(lock.o)
 *fill*         0x0000000010010582        0x2 
 .rodata.str1.4
                0x0000000010010584       0x45 ..\..\..\libs\cpu\libplatform.a(sys.o)
 *fill*         0x00000000100105c9        0x3 
 .rodata        0x00000000100105cc       0x24 ..\..\..\libs\wireless\libwireless_master.a(bb.o)
                0x00000000100105cc                bb_hook
 .rodata.bb.tbl
                0x00000000100105f0       0x1c ..\..\..\libs\wireless\libwireless_master.a(ble.o)
                0x00000000100105f0                ble_ctl
 .rodata.bb.tbl
                0x000000001001060c        0x8 ..\..\..\libs\wireless\libwireless_master.a(ble_con.o)
                0x000000001001060c                connect_req_dur_tab
 .rodata.bb.tbl
                0x0000000010010614        0x7 ..\..\..\libs\wireless\libwireless_master.a(ble_hal.o)
 *fill*         0x000000001001061b        0x1 
 .rodata.str1.4
                0x000000001001061c       0x55 ..\..\..\libs\wireless\libwireless_master.a(ll_cntl.o)
                                         0x59 (size before relaxing)
 *fill*         0x0000000010010671        0x3 
 .rodata.le.ll_cntl.tbl
                0x0000000010010674      0x1f8 ..\..\..\libs\wireless\libwireless_master.a(ll_cntl.o)
                0x0000000010010674                ll_cntl_pdu_tbl
 .rodata.le.ll_cntl.tbl
                0x000000001001086c      0x108 ..\..\..\libs\wireless\libwireless_master.a(ll_proc.o)
                0x000000001001086c                ll_msg_tbl
                0x000000001001093c                ll_hci_cmd_tbl
 .rodata        0x0000000010010974       0x40 ..\..\..\libs\wireless\libwireless_master.a(mgr_proc.o)
 .rodata        0x00000000100109b4       0xe0 ..\..\..\libs\wireless\libwireless_master.a(hct_msg.o)
                0x00000000100109b4                hci_cmd_desc_root_tab
                0x00000000100109f4                hci_evt_desc_tab
                0x0000000010010a04                hci_evt_le_desc_tab
                0x0000000010010a18                hci_cmd_desc_tab_le
                0x0000000010010a18                hci_evt_dbg_desc_tab
                0x0000000010010a74                hci_cmd_desc_tab_stat_par
                0x0000000010010a74                hci_cmd_desc_tab_info_par
                0x0000000010010a80                hci_cmd_desc_tab_ctrl_bb
 .rodata.str1.4
                0x0000000010010a94        0x9 ..\..\..\libs\wireless\libwireless_master.a(hct_proc.o)
 *fill*         0x0000000010010a9d        0x3 
 .rodata        0x0000000010010aa0       0x4c ..\..\..\libs\wireless\libwireless_master.a(hct_proc.o)
 .rodata.bb.tbl
                0x0000000010010aec       0x51 ..\..\..\libs\wireless\libwireless_master.a(rf_mate.o)
 *fill*         0x0000000010010b3d        0x3 
 .rodata        0x0000000010010b40       0x20 ..\..\..\libs\wireless\libwireless_master.a(vs_proc.o)
 .rodata.str1.4
                0x0000000010010b60       0x23 ..\..\..\libs\wireless\libwireless_master.a(wireless.o)
 *fill*         0x0000000010010b83        0x1 
 .rodata        0x0000000010010b84       0x30 ..\..\..\libs\wireless\libwireless_master.a(wireless_proc.o)
 .rodata.le.mgr_cntl.tbl
                0x0000000010010bb4       0x30 ..\..\..\libs\wireless\libwireless_master.a(wireless_proc.o)
 .rodata        0x0000000010010be4       0x24 ..\..\..\libs\wireless\libwireless_master.a(bb_sche.o)
 .rodata.bb.tbl
                0x0000000010010c08       0x10 ..\..\..\libs\wireless\libwireless_master.a(bb_utils.o)
                0x0000000010010c08                null_array
 .rodata        0x0000000010010c18       0x1c ..\..\..\libs\wireless\libwireless_master.a(ll_scan.o)
 .rodata.le.mgr_cntl.tbl
                0x0000000010010c34       0x70 ..\..\..\libs\wireless\libwireless_master.a(mgr_hci.o)
                0x0000000010010c34                mgr_hci_cmd_tbl
 .rodata.str1.4
                0x0000000010010ca4       0x28 ..\..\..\libs\wireless\libwireless_master.a(thread.o)
                                         0x26 (size before relaxing)
 *(.srodata*)
 .srodata       0x0000000010010ccc       0x20 ..\..\..\libs\wireless\libwireless_master.a(mgr.o)
 .srodata       0x0000000010010cec        0xc ..\..\..\libs\wireless\libwireless_master.a(hct_msg.o)
                0x0000000010010cec                hci_cmd_desc_tab_vs
                0x0000000010010cf4                hci_cmd_desc_tab_lk_ctrl
 *(.rela*)
 .rela.text.clk_clk32k_rtc_get
                0x0000000010010cf8        0x0 Output\obj\driver\driver_clk.o
 .rela.text.clk_saradc_clk_get
                0x0000000010010cf8        0x0 Output\obj\driver\driver_clk.o
 .rela.text.clk_clk2m_ks_get
                0x0000000010010cf8        0x0 Output\obj\driver\driver_clk.o
 .rela.text.wk0_edge_capture_config
                0x0000000010010cf8        0x0 Output\obj\driver\driver_clk.o
 .rela.text.gpio_edge_capture_config
                0x0000000010010cf8        0x0 Output\obj\driver\driver_clk.o
 .rela.text.gpio_edge_capture_config_custom
                0x0000000010010cf8        0x0 Output\obj\driver\driver_clk.o
 .rela.text.gpio_set_reset_pin
                0x0000000010010cf8        0x0 Output\obj\driver\driver_clk.o
 .rela.text.gpio_edge_pic_config
                0x0000000010010cf8        0x0 Output\obj\driver\driver_clk.o
 .rela.text.hsuart_init
                0x0000000010010cf8        0x0 Output\obj\driver\driver_clk.o
 .rela.text.hsuart_baud_config
                0x0000000010010cf8        0x0 Output\obj\driver\driver_clk.o
 .rela.text.hsuart_pic_config
                0x0000000010010cf8        0x0 Output\obj\driver\driver_clk.o
 .rela.text.keyscan_pic_config
                0x0000000010010cf8        0x0 Output\obj\driver\driver_clk.o
 .rela.text.ledc_pic_config
                0x0000000010010cf8        0x0 Output\obj\driver\driver_clk.o
 .rela.com_pwroff.mode2
                0x0000000010010cf8        0x0 Output\obj\driver\driver_clk.o
 .rela.com_sleep.lp_wakeup
                0x0000000010010cf8        0x0 Output\obj\driver\driver_clk.o
 .rela.text.lowpwr_get_wakeup_source
                0x0000000010010cf8        0x0 Output\obj\driver\driver_clk.o
 .rela.text.lowpwr_wk0_wakeup_config
                0x0000000010010cf8        0x0 Output\obj\driver\driver_clk.o
 .rela.text.lowpwr_gpio_wakeup_config
                0x0000000010010cf8        0x0 Output\obj\driver\driver_clk.o
 .rela.text.lowpwr_gpio_wakeup_config_custom
                0x0000000010010cf8        0x0 Output\obj\driver\driver_clk.o
 .rela.text.lowpwr_wakeup_config
                0x0000000010010cf8        0x0 Output\obj\driver\driver_clk.o
 .rela.com_pwroff.mode1
                0x0000000010010cf8        0x0 Output\obj\driver\driver_clk.o
 .rela.com_sleep.proc_do
                0x0000000010010cf8        0x0 Output\obj\driver\driver_clk.o
 .rela.com_sleep.sleep
                0x0000000010010cf8        0x0 Output\obj\driver\driver_clk.o
 .rela.text.rtc_pic_config
                0x0000000010010cf8        0x0 Output\obj\driver\driver_clk.o
 .rela.text.saradc_mic_init
                0x0000000010010cf8        0x0 Output\obj\driver\driver_clk.o
 .rela.text.saradc_init
                0x0000000010010cf8        0x0 Output\obj\driver\driver_clk.o
 .rela.text.saradc_deinit
                0x0000000010010cf8        0x0 Output\obj\driver\driver_clk.o
 .rela.text.saradc_set_baud
                0x0000000010010cf8        0x0 Output\obj\driver\driver_clk.o
 .rela.text.saradc_pic_config
                0x0000000010010cf8        0x0 Output\obj\driver\driver_clk.o
 .rela.com_periph.saradc.get_data
                0x0000000010010cf8        0x0 Output\obj\driver\driver_clk.o
 .rela.text.spi_init
                0x0000000010010cf8        0x0 Output\obj\driver\driver_clk.o
 .rela.text.tmr_pic_config
                0x0000000010010cf8        0x0 Output\obj\driver\driver_clk.o
 .rela.text.uart_init
                0x0000000010010cf8        0x0 Output\obj\driver\driver_clk.o
 .rela.text.uart_pic_config
                0x0000000010010cf8        0x0 Output\obj\driver\driver_clk.o
 .rela.text.uart_baud_config
                0x0000000010010cf8        0x0 Output\obj\driver\driver_clk.o
 .rela.text.app.proc.func
                0x0000000010010cf8        0x0 Output\obj\driver\driver_clk.o
 .rela.text.func.msg
                0x0000000010010cf8        0x0 Output\obj\driver\driver_clk.o
 .rela.text.func
                0x0000000010010cf8        0x0 Output\obj\driver\driver_clk.o
 .rela.text.func.idle
                0x0000000010010cf8        0x0 Output\obj\driver\driver_clk.o
 .rela.text.lowpwr_pwroff_wakeup_config
                0x0000000010010cf8        0x0 Output\obj\driver\driver_clk.o
 .rela.text.lowpwr.pwroff
                0x0000000010010cf8        0x0 Output\obj\driver\driver_clk.o
 .rela.text.func.wireless
                0x0000000010010cf8        0x0 Output\obj\driver\driver_clk.o
 .rela.text.bsp.param
                0x0000000010010cf8        0x0 Output\obj\driver\driver_clk.o
 .rela.text.bsp.param.fota
                0x0000000010010cf8        0x0 Output\obj\driver\driver_clk.o
 .rela.text.sys_ram_info_dump
                0x0000000010010cf8        0x0 Output\obj\driver\driver_clk.o
 .rela.com_text.dev.detect
                0x0000000010010cf8        0x0 Output\obj\driver\driver_clk.o
 .rela.com_text.timer
                0x0000000010010cf8        0x0 Output\obj\driver\driver_clk.o
 .rela.text.bsp.sys.init
                0x0000000010010cf8        0x0 Output\obj\driver\driver_clk.o
 .rela.text.bsp_periph_init
                0x0000000010010cf8        0x0 Output\obj\driver\driver_clk.o
 .rela.text.bsp_uart_debug_init
                0x0000000010010cf8        0x0 Output\obj\driver\driver_clk.o
 .rela.text.startup.main
                0x0000000010010cf8        0x0 Output\obj\driver\driver_clk.o
 .rela.usbdev.com
                0x0000000010010cf8        0x0 Output\obj\driver\driver_clk.o
 .rela.text.uda_exit
                0x0000000010010cf8        0x0 Output\obj\driver\driver_clk.o
 .rela.text.uda_init
                0x0000000010010cf8        0x0 Output\obj\driver\driver_clk.o
 .rela.text.usb_ep_init_handler
                0x0000000010010cf8        0x0 Output\obj\driver\driver_clk.o
 .rela.com_text.isr.sof
                0x0000000010010cf8        0x0 Output\obj\driver\driver_clk.o
 .rela.com_text.thread.driver
                0x0000000010010cf8        0x0 Output\obj\driver\driver_clk.o
 .rela.text.usb_ep_callback_register
                0x0000000010010cf8        0x0 Output\obj\driver\driver_clk.o
 .rela.text.usb_ep_start_transfer
                0x0000000010010cf8        0x0 Output\obj\driver\driver_clk.o
 .rela.text.usb_ep_reset_deal
                0x0000000010010cf8        0x0 Output\obj\driver\driver_clk.o
 .rela.text.usb_device_init
                0x0000000010010cf8        0x0 Output\obj\driver\driver_clk.o
 .rela.text.usb_device_deinit
                0x0000000010010cf8        0x0 Output\obj\driver\driver_clk.o
 .rela.text.usb_get_manufacturer_str_descriptor
                0x0000000010010cf8        0x0 Output\obj\driver\driver_clk.o
 .rela.text.usb_get_product_str_descriptor
                0x0000000010010cf8        0x0 Output\obj\driver\driver_clk.o
 .rela.text.usb_get_serial_str_descriptor
                0x0000000010010cf8        0x0 Output\obj\driver\driver_clk.o
 .rela.text.ude_hid_setvalid
                0x0000000010010cf8        0x0 Output\obj\driver\driver_clk.o
 .rela.text.ude_hid_is_valid
                0x0000000010010cf8        0x0 Output\obj\driver\driver_clk.o
 .rela.com_text.isr.suspend
                0x0000000010010cf8        0x0 Output\obj\driver\driver_clk.o
 .rela.text.usb_int_ep_reset
                0x0000000010010cf8        0x0 Output\obj\driver\driver_clk.o
 .rela.text.udh_init
                0x0000000010010cf8        0x0 Output\obj\driver\driver_clk.o
 .rela.com_text.usb.kick
                0x0000000010010cf8        0x0 Output\obj\driver\driver_clk.o
 .rela.text.usb_usr_audio_mic_data_request
                0x0000000010010cf8        0x0 Output\obj\driver\driver_clk.o
 .rela.text.usb_usr_audio_mic_vol_set
                0x0000000010010cf8        0x0 Output\obj\driver\driver_clk.o
 .rela.text.usb_usr_audio_mic_mute_set
                0x0000000010010cf8        0x0 Output\obj\driver\driver_clk.o
 .rela.text.usb_usr_audio_mic_stop
                0x0000000010010cf8        0x0 Output\obj\driver\driver_clk.o
 .rela.text.usb_usr_audio_mic_start
                0x0000000010010cf8        0x0 Output\obj\driver\driver_clk.o
 .rela.text.usb_usr_audio_init
                0x0000000010010cf8        0x0 Output\obj\driver\driver_clk.o
 .rela.text.usb_usr_audio_mic_is_start
                0x0000000010010cf8        0x0 Output\obj\driver\driver_clk.o
 .rela.com_text.usb.uac.dec
                0x0000000010010cf8        0x0 Output\obj\driver\driver_clk.o
 .rela.com_text.usb.uac.stream
                0x0000000010010cf8        0x0 Output\obj\driver\driver_clk.o
 .rela.text.usb_usr_hid_resume
                0x0000000010010cf8        0x0 Output\obj\driver\driver_clk.o
 .rela.text.usb_usr_hid_data_out
                0x0000000010010cf8        0x0 Output\obj\driver\driver_clk.o
 .rela.com_text.usb.hid.queue
                0x0000000010010cf8        0x0 Output\obj\driver\driver_clk.o
 .rela.com_text.usb.hid.in
                0x0000000010010cf8        0x0 Output\obj\driver\driver_clk.o
 .rela.text.usb_usr_hid_suspend
                0x0000000010010cf8        0x0 Output\obj\driver\driver_clk.o
 .rela.text.usb_usr_hid_init
                0x0000000010010cf8        0x0 Output\obj\driver\driver_clk.o
 .rela.com_text.usb.hid.data.keyboard
                0x0000000010010cf8        0x0 Output\obj\driver\driver_clk.o
 .rela.com_text.usb.vendor.queue
                0x0000000010010cf8        0x0 Output\obj\driver\driver_clk.o
 .rela.text.usb_usr_vendor_ready
                0x0000000010010cf8        0x0 Output\obj\driver\driver_clk.o
 .rela.text.usb_usr_vendor_data_in
                0x0000000010010cf8        0x0 Output\obj\driver\driver_clk.o
 .rela.text.usb_usr_vendor_data_out
                0x0000000010010cf8        0x0 Output\obj\driver\driver_clk.o
 .rela.text.usb_usr_vendor_init
                0x0000000010010cf8        0x0 Output\obj\driver\driver_clk.o
 .rela.text.usb_usr_vendor_app_write
                0x0000000010010cf8        0x0 Output\obj\driver\driver_clk.o
 .rela.text.usb_usr_vendor_dbg_write
                0x0000000010010cf8        0x0 Output\obj\driver\driver_clk.o
 .rela.com_text.wireless.transmit
                0x0000000010010cf8        0x0 Output\obj\driver\driver_clk.o
 .rela.text.wireless_event_packet_handler
                0x0000000010010cf8        0x0 Output\obj\driver\driver_clk.o
 .rela.text.wireless_client_init
                0x0000000010010cf8        0x0 Output\obj\driver\driver_clk.o
 .rela.text.wireless_module_deinit
                0x0000000010010cf8        0x0 Output\obj\driver\driver_clk.o
 .rela.text.soft_timer_5ms_disable
                0x0000000010010cf8        0x0 Output\obj\driver\driver_clk.o
 .rela.text.soft_timer_5ms_enable
                0x0000000010010cf8        0x0 Output\obj\driver\driver_clk.o
 .rela.text.wireless_module_init
                0x0000000010010cf8        0x0 Output\obj\driver\driver_clk.o
 .rela.text.wireless_link_info_write
                0x0000000010010cf8        0x0 Output\obj\driver\driver_clk.o
 .rela.text.wireless_link_info_read
                0x0000000010010cf8        0x0 Output\obj\driver\driver_clk.o
 .rela.text.thread_create_callback
                0x0000000010010cf8        0x0 Output\obj\driver\driver_clk.o
 .rela.text.ble_get_local_bd_addr
                0x0000000010010cf8        0x0 Output\obj\driver\driver_clk.o
 .rela.text.bt_rf_get_param
                0x0000000010010cf8        0x0 Output\obj\driver\driver_clk.o
 .rela.com_sleep.rf.txpwr
                0x0000000010010cf8        0x0 Output\obj\driver\driver_clk.o
 .rela.text.xosc_get_xcfg
                0x0000000010010cf8        0x0 Output\obj\driver\driver_clk.o
 .rela.text.param_xosc_write
                0x0000000010010cf8        0x0 Output\obj\driver\driver_clk.o
 .rela.com_text.spiflash
                0x0000000010010cf8        0x0 Output\obj\driver\driver_clk.o
 .rela.text.audio_mic_power
                0x0000000010010cf8        0x0 Output\obj\driver\driver_clk.o
 .rela.text.audio_mic_analog_init
                0x0000000010010cf8        0x0 Output\obj\driver\driver_clk.o
 .rela.text.audio_micdc_trim_step0_init
                0x0000000010010cf8        0x0 Output\obj\driver\driver_clk.o
 .rela.text.audio_micdc_trim_step0_waiting
                0x0000000010010cf8        0x0 Output\obj\driver\driver_clk.o
 .rela.text.audio_micdc_trim_step0_run
                0x0000000010010cf8        0x0 Output\obj\driver\driver_clk.o
 .rela.text.audio_micdc_trim_step1_init
                0x0000000010010cf8        0x0 Output\obj\driver\driver_clk.o
 .rela.text.audio_micdc_trim_step1_waiting
                0x0000000010010cf8        0x0 Output\obj\driver\driver_clk.o
 .rela.text.audio_micdc_trim_step1_run
                0x0000000010010cf8        0x0 Output\obj\driver\driver_clk.o
 .rela.text.micin_config
                0x0000000010010cf8        0x0 Output\obj\driver\driver_clk.o
 .rela.text.audio_micin_trim_step0_init
                0x0000000010010cf8        0x0 Output\obj\driver\driver_clk.o
 .rela.text.audio_micin_trim_step0_waiting
                0x0000000010010cf8        0x0 Output\obj\driver\driver_clk.o
 .rela.text.audio_micin_trim_step1_init
                0x0000000010010cf8        0x0 Output\obj\driver\driver_clk.o
 .rela.text.audio_micin_trim_step2_run
                0x0000000010010cf8        0x0 Output\obj\driver\driver_clk.o
 .rela.text.audio_mic_trim_proc
                0x0000000010010cf8        0x0 Output\obj\driver\driver_clk.o
 .rela.text.cm_loadpage
                0x0000000010010cf8        0x0 Output\obj\driver\driver_clk.o
 .rela.text.cm_next_freepage
                0x0000000010010cf8        0x0 Output\obj\driver\driver_clk.o
 .rela.text.cm_factory
                0x0000000010010cf8        0x0 Output\obj\driver\driver_clk.o
 .rela.text.cm_writepage
                0x0000000010010cf8        0x0 Output\obj\driver\driver_clk.o
 .rela.text.cm_movepage
                0x0000000010010cf8        0x0 Output\obj\driver\driver_clk.o
 .rela.text.cm_erase
                0x0000000010010cf8        0x0 Output\obj\driver\driver_clk.o
 .rela.text.cm_release
                0x0000000010010cf8        0x0 Output\obj\driver\driver_clk.o
 .rela.text.cm_savepage
                0x0000000010010cf8        0x0 Output\obj\driver\driver_clk.o
 .rela.text.cm_check_loadpage
                0x0000000010010cf8        0x0 Output\obj\driver\driver_clk.o
 .rela.text.cm_move_allpages
                0x0000000010010cf8        0x0 Output\obj\driver\driver_clk.o
 .rela.text.cm_sync
                0x0000000010010cf8        0x0 Output\obj\driver\driver_clk.o
 .rela.text.cm_release_all
                0x0000000010010cf8        0x0 Output\obj\driver\driver_clk.o
 .rela.text.cm_read
                0x0000000010010cf8        0x0 Output\obj\driver\driver_clk.o
 .rela.text.cm_read8
                0x0000000010010cf8        0x0 Output\obj\driver\driver_clk.o
 .rela.text.cm_read16
                0x0000000010010cf8        0x0 Output\obj\driver\driver_clk.o
 .rela.text.cm_read32
                0x0000000010010cf8        0x0 Output\obj\driver\driver_clk.o
 .rela.text.cm_write
                0x0000000010010cf8        0x0 Output\obj\driver\driver_clk.o
 .rela.text.cm_write8
                0x0000000010010cf8        0x0 Output\obj\driver\driver_clk.o
 .rela.text.cm_write16
                0x0000000010010cf8        0x0 Output\obj\driver\driver_clk.o
 .rela.text.cm_write32
                0x0000000010010cf8        0x0 Output\obj\driver\driver_clk.o
 .rela.text.cm_clear
                0x0000000010010cf8        0x0 Output\obj\driver\driver_clk.o
 .rela.text.cm_init
                0x0000000010010cf8        0x0 Output\obj\driver\driver_clk.o
 .rela.com_text.spiflash.id
                0x0000000010010cf8        0x0 Output\obj\driver\driver_clk.o
 .rela.text.xcfg_init
                0x0000000010010cf8        0x0 Output\obj\driver\driver_clk.o
 .rela.com_text.adpcm.dec
                0x0000000010010cf8        0x0 Output\obj\driver\driver_clk.o
 .rela.com_text.adpcm.enc
                0x0000000010010cf8        0x0 Output\obj\driver\driver_clk.o
 .rela.com_text.delay
                0x0000000010010cf8        0x0 Output\obj\driver\driver_clk.o
 .rela.text.platform_main
                0x0000000010010cf8        0x0 Output\obj\driver\driver_clk.o
 .rela.text.main_startup
                0x0000000010010cf8        0x0 Output\obj\driver\driver_clk.o
 .rela.com_text.irq
                0x0000000010010cf8        0x0 Output\obj\driver\driver_clk.o
 .rela.com_text.irq.wpt
                0x0000000010010cf8        0x0 Output\obj\driver\driver_clk.o
 .rela.text.sys_irq_init
                0x0000000010010cf8        0x0 Output\obj\driver\driver_clk.o
 .rela.text.soft_irq_init
                0x0000000010010cf8        0x0 Output\obj\driver\driver_clk.o
 .rela.text.bthw_irq_init
                0x0000000010010cf8        0x0 Output\obj\driver\driver_clk.o
 .rela.text.watch_point_set
                0x0000000010010cf8        0x0 Output\obj\driver\driver_clk.o
 .rela.text.usb_irq_init
                0x0000000010010cf8        0x0 Output\obj\driver\driver_clk.o
 .rela.text.sys_timer_init
                0x0000000010010cf8        0x0 Output\obj\driver\driver_clk.o
 .rela.text.thread_timer_create
                0x0000000010010cf8        0x0 Output\obj\driver\driver_clk.o
 .rela.text.thread_btstack_create
                0x0000000010010cf8        0x0 Output\obj\driver\driver_clk.o
 .rela.text.thread_driver_create
                0x0000000010010cf8        0x0 Output\obj\driver\driver_clk.o
 .rela.text.thread_main_entry
                0x0000000010010cf8        0x0 Output\obj\driver\driver_clk.o
 .rela.text.startup.init
                0x0000000010010cf8        0x0 Output\obj\driver\driver_clk.o
 .rela.com_text.thread.driver.usb
                0x0000000010010cf8        0x0 Output\obj\driver\driver_clk.o
 .rela.com_text.thread.driver.vs
                0x0000000010010cf8        0x0 Output\obj\driver\driver_clk.o
 .rela.com_text.thread.driver.enter
                0x0000000010010cf8        0x0 Output\obj\driver\driver_clk.o
 .rela.text.pll0_vco_band_trimming
                0x0000000010010cf8        0x0 Output\obj\driver\driver_clk.o
 .rela.text.pll0_init
                0x0000000010010cf8        0x0 Output\obj\driver\driver_clk.o
 .rela.text.pll_ext_init
                0x0000000010010cf8        0x0 Output\obj\driver\driver_clk.o
 .rela.com_text.trim.vddio_get
                0x0000000010010cf8        0x0 Output\obj\driver\driver_clk.o
 .rela.com_text.trim.vddio_set
                0x0000000010010cf8        0x0 Output\obj\driver\driver_clk.o
 .rela.com_text.trim.core_get
                0x0000000010010cf8        0x0 Output\obj\driver\driver_clk.o
 .rela.com_text.trim.core_set
                0x0000000010010cf8        0x0 Output\obj\driver\driver_clk.o
 .rela.com_text.trim.lvd_get
                0x0000000010010cf8        0x0 Output\obj\driver\driver_clk.o
 .rela.com_text.trim.lvd_set
                0x0000000010010cf8        0x0 Output\obj\driver\driver_clk.o
 .rela.text.pmu_voltage_configure
                0x0000000010010cf8        0x0 Output\obj\driver\driver_clk.o
 .rela.text.pmu_init
                0x0000000010010cf8        0x0 Output\obj\driver\driver_clk.o
 .rela.reset    0x0000000010010cf8        0x0 Output\obj\driver\driver_clk.o
 .rela.vector   0x0000000010010cf8        0x0 Output\obj\driver\driver_clk.o
 .rela.text.lock_code_usbdev
                0x0000000010010cf8        0x0 Output\obj\driver\driver_clk.o
 .rela.text.patch_init
                0x0000000010010cf8        0x0 Output\obj\driver\driver_clk.o
 .rela.com_sleep.lp.sleep
                0x0000000010010cf8        0x0 Output\obj\driver\driver_clk.o
 .rela.text.sys_clk
                0x0000000010010cf8        0x0 Output\obj\driver\driver_clk.o
 .rela.com_text.stack.api
                0x0000000010010cf8        0x0 Output\obj\driver\driver_clk.o
 .rela.com_text.stack.run_loop
                0x0000000010010cf8        0x0 Output\obj\driver\driver_clk.o
 .rela.text.usb_init
                0x0000000010010cf8        0x0 Output\obj\driver\driver_clk.o
 .rela.text.usb_interrupt_init
                0x0000000010010cf8        0x0 Output\obj\driver\driver_clk.o
 .rela.text.ude_init
                0x0000000010010cf8        0x0 Output\obj\driver\driver_clk.o
 .rela.text.usb_device_exit
                0x0000000010010cf8        0x0 Output\obj\driver\driver_clk.o
 .rela.com_text.wl.isr.con
                0x0000000010010cf8        0x0 Output\obj\driver\driver_clk.o
 .rela.text.wl.api
                0x0000000010010cf8        0x0 Output\obj\driver\driver_clk.o
 .rela.com_text.wl.api
                0x0000000010010cf8        0x0 Output\obj\driver\driver_clk.o
 .rela.text     0x0000000010010cf8        0x0 Output\obj\driver\driver_clk.o
 .rela.com_text.bt.timer
                0x0000000010010cf8        0x0 Output\obj\driver\driver_clk.o
 .rela.com_text.sleep
                0x0000000010010cf8        0x0 Output\obj\driver\driver_clk.o
 .rela.com_text.bb.run_loop
                0x0000000010010cf8        0x0 Output\obj\driver\driver_clk.o
 .rela.rodata   0x0000000010010cf8        0x0 Output\obj\driver\driver_clk.o
 .rela.com_text.bb.isr
                0x0000000010010cf8        0x0 Output\obj\driver\driver_clk.o
 .rela.com_sleep.bb
                0x0000000010010cf8        0x0 Output\obj\driver\driver_clk.o
 .rela.text.bb.aes
                0x0000000010010cf8        0x0 Output\obj\driver\driver_clk.o
 .rela.text.ble.var.init
                0x0000000010010cf8        0x0 Output\obj\driver\driver_clk.o
 .rela.com_text.bb.buf
                0x0000000010010cf8        0x0 Output\obj\driver\driver_clk.o
 .rela.text.le.stack
                0x0000000010010cf8        0x0 Output\obj\driver\driver_clk.o
 .rela.com_text.ble.isr.con
                0x0000000010010cf8        0x0 Output\obj\driver\driver_clk.o
 .rela.com_text.ble.isr.con.end
                0x0000000010010cf8        0x0 Output\obj\driver\driver_clk.o
 .rela.com_text.ble.init
                0x0000000010010cf8        0x0 Output\obj\driver\driver_clk.o
 .rela.text.bb.ble.test.start
                0x0000000010010cf8        0x0 Output\obj\driver\driver_clk.o
 .rela.text.le.ll_cntl
                0x0000000010010cf8        0x0 Output\obj\driver\driver_clk.o
 .rela.text.le.ll_cntl.start
                0x0000000010010cf8        0x0 Output\obj\driver\driver_clk.o
 .rela.text.le.ll_cntl.send
                0x0000000010010cf8        0x0 Output\obj\driver\driver_clk.o
 .rela.rodata.le.ll_cntl.tbl
                0x0000000010010cf8        0x0 Output\obj\driver\driver_clk.o
 .rela.text.le.ll_cntl.pdu
                0x0000000010010cf8        0x0 Output\obj\driver\driver_clk.o
 .rela.com_rodata.bb.tbl
                0x0000000010010cf8        0x0 Output\obj\driver\driver_clk.o
 .rela.com_text.ble.isr
                0x0000000010010cf8        0x0 Output\obj\driver\driver_clk.o
 .rela.com_text.bb.rf
                0x0000000010010cf8        0x0 Output\obj\driver\driver_clk.o
 .rela.text.rf.tx_tone
                0x0000000010010cf8        0x0 Output\obj\driver\driver_clk.o
 .rela.com_sleep.rfphy.init
                0x0000000010010cf8        0x0 Output\obj\driver\driver_clk.o
 .rela.com_sleep.rf
                0x0000000010010cf8        0x0 Output\obj\driver\driver_clk.o
 .rela.text.bb.aes.ecpy
                0x0000000010010cf8        0x0 Output\obj\driver\driver_clk.o
 .rela.com_text.bb.prog
                0x0000000010010cf8        0x0 Output\obj\driver\driver_clk.o
 .rela.com_text.md.nanos
                0x0000000010010cf8        0x0 Output\obj\driver\driver_clk.o
 .rela.text.le.ll_scan
                0x0000000010010cf8        0x0 Output\obj\driver\driver_clk.o
 .rela.text.le.mgr
                0x0000000010010cf8        0x0 Output\obj\driver\driver_clk.o
 .rela.rodata.le.mgr_cntl.tbl
                0x0000000010010cf8        0x0 Output\obj\driver\driver_clk.o
 .rela.text.bb.vs.fcc
                0x0000000010010cf8        0x0 Output\obj\driver\driver_clk.o
                0x0000000010010cf8        0x4 LONG 0x0
                0x0000000010010e00                . = ALIGN (0x200)
 *fill*         0x0000000010010cfc      0x104 

.stack          0x0000000000010800      0x400
                0x0000000000010800                __irq_stack_start = .
                0x0000000000000400                . = 0x400
 *fill*         0x0000000000010800      0x400 
                0x0000000000010c00                __irq_stack = .
                0x0000000000000400                __irq_stack_size = (__irq_stack - __irq_stack_start)
                0x000000000000f200                __bank_size = SIZEOF (.flash)
                0x0000000010000200                __comm_lma = LOADADDR (.comm)
                0x0000000000001700                __comm_size = SIZEOF (.comm)
                0x0000000010001900                __pdn_comm_lma = LOADADDR (.pdn_comm)
                0x0000000000000200                __pdn_comm_size = SIZEOF (.pdn_comm)
LOAD ..\..\..\libs\cpu\libplatform.a
LOAD ..\..\..\libs\cpu\libm.a
LOAD ..\..\..\libs\cpu\libc.a
LOAD ..\..\..\libs\cpu\libgcc.a
LOAD ..\..\..\libs\usb\libusb.a
LOAD ..\..\..\libs\wireless\libwireless_master.a
OUTPUT(Output\bin\app.rv32 elf32-littleriscv)

.comment        0x0000000000000000       0x23
 .comment       0x0000000000000000       0x11 Output\obj\driver\driver_clk.o
                                         0x12 (size before relaxing)
 .comment       0x0000000000000011       0x12 Output\obj\driver\driver_gpio.o
 .comment       0x0000000000000011       0x12 Output\obj\driver\driver_lowpwr.o
 .comment       0x0000000000000011       0x12 Output\obj\driver\driver_saradc.o
 .comment       0x0000000000000011       0x12 Output\obj\driver\driver_uart.o
 .comment       0x0000000000000011       0x12 Output\obj\project\solution\wireless_remote_dongle\app\func.o
 .comment       0x0000000000000011       0x12 Output\obj\project\solution\wireless_remote_dongle\app\func_idle.o
 .comment       0x0000000000000011       0x12 Output\obj\project\solution\wireless_remote_dongle\app\func_lowpwr.o
 .comment       0x0000000000000011       0x12 Output\obj\project\solution\wireless_remote_dongle\app\func_wireless.o
 .comment       0x0000000000000011       0x12 Output\obj\project\solution\wireless_remote_dongle\bsp\bsp_param.o
 .comment       0x0000000000000011       0x12 Output\obj\project\solution\wireless_remote_dongle\bsp\bsp_sys.o
 .comment       0x0000000000000011       0x12 Output\obj\project\solution\wireless_remote_dongle\bsp\bsp_uart_debug.o
 .comment       0x0000000000000011       0x12 Output\obj\project\solution\wireless_remote_dongle\main.o
 .comment       0x0000000000000011       0x12 Output\obj\project\solution\wireless_remote_dongle\modules\usb\src\usb_audio.o
 .comment       0x0000000000000011       0x12 Output\obj\project\solution\wireless_remote_dongle\modules\usb\src\usb_audio_desc.o
 .comment       0x0000000000000011       0x12 Output\obj\project\solution\wireless_remote_dongle\modules\usb\src\usb_com.o
 .comment       0x0000000000000011       0x12 Output\obj\project\solution\wireless_remote_dongle\modules\usb\src\usb_desc.o
 .comment       0x0000000000000011       0x12 Output\obj\project\solution\wireless_remote_dongle\modules\usb\src\usb_dev_enum.o
 .comment       0x0000000000000011       0x12 Output\obj\project\solution\wireless_remote_dongle\modules\usb\src\usb_hid.o
 .comment       0x0000000000000011       0x12 Output\obj\project\solution\wireless_remote_dongle\modules\usb\src\usb_hid_desc.o
 .comment       0x0000000000000011       0x12 Output\obj\project\solution\wireless_remote_dongle\modules\usb\usr\usb_usr_audio.o
 .comment       0x0000000000000011       0x12 Output\obj\project\solution\wireless_remote_dongle\modules\usb\usr\usb_usr_hid.o
 .comment       0x0000000000000011       0x12 Output\obj\project\solution\wireless_remote_dongle\modules\wireless\wireless_client.o
 .comment       0x0000000000000011       0x12 Output\obj\project\solution\wireless_remote_dongle\modules\wireless\wireless_init.o
 .comment       0x0000000000000011       0x12 Output\obj\project\solution\wireless_remote_dongle\prod_test\prod_test.o
 .comment       0x0000000000000011       0x12 Output\obj\project\solution\wireless_remote_dongle\strong_symbol.o
 .comment       0x0000000000000011       0x12 ..\..\..\libs\cpu\libplatform.a(cm.o)
                                         0x13 (size before relaxing)
 .comment       0x0000000000000023       0x13 ..\..\..\libs\cpu\libplatform.a(os_flash.o)
 .comment       0x0000000000000023       0x13 ..\..\..\libs\cpu\libplatform.a(xcfg.o)
 .comment       0x0000000000000023       0x13 ..\..\..\libs\cpu\libplatform.a(adpcm.o)
 .comment       0x0000000000000023       0x13 ..\..\..\libs\cpu\libplatform.a(device.o)
 .comment       0x0000000000000023       0x13 ..\..\..\libs\cpu\libplatform.a(main.o)
 .comment       0x0000000000000023       0x13 ..\..\..\libs\cpu\libplatform.a(interrupt.o)
 .comment       0x0000000000000023       0x13 ..\..\..\libs\cpu\libplatform.a(startup.o)
 .comment       0x0000000000000023       0x13 ..\..\..\libs\cpu\libplatform.a(sys_hook.o)
 .comment       0x0000000000000023       0x13 ..\..\..\libs\cpu\libplatform.a(thread_driver.o)
 .comment       0x0000000000000023       0x13 ..\..\..\libs\cpu\libplatform.a(pll.o)
 .comment       0x0000000000000023       0x13 ..\..\..\libs\cpu\libplatform.a(pmu.o)
 .comment       0x0000000000000023       0x13 ..\..\..\libs\cpu\libplatform.a(debug.o)
 .comment       0x0000000000000023       0x13 ..\..\..\libs\cpu\libplatform.a(lock.o)
 .comment       0x0000000000000023       0x13 ..\..\..\libs\cpu\libplatform.a(patch.o)
 .comment       0x0000000000000023       0x13 ..\..\..\libs\cpu\libplatform.a(sys.o)
 .comment       0x0000000000000023       0x13 ..\..\..\libs\cpu\libplatform.a(sys_clk.o)
 .comment       0x0000000000000023       0x13 ..\..\..\libs\cpu\libplatform.a(voltage_trim.o)
 .comment       0x0000000000000023       0x13 ..\..\..\libs\cpu\libplatform.a(weak_symbol.o)
 .comment       0x0000000000000023       0x13 ..\..\..\libs\cpu\libplatform.a(freq_det.o)
 .comment       0x0000000000000023       0x13 ..\..\..\libs\usb\libusb.a(usb_comm.o)
 .comment       0x0000000000000023       0x13 ..\..\..\libs\usb\libusb.a(usb_detect.o)
 .comment       0x0000000000000023       0x13 ..\..\..\libs\usb\libusb.a(usb_device_enum.o)
 .comment       0x0000000000000023       0x13 ..\..\..\libs\usb\libusb.a(usb_device_ep.o)
 .comment       0x0000000000000023       0x13 ..\..\..\libs\usb\libusb.a(usb_device_run_loop.o)
 .comment       0x0000000000000023       0x13 ..\..\..\libs\wireless\libwireless_master.a(wireless_api.o)
 .comment       0x0000000000000023       0x13 ..\..\..\libs\wireless\libwireless_master.a(bb_api.o)
 .comment       0x0000000000000023       0x13 ..\..\..\libs\wireless\libwireless_master.a(bb.o)
 .comment       0x0000000000000023       0x13 ..\..\..\libs\wireless\libwireless_master.a(bb_alarm.o)
 .comment       0x0000000000000023       0x13 ..\..\..\libs\wireless\libwireless_master.a(bb_int.o)
 .comment       0x0000000000000023       0x13 ..\..\..\libs\wireless\libwireless_master.a(ble.o)
 .comment       0x0000000000000023       0x13 ..\..\..\libs\wireless\libwireless_master.a(ble_buf.o)
 .comment       0x0000000000000023       0x13 ..\..\..\libs\wireless\libwireless_master.a(ble_con.o)
 .comment       0x0000000000000023       0x13 ..\..\..\libs\wireless\libwireless_master.a(ble_hal.o)
 .comment       0x0000000000000023       0x13 ..\..\..\libs\wireless\libwireless_master.a(ble_init.o)
 .comment       0x0000000000000023       0x13 ..\..\..\libs\wireless\libwireless_master.a(ble_scan.o)
 .comment       0x0000000000000023       0x13 ..\..\..\libs\wireless\libwireless_master.a(ble_sync.o)
 .comment       0x0000000000000023       0x13 ..\..\..\libs\wireless\libwireless_master.a(ble_test.o)
 .comment       0x0000000000000023       0x13 ..\..\..\libs\wireless\libwireless_master.a(ll.o)
 .comment       0x0000000000000023       0x13 ..\..\..\libs\wireless\libwireless_master.a(ll_cntl.o)
 .comment       0x0000000000000023       0x13 ..\..\..\libs\wireless\libwireless_master.a(ll_con_upd.o)
 .comment       0x0000000000000023       0x13 ..\..\..\libs\wireless\libwireless_master.a(ll_encrypt.o)
 .comment       0x0000000000000023       0x13 ..\..\..\libs\wireless\libwireless_master.a(ll_feature.o)
 .comment       0x0000000000000023       0x13 ..\..\..\libs\wireless\libwireless_master.a(ll_length.o)
 .comment       0x0000000000000023       0x13 ..\..\..\libs\wireless\libwireless_master.a(ll_phy_upd.o)
 .comment       0x0000000000000023       0x13 ..\..\..\libs\wireless\libwireless_master.a(ll_proc.o)
 .comment       0x0000000000000023       0x13 ..\..\..\libs\wireless\libwireless_master.a(ll_version.o)
 .comment       0x0000000000000023       0x13 ..\..\..\libs\wireless\libwireless_master.a(mgr.o)
 .comment       0x0000000000000023       0x13 ..\..\..\libs\wireless\libwireless_master.a(mgr_proc.o)
 .comment       0x0000000000000023       0x13 ..\..\..\libs\wireless\libwireless_master.a(mgr_test.o)
 .comment       0x0000000000000023       0x13 ..\..\..\libs\wireless\libwireless_master.a(hct.o)
 .comment       0x0000000000000023       0x13 ..\..\..\libs\wireless\libwireless_master.a(hct_msg.o)
 .comment       0x0000000000000023       0x13 ..\..\..\libs\wireless\libwireless_master.a(hct_proc.o)
 .comment       0x0000000000000023       0x13 ..\..\..\libs\wireless\libwireless_master.a(ble_hook.o)
 .comment       0x0000000000000023       0x13 ..\..\..\libs\wireless\libwireless_master.a(rf.o)
 .comment       0x0000000000000023       0x13 ..\..\..\libs\wireless\libwireless_master.a(rf_mate.o)
 .comment       0x0000000000000023       0x13 ..\..\..\libs\wireless\libwireless_master.a(vs.o)
 .comment       0x0000000000000023       0x13 ..\..\..\libs\wireless\libwireless_master.a(vs_proc.o)
 .comment       0x0000000000000023       0x13 ..\..\..\libs\wireless\libwireless_master.a(wireless.o)
 .comment       0x0000000000000023       0x13 ..\..\..\libs\wireless\libwireless_master.a(wireless_proc.o)
 .comment       0x0000000000000023       0x13 ..\..\..\libs\wireless\libwireless_master.a(extern.o)
 .comment       0x0000000000000023       0x13 ..\..\..\libs\wireless\libwireless_master.a(aes.o)
 .comment       0x0000000000000023       0x13 ..\..\..\libs\wireless\libwireless_master.a(platform.o)
 .comment       0x0000000000000023       0x13 ..\..\..\libs\wireless\libwireless_master.a(bb_clk.o)
 .comment       0x0000000000000023       0x13 ..\..\..\libs\wireless\libwireless_master.a(bb_dbg.o)
 .comment       0x0000000000000023       0x13 ..\..\..\libs\wireless\libwireless_master.a(patch.o)
 .comment       0x0000000000000023       0x13 ..\..\..\libs\wireless\libwireless_master.a(bb_sche.o)
 .comment       0x0000000000000023       0x13 ..\..\..\libs\wireless\libwireless_master.a(nanos.o)
 .comment       0x0000000000000023       0x13 ..\..\..\libs\wireless\libwireless_master.a(bb_utils.o)
 .comment       0x0000000000000023       0x13 ..\..\..\libs\wireless\libwireless_master.a(ll_chmap_upd.o)
 .comment       0x0000000000000023       0x13 ..\..\..\libs\wireless\libwireless_master.a(ll_clk_acc.o)
 .comment       0x0000000000000023       0x13 ..\..\..\libs\wireless\libwireless_master.a(ll_disconnect.o)
 .comment       0x0000000000000023       0x13 ..\..\..\libs\wireless\libwireless_master.a(ll_scan.o)
 .comment       0x0000000000000023       0x13 ..\..\..\libs\wireless\libwireless_master.a(mgr_hci.o)
 .comment       0x0000000000000023       0x13 ..\..\..\libs\wireless\libwireless_master.a(mgr_init.o)
 .comment       0x0000000000000023       0x13 ..\..\..\libs\wireless\libwireless_master.a(scan_hook.o)
 .comment       0x0000000000000023       0x13 ..\..\..\libs\wireless\libwireless_master.a(vs_fcc.o)
 .comment       0x0000000000000023       0x13 ..\..\..\libs\wireless\libwireless_master.a(thread.o)

.riscv.attributes
                0x0000000000000000      0xfd0
 .riscv.attributes
                0x0000000000000000       0x32 ..\..\..\libs\cpu\libplatform.a(cm.o)
 .riscv.attributes
                0x0000000000000032       0x32 ..\..\..\libs\cpu\libplatform.a(os_flash.o)
 .riscv.attributes
                0x0000000000000064       0x32 ..\..\..\libs\cpu\libplatform.a(xcfg.o)
 .riscv.attributes
                0x0000000000000096       0x32 ..\..\..\libs\cpu\libplatform.a(adpcm.o)
 .riscv.attributes
                0x00000000000000c8       0x32 ..\..\..\libs\cpu\libplatform.a(device.o)
 .riscv.attributes
                0x00000000000000fa       0x32 ..\..\..\libs\cpu\libplatform.a(main.o)
 .riscv.attributes
                0x000000000000012c       0x32 ..\..\..\libs\cpu\libplatform.a(interrupt.o)
 .riscv.attributes
                0x000000000000015e       0x32 ..\..\..\libs\cpu\libplatform.a(startup.o)
 .riscv.attributes
                0x0000000000000190       0x32 ..\..\..\libs\cpu\libplatform.a(sys_hook.o)
 .riscv.attributes
                0x00000000000001c2       0x32 ..\..\..\libs\cpu\libplatform.a(thread_driver.o)
 .riscv.attributes
                0x00000000000001f4       0x32 ..\..\..\libs\cpu\libplatform.a(pll.o)
 .riscv.attributes
                0x0000000000000226       0x32 ..\..\..\libs\cpu\libplatform.a(pmu.o)
 .riscv.attributes
                0x0000000000000258       0x34 ..\..\..\libs\cpu\libplatform.a(reset.o)
 .riscv.attributes
                0x000000000000028c       0x32 ..\..\..\libs\cpu\libplatform.a(debug.o)
 .riscv.attributes
                0x00000000000002be       0x32 ..\..\..\libs\cpu\libplatform.a(lock.o)
 .riscv.attributes
                0x00000000000002f0       0x32 ..\..\..\libs\cpu\libplatform.a(patch.o)
 .riscv.attributes
                0x0000000000000322       0x30 ..\..\..\libs\cpu\libplatform.a(s_sys.o)
 .riscv.attributes
                0x0000000000000352       0x32 ..\..\..\libs\cpu\libplatform.a(sys.o)
 .riscv.attributes
                0x0000000000000384       0x32 ..\..\..\libs\cpu\libplatform.a(sys_clk.o)
 .riscv.attributes
                0x00000000000003b6       0x32 ..\..\..\libs\cpu\libplatform.a(voltage_trim.o)
 .riscv.attributes
                0x00000000000003e8       0x32 ..\..\..\libs\cpu\libplatform.a(weak_symbol.o)
 .riscv.attributes
                0x000000000000041a       0x32 ..\..\..\libs\cpu\libplatform.a(freq_det.o)
 .riscv.attributes
                0x000000000000044c       0x32 ..\..\..\libs\usb\libusb.a(usb_comm.o)
 .riscv.attributes
                0x000000000000047e       0x32 ..\..\..\libs\usb\libusb.a(usb_detect.o)
 .riscv.attributes
                0x00000000000004b0       0x32 ..\..\..\libs\usb\libusb.a(usb_device_enum.o)
 .riscv.attributes
                0x00000000000004e2       0x32 ..\..\..\libs\usb\libusb.a(usb_device_ep.o)
 .riscv.attributes
                0x0000000000000514       0x32 ..\..\..\libs\usb\libusb.a(usb_device_run_loop.o)
 .riscv.attributes
                0x0000000000000546       0x32 ..\..\..\libs\wireless\libwireless_master.a(wireless_api.o)
 .riscv.attributes
                0x0000000000000578       0x32 ..\..\..\libs\wireless\libwireless_master.a(bb_api.o)
 .riscv.attributes
                0x00000000000005aa       0x32 ..\..\..\libs\wireless\libwireless_master.a(bb.o)
 .riscv.attributes
                0x00000000000005dc       0x32 ..\..\..\libs\wireless\libwireless_master.a(bb_alarm.o)
 .riscv.attributes
                0x000000000000060e       0x32 ..\..\..\libs\wireless\libwireless_master.a(bb_int.o)
 .riscv.attributes
                0x0000000000000640       0x32 ..\..\..\libs\wireless\libwireless_master.a(ble.o)
 .riscv.attributes
                0x0000000000000672       0x32 ..\..\..\libs\wireless\libwireless_master.a(ble_buf.o)
 .riscv.attributes
                0x00000000000006a4       0x32 ..\..\..\libs\wireless\libwireless_master.a(ble_con.o)
 .riscv.attributes
                0x00000000000006d6       0x32 ..\..\..\libs\wireless\libwireless_master.a(ble_hal.o)
 .riscv.attributes
                0x0000000000000708       0x32 ..\..\..\libs\wireless\libwireless_master.a(ble_init.o)
 .riscv.attributes
                0x000000000000073a       0x32 ..\..\..\libs\wireless\libwireless_master.a(ble_scan.o)
 .riscv.attributes
                0x000000000000076c       0x32 ..\..\..\libs\wireless\libwireless_master.a(ble_sync.o)
 .riscv.attributes
                0x000000000000079e       0x32 ..\..\..\libs\wireless\libwireless_master.a(ble_test.o)
 .riscv.attributes
                0x00000000000007d0       0x32 ..\..\..\libs\wireless\libwireless_master.a(ll.o)
 .riscv.attributes
                0x0000000000000802       0x32 ..\..\..\libs\wireless\libwireless_master.a(ll_cntl.o)
 .riscv.attributes
                0x0000000000000834       0x32 ..\..\..\libs\wireless\libwireless_master.a(ll_con_upd.o)
 .riscv.attributes
                0x0000000000000866       0x32 ..\..\..\libs\wireless\libwireless_master.a(ll_encrypt.o)
 .riscv.attributes
                0x0000000000000898       0x32 ..\..\..\libs\wireless\libwireless_master.a(ll_feature.o)
 .riscv.attributes
                0x00000000000008ca       0x32 ..\..\..\libs\wireless\libwireless_master.a(ll_length.o)
 .riscv.attributes
                0x00000000000008fc       0x32 ..\..\..\libs\wireless\libwireless_master.a(ll_phy_upd.o)
 .riscv.attributes
                0x000000000000092e       0x32 ..\..\..\libs\wireless\libwireless_master.a(ll_proc.o)
 .riscv.attributes
                0x0000000000000960       0x32 ..\..\..\libs\wireless\libwireless_master.a(ll_version.o)
 .riscv.attributes
                0x0000000000000992       0x32 ..\..\..\libs\wireless\libwireless_master.a(mgr.o)
 .riscv.attributes
                0x00000000000009c4       0x32 ..\..\..\libs\wireless\libwireless_master.a(mgr_proc.o)
 .riscv.attributes
                0x00000000000009f6       0x32 ..\..\..\libs\wireless\libwireless_master.a(mgr_test.o)
 .riscv.attributes
                0x0000000000000a28       0x32 ..\..\..\libs\wireless\libwireless_master.a(hct.o)
 .riscv.attributes
                0x0000000000000a5a       0x32 ..\..\..\libs\wireless\libwireless_master.a(hct_msg.o)
 .riscv.attributes
                0x0000000000000a8c       0x32 ..\..\..\libs\wireless\libwireless_master.a(hct_proc.o)
 .riscv.attributes
                0x0000000000000abe       0x32 ..\..\..\libs\wireless\libwireless_master.a(ble_hook.o)
 .riscv.attributes
                0x0000000000000af0       0x32 ..\..\..\libs\wireless\libwireless_master.a(rf.o)
 .riscv.attributes
                0x0000000000000b22       0x32 ..\..\..\libs\wireless\libwireless_master.a(rf_mate.o)
 .riscv.attributes
                0x0000000000000b54       0x32 ..\..\..\libs\wireless\libwireless_master.a(vs.o)
 .riscv.attributes
                0x0000000000000b86       0x32 ..\..\..\libs\wireless\libwireless_master.a(vs_proc.o)
 .riscv.attributes
                0x0000000000000bb8       0x32 ..\..\..\libs\wireless\libwireless_master.a(wireless.o)
 .riscv.attributes
                0x0000000000000bea       0x32 ..\..\..\libs\wireless\libwireless_master.a(wireless_proc.o)
 .riscv.attributes
                0x0000000000000c1c       0x32 ..\..\..\libs\wireless\libwireless_master.a(extern.o)
 .riscv.attributes
                0x0000000000000c4e       0x32 ..\..\..\libs\wireless\libwireless_master.a(aes.o)
 .riscv.attributes
                0x0000000000000c80       0x32 ..\..\..\libs\wireless\libwireless_master.a(platform.o)
 .riscv.attributes
                0x0000000000000cb2       0x32 ..\..\..\libs\wireless\libwireless_master.a(bb_clk.o)
 .riscv.attributes
                0x0000000000000ce4       0x32 ..\..\..\libs\wireless\libwireless_master.a(bb_dbg.o)
 .riscv.attributes
                0x0000000000000d16       0x32 ..\..\..\libs\wireless\libwireless_master.a(patch.o)
 .riscv.attributes
                0x0000000000000d48       0x30 ..\..\..\libs\wireless\libwireless_master.a(patch_asm.o)
 .riscv.attributes
                0x0000000000000d78       0x32 ..\..\..\libs\wireless\libwireless_master.a(bb_sche.o)
 .riscv.attributes
                0x0000000000000daa       0x32 ..\..\..\libs\wireless\libwireless_master.a(nanos.o)
 .riscv.attributes
                0x0000000000000ddc       0x32 ..\..\..\libs\wireless\libwireless_master.a(bb_utils.o)
 .riscv.attributes
                0x0000000000000e0e       0x32 ..\..\..\libs\wireless\libwireless_master.a(ll_chmap_upd.o)
 .riscv.attributes
                0x0000000000000e40       0x32 ..\..\..\libs\wireless\libwireless_master.a(ll_clk_acc.o)
 .riscv.attributes
                0x0000000000000e72       0x32 ..\..\..\libs\wireless\libwireless_master.a(ll_disconnect.o)
 .riscv.attributes
                0x0000000000000ea4       0x32 ..\..\..\libs\wireless\libwireless_master.a(ll_scan.o)
 .riscv.attributes
                0x0000000000000ed6       0x32 ..\..\..\libs\wireless\libwireless_master.a(mgr_hci.o)
 .riscv.attributes
                0x0000000000000f08       0x32 ..\..\..\libs\wireless\libwireless_master.a(mgr_init.o)
 .riscv.attributes
                0x0000000000000f3a       0x32 ..\..\..\libs\wireless\libwireless_master.a(scan_hook.o)
 .riscv.attributes
                0x0000000000000f6c       0x32 ..\..\..\libs\wireless\libwireless_master.a(vs_fcc.o)
 .riscv.attributes
                0x0000000000000f9e       0x32 ..\..\..\libs\wireless\libwireless_master.a(thread.o)
