Archive member included to satisfy reference by file (symbol)

..\..\..\libs\cpu\libplatform.a(audio_mic.o)
                              Output\obj\driver\driver_saradc.o (audio_mic_analog_init)
..\..\..\libs\cpu\libplatform.a(audio_mic_trim.o)
                              ..\..\..\libs\cpu\libplatform.a(audio_mic.o) (audio_mic_trim_sta_set)
..\..\..\libs\cpu\libplatform.a(cm.o)
                              Output\obj\project\solution\ble_hid_composite\bsp\bsp_param.o (cm_sync)
..\..\..\libs\cpu\libplatform.a(os_flash.o)
                              ..\..\..\libs\cpu\libplatform.a(cm.o) (os_spiflash_program)
..\..\..\libs\cpu\libplatform.a(xcfg.o)
                              Output\obj\project\solution\ble_hid_composite\bsp\bsp_sys.o (xcfg_init)
..\..\..\libs\cpu\libplatform.a(main.o)
                              Output\obj\project\solution\ble_hid_composite\app\func_lowpwr.o (delay_5ms)
..\..\..\libs\cpu\libplatform.a(interrupt.o)
                              Output\obj\driver\driver_gpio.o (sys_irq_init)
..\..\..\libs\cpu\libplatform.a(startup.o)
                              ..\..\..\libs\cpu\libplatform.a(interrupt.o) (soft_timer_isr_en)
..\..\..\libs\cpu\libplatform.a(sys_hook.o)
                              ..\..\..\libs\cpu\libplatform.a(startup.o) (sys_hook_init)
..\..\..\libs\cpu\libplatform.a(thread_driver.o)
                              ..\..\..\libs\cpu\libplatform.a(startup.o) (thread_driver_entry)
..\..\..\libs\cpu\libplatform.a(pll.o)
                              ..\..\..\libs\cpu\libplatform.a(main.o) (pll0_disable)
..\..\..\libs\cpu\libplatform.a(pmu.o)
                              Output\obj\project\solution\ble_hid_composite\bsp\bsp_saradc_vbat.o (pmu_get_vddio)
..\..\..\libs\cpu\libplatform.a(reset.o)
                              (_start)
..\..\..\libs\cpu\libplatform.a(context.o)
                              Output\obj\driver\driver_lowpwr.o (lp_sleep)
..\..\..\libs\cpu\libplatform.a(debug.o)
                              ..\..\..\libs\cpu\libplatform.a(reset.o) (exception_isr)
..\..\..\libs\cpu\libplatform.a(fot_pack.o)
                              Output\obj\project\solution\ble_hid_composite\ble\ble_fota_service.o (ota_pack_init)
..\..\..\libs\cpu\libplatform.a(key.o)
                              Output\obj\project\solution\ble_hid_composite\bsp\bsp_key.o (multiple_key_init)
..\..\..\libs\cpu\libplatform.a(lock.o)
                              ..\..\..\libs\cpu\libplatform.a(main.o) (lock_init)
..\..\..\libs\cpu\libplatform.a(patch.o)
                              ..\..\..\libs\cpu\libplatform.a(main.o) (patch_init)
..\..\..\libs\cpu\libplatform.a(s_sys.o)
                              ..\..\..\libs\cpu\libplatform.a(startup.o) (dummy_func)
..\..\..\libs\cpu\libplatform.a(sleep.o)
                              Output\obj\driver\driver_lowpwr.o (lowpwr_sleep_sfr_save)
..\..\..\libs\cpu\libplatform.a(sys.o)
                              Output\obj\project\solution\ble_hid_composite\main.o (sys_rst_init)
..\..\..\libs\cpu\libplatform.a(sys_clk.o)
                              Output\obj\project\solution\ble_hid_composite\ble\ble_fota_service.o (sys_clk_get_cur)
..\..\..\libs\cpu\libplatform.a(voltage_trim.o)
                              Output\obj\project\solution\ble_hid_composite\bsp\bsp_saradc_vbat.o (pmu_get_vbg_mv)
..\..\..\libs\cpu\libplatform.a(weak_symbol.o)
                              ..\..\..\libs\cpu\libplatform.a(main.o) (xosc_24m_div_get)
..\..\..\libs\cpu\libplatform.a(bt.o)
                              ..\..\..\libs\cpu\libplatform.a(startup.o) (thread_btstack_entry)
..\..\..\libs\cpu\libplatform.a(freq_det.o)
                              ..\..\..\libs\cpu\libplatform.a(sleep.o) (freq_det_kick)
..\..\..\libs\ble\libbtstack.a(bb_api.o)
                              Output\obj\project\solution\ble_hid_composite\ble\ble_alarm.o (ble_alarm_timer_init)
..\..\..\libs\ble\libbtstack.a(bb_int.o)
                              ..\..\..\libs\ble\libbtstack.a(bb_api.o) (bb_sleep)
..\..\..\libs\ble\libbtstack.a(bb_alarm.o)
                              ..\..\..\libs\ble\libbtstack.a(bb_api.o) (bb_timer_queue_check)
..\..\..\libs\ble\libbtstack.a(txpkt.o)
                              Output\obj\project\solution\ble_hid_composite\ble\ble_init.o (txpkt_init)
..\..\..\libs\ble\libbtstack.a(sm.o)
                              Output\obj\project\solution\ble_hid_composite\ble\ble_init.o (ble_sm_init)
..\..\..\libs\ble\libbtstack.a(le_device_db_memory.o)
                              ..\..\..\libs\ble\libbtstack.a(sm.o) (le_device_db_count)
..\..\..\libs\ble\libbtstack.a(gatt_server.o)
                              Output\obj\project\solution\ble_hid_composite\ble\ble_battery_service.o (ble_notify_for_handle)
..\..\..\libs\ble\libbtstack.a(gatt_client.o)
                              Output\obj\project\solution\ble_hid_composite\ble\ble_client.o (att_client_register_handler)
..\..\..\libs\ble\libbtstack.a(att_server.o)
                              Output\obj\project\solution\ble_hid_composite\ble\ble_battery_service.o (att_server_register_service_handler)
..\..\..\libs\ble\libbtstack.a(att_dispatch.o)
                              ..\..\..\libs\ble\libbtstack.a(gatt_client.o) (att_dispatch_register_client)
..\..\..\libs\ble\libbtstack.a(att_db.o)
                              ..\..\..\libs\ble\libbtstack.a(att_server.o) (att_set_db)
..\..\..\libs\ble\libbtstack.a(btstack_api.o)
                              Output\obj\project\solution\ble_hid_composite\ble\ble_init.o (btstack_init)
..\..\..\libs\ble\libbtstack.a(ble_api.o)
                              ..\..\..\libs\ble\libbtstack.a(btstack_api.o) (ble_msg_free_prepare)
..\..\..\libs\ble\libbtstack.a(txpkt.o)
                              ..\..\..\libs\ble\libbtstack.a(txpkt.o) (txpkt_mem_init)
..\..\..\libs\ble\libbtstack.a(aes.o)
                              ..\..\..\libs\ble\libbtstack.a(bb_int.o) (aes_result_handler)
..\..\..\libs\ble\libbtstack.a(extern.o)
                              ..\..\..\libs\ble\libbtstack.a(bb_int.o) (sleep_max_duration)
..\..\..\libs\ble\libbtstack.a(rf.o)
                              ..\..\..\libs\ble\libbtstack.a(bb_int.o) (rf_sleep)
..\..\..\libs\ble\libbtstack.a(hct_tl.o)
                              ..\..\..\libs\ble\libbtstack.a(bb_int.o) (hct_queue_is_empty)
..\..\..\libs\ble\libbtstack.a(ble_con.o)
                              ..\..\..\libs\ble\libbtstack.a(btstack_api.o) (ble_get_con_rssi)
..\..\..\libs\ble\libbtstack.a(ble_buf.o)
                              ..\..\..\libs\ble\libbtstack.a(ble_api.o) (ble_msg_malloc)
..\..\..\libs\ble\libbtstack.a(ble.o)
                              ..\..\..\libs\ble\libbtstack.a(bb_int.o) (ble_isr)
..\..\..\libs\ble\libbtstack.a(bb_utils.o)
                              ..\..\..\libs\ble\libbtstack.a(ble_con.o) (bb_sca2ppm)
..\..\..\libs\ble\libbtstack.a(bb_sleep.o)
                              ..\..\..\libs\ble\libbtstack.a(bb_int.o) (bb_sleep_suspend)
..\..\..\libs\ble\libbtstack.a(bb.o)
                              ..\..\..\libs\ble\libbtstack.a(ble.o) (bb_rand_init)
..\..\..\libs\ble\libbtstack.a(platform.o)
                              ..\..\..\libs\ble\libbtstack.a(bb.o) (dummy_void)
..\..\..\libs\ble\libbtstack.a(extern_ble.o)
                              ..\..\..\libs\ble\libbtstack.a(le_device_db_memory.o) (ble_sync_link_info)
..\..\..\libs\ble\libbtstack.a(l2cap.o)
                              ..\..\..\libs\ble\libbtstack.a(btstack_api.o) (gap_request_connection_parameter_update)
..\..\..\libs\ble\libbtstack.a(hci_dump.o)
                              ..\..\..\libs\ble\libbtstack.a(btstack_api.o) (hci_dump_open)
..\..\..\libs\ble\libbtstack.a(hci_cmd.o)
                              ..\..\..\libs\ble\libbtstack.a(sm.o) (hci_le_long_term_key_negative_reply)
..\..\..\libs\ble\libbtstack.a(hci.o)
                              ..\..\..\libs\ble\libbtstack.a(sm.o) (hci_get_state)
..\..\..\libs\ble\libbtstack.a(btstack_util.o)
                              ..\..\..\libs\ble\libbtstack.a(hci.o) (bd_addr_copy)
..\..\..\libs\ble\libbtstack.a(btstack_run_loop.o)
                              ..\..\..\libs\ble\libbtstack.a(sm.o) (btstack_run_loop_set_timer_handler)
..\..\..\libs\ble\libbtstack.a(btstack_memory.o)
                              ..\..\..\libs\ble\libbtstack.a(gatt_client.o) (btstack_memory_gatt_client_get)
..\..\..\libs\ble\libbtstack.a(hci_transport_h3_controller.o)
                              ..\..\..\libs\ble\libbtstack.a(btstack_run_loop.o) (hci_is_sleep)
..\..\..\libs\ble\libbtstack.a(hci_transport_dummy.o)
                              ..\..\..\libs\ble\libbtstack.a(btstack_api.o) (hci_iodm_init)
..\..\..\libs\ble\libbtstack.a(btstack_main.o)
                              ..\..\..\libs\ble\libbtstack.a(ble_api.o) (btstack_ble_set_init_callback)
..\..\..\libs\ble\libbtstack.a(btstack_hal.o)
                              ..\..\..\libs\ble\libbtstack.a(btstack_run_loop.o) (hal_tick_init)
..\..\..\libs\ble\libbtstack.a(nanos.o)
                              ..\..\..\libs\ble\libbtstack.a(bb.o) (nanos_init)
..\..\..\libs\ble\libbtstack.a(bb_sche.o)
                              ..\..\..\libs\ble\libbtstack.a(bb.o) (bb_sche_init)
..\..\..\libs\ble\libbtstack.a(patch.o)
                              ..\..\..\libs\ble\libbtstack.a(bb.o) (bb_patch_dummy)
..\..\..\libs\ble\libbtstack.a(bb_dbg.o)
                              ..\..\..\libs\ble\libbtstack.a(bb.o) (bb_dbg_init)
..\..\..\libs\ble\libbtstack.a(bb_clk.o)
                              ..\..\..\libs\ble\libbtstack.a(bb.o) (bb_lpcycles_2_hus_hook)
..\..\..\libs\ble\libbtstack.a(vs.o)
                              ..\..\..\libs\ble\libbtstack.a(bb.o) (vs_init)
..\..\..\libs\ble\libbtstack.a(rf_mate.o)
                              ..\..\..\libs\ble\libbtstack.a(rf.o) (rfphy_sw_ctrl)
..\..\..\libs\ble\libbtstack.a(ble_hook.o)
                              ..\..\..\libs\ble\libbtstack.a(bb.o) (ble_isr_hook)
..\..\..\libs\ble\libbtstack.a(hct_proc.o)
                              ..\..\..\libs\ble\libbtstack.a(hci.o) (hct_register_handler_evt)
..\..\..\libs\ble\libbtstack.a(hct.o)
                              ..\..\..\libs\ble\libbtstack.a(bb.o) (hct_init)
..\..\..\libs\ble\libbtstack.a(mgr_hci.o)
                              ..\..\..\libs\ble\libbtstack.a(hci.o) (hci_le_rd_buff_size)
..\..\..\libs\ble\libbtstack.a(mgr.o)
                              ..\..\..\libs\ble\libbtstack.a(mgr_hci.o) (mgr_cmd_cmp_send)
..\..\..\libs\ble\libbtstack.a(ll_adv.o)
                              ..\..\..\libs\ble\libbtstack.a(mgr_hci.o) (hci_le_set_adv_param_cmd_func)
..\..\..\libs\ble\libbtstack.a(ll_tbox_freq_cal.o)
                              ..\..\..\libs\ble\libbtstack.a(ble_con.o) (ll_tbox_freq_cal)
..\..\..\libs\ble\libbtstack.a(ll_con_upd.o)
                              ..\..\..\libs\ble\libbtstack.a(ll_adv.o) (ll_con_move_cb)
..\..\..\libs\ble\libbtstack.a(ll_cntl.o)
                              ..\..\..\libs\ble\libbtstack.a(ll_tbox_freq_cal.o) (ll_cntl_send)
..\..\..\libs\ble\libbtstack.a(ll_clk_acc.o)
                              ..\..\..\libs\ble\libbtstack.a(ll_cntl.o) (ll_clk_acc_req_func)
..\..\..\libs\ble\libbtstack.a(ll_chmap_upd.o)
                              ..\..\..\libs\ble\libbtstack.a(ll_cntl.o) (ll_channel_map_ind_func)
..\..\..\libs\ble\libbtstack.a(ll.o)
                              ..\..\..\libs\ble\libbtstack.a(ble.o) (ll_init)
..\..\..\libs\ble\libbtstack.a(ble_test.o)
                              ..\..\..\libs\ble\libbtstack.a(ble.o) (ble_get_test_var)
..\..\..\libs\ble\libbtstack.a(ble_sync.o)
                              ..\..\..\libs\ble\libbtstack.a(ble.o) (ble_get_sync_var)
..\..\..\libs\ble\libbtstack.a(ble_scan.o)
                              ..\..\..\libs\ble\libbtstack.a(ble.o) (ble_get_scan_var)
..\..\..\libs\ble\libbtstack.a(ble_init.o)
                              ..\..\..\libs\ble\libbtstack.a(ble.o) (ble_get_init_var)
..\..\..\libs\ble\libbtstack.a(ble_hal.o)
                              ..\..\..\libs\ble\libbtstack.a(ble.o) (ble_get_rslv_var)
..\..\..\libs\ble\libbtstack.a(ble_adv.o)
                              ..\..\..\libs\ble\libbtstack.a(ble.o) (ble_get_adv_var)
..\..\..\libs\ble\libbtstack.a(periph.o)
                              ..\..\..\libs\ble\libbtstack.a(btstack_hal.o) (bt_uart_init)
..\..\..\libs\ble\libbtstack.a(l2cap_signaling.o)
                              ..\..\..\libs\ble\libbtstack.a(l2cap.o) (l2cap_create_signaling_le)
..\..\..\libs\ble\libbtstack.a(btstack_memory_pool.o)
                              ..\..\..\libs\ble\libbtstack.a(btstack_memory.o) (btstack_memory_pool_get)
..\..\..\libs\ble\libbtstack.a(patch_asm.o)
                              ..\..\..\libs\ble\libbtstack.a(patch.o) (bb_patch2)
..\..\..\libs\ble\libbtstack.a(platform.o)
                              ..\..\..\libs\ble\libbtstack.a(ble_hook.o) (bb_ll_tx_cb)
..\..\..\libs\ble\libbtstack.a(vs_proc.o)
                              ..\..\..\libs\ble\libbtstack.a(vs.o) (vs_env)
..\..\..\libs\ble\libbtstack.a(vs_fcc.o)
                              ..\..\..\libs\ble\libbtstack.a(vs_proc.o) (vs_fcc_test_cmd)
..\..\..\libs\ble\libbtstack.a(adv_hook.o)
                              ..\..\..\libs\ble\libbtstack.a(ll_adv.o) (ble_adv_end_ind_hook)
..\..\..\libs\ble\libbtstack.a(hct_msg.o)
                              ..\..\..\libs\ble\libbtstack.a(hct.o) (hci_look_for_cmd_desc)
..\..\..\libs\ble\libbtstack.a(mgr_test.o)
                              ..\..\..\libs\ble\libbtstack.a(mgr_hci.o) (hci_le_rx_test_v1_cmd_func)
..\..\..\libs\ble\libbtstack.a(mgr_proc.o)
                              ..\..\..\libs\ble\libbtstack.a(mgr.o) (mgr_msg_env)
..\..\..\libs\ble\libbtstack.a(ll_version.o)
                              ..\..\..\libs\ble\libbtstack.a(ll_cntl.o) (ll_version_ind_func)
..\..\..\libs\ble\libbtstack.a(ll_tbox_prod_test.o)
                              ..\..\..\libs\ble\libbtstack.a(ll_cntl.o) (ll_tbox_prod_test_req_func)
..\..\..\libs\ble\libbtstack.a(ll_tbox_feature.o)
                              ..\..\..\libs\ble\libbtstack.a(ll_cntl.o) (ll_tbox_feat_req_func)
..\..\..\libs\ble\libbtstack.a(ll_proc.o)
                              ..\..\..\libs\ble\libbtstack.a(ll_con_upd.o) (ll_cmd_stat_send)
..\..\..\libs\ble\libbtstack.a(ll_phy_upd.o)
                              ..\..\..\libs\ble\libbtstack.a(ll_cntl.o) (ll_phy_req_func)
..\..\..\libs\ble\libbtstack.a(ll_length.o)
                              ..\..\..\libs\ble\libbtstack.a(ll_cntl.o) (ll_length_req_func)
..\..\..\libs\ble\libbtstack.a(ll_feature.o)
                              ..\..\..\libs\ble\libbtstack.a(ll_cntl.o) (ll_feature_req_func)
..\..\..\libs\ble\libbtstack.a(ll_encrypt.o)
                              ..\..\..\libs\ble\libbtstack.a(ll_cntl.o) (ll_pause_enc_req_func)
..\..\..\libs\ble\libbtstack.a(ll_disconnect.o)
                              ..\..\..\libs\ble\libbtstack.a(ll_proc.o) (ll_stopped_ind_func)

Allocating common symbols
Common symbol       size              file

tmr5ms_cnt          0x2               Output\obj\project\solution\ble_hid_composite\bsp\bsp_sys.o
fot_var             0x22              Output\obj\project\solution\ble_hid_composite\ble\ble_fota_service.o
ble_user_cb         0x62              Output\obj\project\solution\ble_hid_composite\ble\ble_user_service.o
alarm_handle        0x4               Output\obj\project\solution\ble_hid_composite\ble\ble_alarm.o
sfr_user_backup     0x20              Output\obj\project\solution\ble_hid_composite\app\func_lowpwr.o
xcfg_cb             0x33              Output\obj\project\solution\ble_hid_composite\bsp\bsp_sys.o

Discarded input sections

 .text          0x0000000000000000        0x0 Output\obj\driver\driver_clk.o
 .data          0x0000000000000000        0x0 Output\obj\driver\driver_clk.o
 .bss           0x0000000000000000        0x0 Output\obj\driver\driver_clk.o
 .text.clk_gate1_cmd
                0x0000000000000000       0x16 Output\obj\driver\driver_clk.o
 .text.clk_gate2_cmd
                0x0000000000000000       0x16 Output\obj\driver\driver_clk.o
 .text.clk_clkout_set
                0x0000000000000000       0x4e Output\obj\driver\driver_clk.o
 .text.clk_clk32k_rtc_set
                0x0000000000000000       0x28 Output\obj\driver\driver_clk.o
 .text.clk_clk32k_rtc_get
                0x0000000000000000       0x46 Output\obj\driver\driver_clk.o
 .text.clk_hsut0_clk_set
                0x0000000000000000       0x18 Output\obj\driver\driver_clk.o
 .text.clk_hsut0_clk_get
                0x0000000000000000       0x1e Output\obj\driver\driver_clk.o
 .text.clk_clk2m_ks_set
                0x0000000000000000       0x2e Output\obj\driver\driver_clk.o
 .text.clk_clk2m_ks_get
                0x0000000000000000       0x3e Output\obj\driver\driver_clk.o
 .text.clk_ledc_clk_set
                0x0000000000000000       0x18 Output\obj\driver\driver_clk.o
 .text.clk_ledc_clk_get
                0x0000000000000000       0x24 Output\obj\driver\driver_clk.o
 .text.clk_irtx_mod_clk_set
                0x0000000000000000       0x16 Output\obj\driver\driver_clk.o
 .text.clk_irtx_mod_clk_get
                0x0000000000000000       0x24 Output\obj\driver\driver_clk.o
 .text.clk_irrx_clk_set
                0x0000000000000000       0x16 Output\obj\driver\driver_clk.o
 .text.clk_irtx_clk_set
                0x0000000000000000        0x8 Output\obj\driver\driver_clk.o
 .text.clk_irrx_clk_get
                0x0000000000000000       0x34 Output\obj\driver\driver_clk.o
 .text.clk_irtx_clk_get
                0x0000000000000000        0x8 Output\obj\driver\driver_clk.o
 .rodata        0x0000000000000000       0x20 Output\obj\driver\driver_clk.o
 .text          0x0000000000000000        0x0 Output\obj\driver\driver_gpio.o
 .data          0x0000000000000000        0x0 Output\obj\driver\driver_gpio.o
 .bss           0x0000000000000000        0x0 Output\obj\driver\driver_gpio.o
 .text.gpio_deinit
                0x0000000000000000       0x10 Output\obj\driver\driver_gpio.o
 .com_periph.gpio.dir
                0x0000000000000000       0x12 Output\obj\driver\driver_gpio.o
 .com_periph.gpio.set
                0x0000000000000000        0x4 Output\obj\driver\driver_gpio.o
 .com_periph.gpio.reset
                0x0000000000000000        0x4 Output\obj\driver\driver_gpio.o
 .com_periph.gpio.write
                0x0000000000000000        0x4 Output\obj\driver\driver_gpio.o
 .com_periph.gpio.toggle
                0x0000000000000000        0x8 Output\obj\driver\driver_gpio.o
 .com_periph.gpio.read_data
                0x0000000000000000        0x8 Output\obj\driver\driver_gpio.o
 .text.gpio_func_mapping_clear
                0x0000000000000000       0x7e Output\obj\driver\driver_gpio.o
 .com_periph.wk0.read_bit
                0x0000000000000000        0xa Output\obj\driver\driver_gpio.o
 .text.gpio_edge_capture_config_custom
                0x0000000000000000      0x116 Output\obj\driver\driver_gpio.o
 .text.gpio_set_reset_pin
                0x0000000000000000       0x4c Output\obj\driver\driver_gpio.o
 .com_periph.gpio.rise.src
                0x0000000000000000        0x8 Output\obj\driver\driver_gpio.o
 .com_periph.gpio.fall.src
                0x0000000000000000        0xc Output\obj\driver\driver_gpio.o
 .com_periph.gpio.pending_is
                0x0000000000000000       0x12 Output\obj\driver\driver_gpio.o
 .text          0x0000000000000000        0x0 Output\obj\driver\driver_hsuart.o
 .data          0x0000000000000000        0x0 Output\obj\driver\driver_hsuart.o
 .bss           0x0000000000000000        0x0 Output\obj\driver\driver_hsuart.o
 .text.hsuart_init
                0x0000000000000000       0xa0 Output\obj\driver\driver_hsuart.o
 .text.hsuart_deinit
                0x0000000000000000       0x14 Output\obj\driver\driver_hsuart.o
 .text.hsuart_cmd
                0x0000000000000000       0x16 Output\obj\driver\driver_hsuart.o
 .com_periph.hsuart.send
                0x0000000000000000       0x1a Output\obj\driver\driver_hsuart.o
 .com_periph.hsuart.recv
                0x0000000000000000        0xa Output\obj\driver\driver_hsuart.o
 .com_periph.hsuart.receive_data
                0x0000000000000000       0x44 Output\obj\driver\driver_hsuart.o
 .com_periph.hsuart.fifo_get
                0x0000000000000000        0xa Output\obj\driver\driver_hsuart.o
 .text.hsuart_clear_fifo_counter
                0x0000000000000000        0xe Output\obj\driver\driver_hsuart.o
 .text.hsuart_baud_config
                0x0000000000000000       0x2c Output\obj\driver\driver_hsuart.o
 .text.hsuart_pic_config
                0x0000000000000000       0x92 Output\obj\driver\driver_hsuart.o
 .com_periph.hsuart.get_flag
                0x0000000000000000       0x3e Output\obj\driver\driver_hsuart.o
 .com_periph.hsuart.clear
                0x0000000000000000       0x38 Output\obj\driver\driver_hsuart.o
 .text.hsuart_rx_idle_config
                0x0000000000000000       0x1e Output\obj\driver\driver_hsuart.o
 .com_periph.hsuart.dma
                0x0000000000000000       0x20 Output\obj\driver\driver_hsuart.o
 .com_periph.hsuart.stop
                0x0000000000000000       0x18 Output\obj\driver\driver_hsuart.o
 .com_periph.hsuart.hfc
                0x0000000000000000       0x32 Output\obj\driver\driver_hsuart.o
 .comment       0x0000000000000000       0x12 Output\obj\driver\driver_hsuart.o
 .text          0x0000000000000000        0x0 Output\obj\driver\driver_irrx.o
 .data          0x0000000000000000        0x0 Output\obj\driver\driver_irrx.o
 .bss           0x0000000000000000        0x0 Output\obj\driver\driver_irrx.o
 .text.irrx_init
                0x0000000000000000      0x18e Output\obj\driver\driver_irrx.o
 .text.irrx_pic_config
                0x0000000000000000       0x2c Output\obj\driver\driver_irrx.o
 .com_periph.irrx.flag
                0x0000000000000000       0x32 Output\obj\driver\driver_irrx.o
 .com_periph.irrx.data
                0x0000000000000000        0x8 Output\obj\driver\driver_irrx.o
 .text.irrx_cmd
                0x0000000000000000       0x16 Output\obj\driver\driver_irrx.o
 .text.irrx_deinit
                0x0000000000000000       0x18 Output\obj\driver\driver_irrx.o
 .comment       0x0000000000000000       0x12 Output\obj\driver\driver_irrx.o
 .text          0x0000000000000000        0x0 Output\obj\driver\driver_irtx.o
 .data          0x0000000000000000        0x0 Output\obj\driver\driver_irtx.o
 .bss           0x0000000000000000        0x0 Output\obj\driver\driver_irtx.o
 .text.irtx_init
                0x0000000000000000       0x74 Output\obj\driver\driver_irtx.o
 .text.irtx_pic_config
                0x0000000000000000       0x60 Output\obj\driver\driver_irtx.o
 .com_periph.irtx.flag
                0x0000000000000000       0x5e Output\obj\driver\driver_irtx.o
 .text.irtx_cmd
                0x0000000000000000       0x16 Output\obj\driver\driver_irtx.o
 .text.irtx_kick
                0x0000000000000000       0x36 Output\obj\driver\driver_irtx.o
 .text.irtx_dma_kick
                0x0000000000000000        0xc Output\obj\driver\driver_irtx.o
 .text.irtx_deinit
                0x0000000000000000       0x24 Output\obj\driver\driver_irtx.o
 .comment       0x0000000000000000       0x12 Output\obj\driver\driver_irtx.o
 .text          0x0000000000000000        0x0 Output\obj\driver\driver_keyscan.o
 .data          0x0000000000000000        0x0 Output\obj\driver\driver_keyscan.o
 .bss           0x0000000000000000        0x0 Output\obj\driver\driver_keyscan.o
 .text.keyscan_init
                0x0000000000000000       0xde Output\obj\driver\driver_keyscan.o
 .text.keyscan_deinit
                0x0000000000000000        0xc Output\obj\driver\driver_keyscan.o
 .com_periph.keyscan.en_ctrl
                0x0000000000000000       0x16 Output\obj\driver\driver_keyscan.o
 .text.keyscan_pic_config
                0x0000000000000000       0x3a Output\obj\driver\driver_keyscan.o
 .com_periph.keyscan.flag
                0x0000000000000000       0x44 Output\obj\driver\driver_keyscan.o
 .com_periph.keyscan.query
                0x0000000000000000       0xca Output\obj\driver\driver_keyscan.o
 .com_periph.keyscan.lowpwr_mode
                0x0000000000000000        0xc Output\obj\driver\driver_keyscan.o
 .comment       0x0000000000000000       0x12 Output\obj\driver\driver_keyscan.o
 .text          0x0000000000000000        0x0 Output\obj\driver\driver_ledc.o
 .data          0x0000000000000000        0x0 Output\obj\driver\driver_ledc.o
 .bss           0x0000000000000000        0x0 Output\obj\driver\driver_ledc.o
 .text.ledc_init
                0x0000000000000000       0x3c Output\obj\driver\driver_ledc.o
 .text.ledc_timing_init
                0x0000000000000000       0x5c Output\obj\driver\driver_ledc.o
 .text.ledc_deinit
                0x0000000000000000       0x20 Output\obj\driver\driver_ledc.o
 .text.ledc_cmd
                0x0000000000000000       0x16 Output\obj\driver\driver_ledc.o
 .com_periph.ledc.transport
                0x0000000000000000       0x20 Output\obj\driver\driver_ledc.o
 .text.ledc_pic_config
                0x0000000000000000       0x44 Output\obj\driver\driver_ledc.o
 .com_periph.ledc.flag
                0x0000000000000000       0x42 Output\obj\driver\driver_ledc.o
 .text.ledc_set_frame_length
                0x0000000000000000        0xe Output\obj\driver\driver_ledc.o
 .text.ledc_set_loop_number
                0x0000000000000000        0xc Output\obj\driver\driver_ledc.o
 .text.ledc_get_frame_length
                0x0000000000000000       0x10 Output\obj\driver\driver_ledc.o
 .text.ledc_get_loop_number
                0x0000000000000000        0xc Output\obj\driver\driver_ledc.o
 .comment       0x0000000000000000       0x12 Output\obj\driver\driver_ledc.o
 .text          0x0000000000000000        0x0 Output\obj\driver\driver_lowpwr.o
 .data          0x0000000000000000        0x0 Output\obj\driver\driver_lowpwr.o
 .text.lowpwr_gpio_wakeup_config_custom
                0x0000000000000000       0x4a Output\obj\driver\driver_lowpwr.o
 .text.lowpwr_wakeup_source_enable
                0x0000000000000000       0x7c Output\obj\driver\driver_lowpwr.o
 .text.lowpwr_wakeup_source_disable
                0x0000000000000000       0x92 Output\obj\driver\driver_lowpwr.o
 .com_pwroff.mode1
                0x0000000000000000       0xba Output\obj\driver\driver_lowpwr.o
 .com_sleep.sfr_save
                0x0000000000000000        0x2 Output\obj\driver\driver_lowpwr.o
 .com_sleep.sfr_resume
                0x0000000000000000        0x2 Output\obj\driver\driver_lowpwr.o
 .text          0x0000000000000000        0x0 Output\obj\driver\driver_pwm.o
 .data          0x0000000000000000        0x0 Output\obj\driver\driver_pwm.o
 .bss           0x0000000000000000        0x0 Output\obj\driver\driver_pwm.o
 .text.tmrp_base_init
                0x0000000000000000      0x11a Output\obj\driver\driver_pwm.o
 .text.tmrp_deinit
                0x0000000000000000       0x10 Output\obj\driver\driver_pwm.o
 .text.tmrp_open_pwm
                0x0000000000000000       0x1a Output\obj\driver\driver_pwm.o
 .text.tmrp_close_pwm
                0x0000000000000000       0x12 Output\obj\driver\driver_pwm.o
 .text.tmrp_set_counter
                0x0000000000000000        0x4 Output\obj\driver\driver_pwm.o
 .text.tmrp_set_duty
                0x0000000000000000       0x4c Output\obj\driver\driver_pwm.o
 .text.tmrp_set_period
                0x0000000000000000        0x4 Output\obj\driver\driver_pwm.o
 .text.tmrp_set_g2period
                0x0000000000000000        0x4 Output\obj\driver\driver_pwm.o
 .text.tmrp_get_counter
                0x0000000000000000        0x4 Output\obj\driver\driver_pwm.o
 .text.tmrp_get_period
                0x0000000000000000        0x4 Output\obj\driver\driver_pwm.o
 .text.tmrp_get_g2period
                0x0000000000000000        0x4 Output\obj\driver\driver_pwm.o
 .text.tmrp_cmd
                0x0000000000000000       0x10 Output\obj\driver\driver_pwm.o
 .text.tmrp_pic_config
                0x0000000000000000       0x32 Output\obj\driver\driver_pwm.o
 .com_periph.tmr.get
                0x0000000000000000       0x18 Output\obj\driver\driver_pwm.o
 .com_periph.tmr.clear
                0x0000000000000000       0x16 Output\obj\driver\driver_pwm.o
 .comment       0x0000000000000000       0x12 Output\obj\driver\driver_pwm.o
 .text          0x0000000000000000        0x0 Output\obj\driver\driver_rtc.o
 .data          0x0000000000000000        0x0 Output\obj\driver\driver_rtc.o
 .bss           0x0000000000000000        0x0 Output\obj\driver\driver_rtc.o
 .com_periph.rtc.cnt_set
                0x0000000000000000        0x8 Output\obj\driver\driver_rtc.o
 .com_periph.rtc.cnt_get
                0x0000000000000000        0x8 Output\obj\driver\driver_rtc.o
 .com_periph.rtc.alarm_set
                0x0000000000000000        0x8 Output\obj\driver\driver_rtc.o
 .com_periph.rtc.alarm_get
                0x0000000000000000        0x8 Output\obj\driver\driver_rtc.o
 .text.rtc_prescale_set
                0x0000000000000000       0x16 Output\obj\driver\driver_rtc.o
 .text.rtc_prescale_get
                0x0000000000000000        0xc Output\obj\driver\driver_rtc.o
 .text.rtc_pic_config
                0x0000000000000000       0x90 Output\obj\driver\driver_rtc.o
 .com_periph.rct.get
                0x0000000000000000       0x36 Output\obj\driver\driver_rtc.o
 .com_periph.rct.clear
                0x0000000000000000       0x1a Output\obj\driver\driver_rtc.o
 .comment       0x0000000000000000       0x12 Output\obj\driver\driver_rtc.o
 .text          0x0000000000000000        0x0 Output\obj\driver\driver_saradc.o
 .data          0x0000000000000000        0x0 Output\obj\driver\driver_saradc.o
 .bss           0x0000000000000000        0x0 Output\obj\driver\driver_saradc.o
 .text.saradc_mic_init
                0x0000000000000000       0x64 Output\obj\driver\driver_saradc.o
 .text.saradc_mic_cmd
                0x0000000000000000       0x1a Output\obj\driver\driver_saradc.o
 .text.saradc_mic_dma_cmd
                0x0000000000000000       0x38 Output\obj\driver\driver_saradc.o
 .text.saradc_remove_channel
                0x0000000000000000       0xac Output\obj\driver\driver_saradc.o
 .text.saradc_set_baud
                0x0000000000000000       0x2e Output\obj\driver\driver_saradc.o
 .text.saradc_pic_config
                0x0000000000000000       0x70 Output\obj\driver\driver_saradc.o
 .text          0x0000000000000000        0x0 Output\obj\driver\driver_spi.o
 .data          0x0000000000000000        0x0 Output\obj\driver\driver_spi.o
 .bss           0x0000000000000000        0x0 Output\obj\driver\driver_spi.o
 .text.spi_init
                0x0000000000000000       0x50 Output\obj\driver\driver_spi.o
 .text.spi_deinit
                0x0000000000000000       0x1c Output\obj\driver\driver_spi.o
 .text.spi_cmd  0x0000000000000000       0x10 Output\obj\driver\driver_spi.o
 .text.spi_dir_sel
                0x0000000000000000       0x16 Output\obj\driver\driver_spi.o
 .text.spi_it_cmd
                0x0000000000000000       0x12 Output\obj\driver\driver_spi.o
 .text.spi_lfsr_cmd
                0x0000000000000000       0x12 Output\obj\driver\driver_spi.o
 .text.spi_multi_bit_bus_cmd
                0x0000000000000000       0x12 Output\obj\driver\driver_spi.o
 .text.spi_hold_rx_cmd
                0x0000000000000000       0x12 Output\obj\driver\driver_spi.o
 .text.spi_hold_tx_cmd
                0x0000000000000000       0x12 Output\obj\driver\driver_spi.o
 .text.spi_soft_hold_cmd
                0x0000000000000000       0x12 Output\obj\driver\driver_spi.o
 .com_periph.spi.get
                0x0000000000000000        0xa Output\obj\driver\driver_spi.o
 .com_periph.spi.clear
                0x0000000000000000        0x8 Output\obj\driver\driver_spi.o
 .text.spi_set_dma_cnt
                0x0000000000000000        0x4 Output\obj\driver\driver_spi.o
 .text.spi_set_dma_addr
                0x0000000000000000        0x4 Output\obj\driver\driver_spi.o
 .text.spi_receive_data
                0x0000000000000000        0x8 Output\obj\driver\driver_spi.o
 .text.spi_send_data
                0x0000000000000000        0x4 Output\obj\driver\driver_spi.o
 .comment       0x0000000000000000       0x12 Output\obj\driver\driver_spi.o
 .text          0x0000000000000000        0x0 Output\obj\driver\driver_tmr.o
 .data          0x0000000000000000        0x0 Output\obj\driver\driver_tmr.o
 .bss           0x0000000000000000        0x0 Output\obj\driver\driver_tmr.o
 .text.tmr_base_init
                0x0000000000000000       0x50 Output\obj\driver\driver_tmr.o
 .text.tmr_deinit
                0x0000000000000000       0x54 Output\obj\driver\driver_tmr.o
 .text.tmr_set_counter
                0x0000000000000000        0x4 Output\obj\driver\driver_tmr.o
 .text.tmr_set_period
                0x0000000000000000        0x4 Output\obj\driver\driver_tmr.o
 .text.tmr_get_counter
                0x0000000000000000        0x4 Output\obj\driver\driver_tmr.o
 .text.tmr_get_period
                0x0000000000000000        0x4 Output\obj\driver\driver_tmr.o
 .text.tmr_cmd  0x0000000000000000       0x10 Output\obj\driver\driver_tmr.o
 .text.tmr_get_capture
                0x0000000000000000       0x1c Output\obj\driver\driver_tmr.o
 .text.tmr_pic_config
                0x0000000000000000       0x78 Output\obj\driver\driver_tmr.o
 .com_periph.tmr.get
                0x0000000000000000       0x52 Output\obj\driver\driver_tmr.o
 .com_periph.tmr.clear
                0x0000000000000000       0x3a Output\obj\driver\driver_tmr.o
 .comment       0x0000000000000000       0x12 Output\obj\driver\driver_tmr.o
 .text          0x0000000000000000        0x0 Output\obj\driver\driver_uart.o
 .data          0x0000000000000000        0x0 Output\obj\driver\driver_uart.o
 .bss           0x0000000000000000        0x0 Output\obj\driver\driver_uart.o
 .text.uart_deinit
                0x0000000000000000        0xe Output\obj\driver\driver_uart.o
 .com_periph.uart.send
                0x0000000000000000        0x8 Output\obj\driver\driver_uart.o
 .com_periph.uart.recv
                0x0000000000000000       0x14 Output\obj\driver\driver_uart.o
 .text.uart_pic_config
                0x0000000000000000       0x5c Output\obj\driver\driver_uart.o
 .com_periph.uart.get_flag
                0x0000000000000000       0x18 Output\obj\driver\driver_uart.o
 .com_periph.uart.clear_flag
                0x0000000000000000       0x2a Output\obj\driver\driver_uart.o
 .text          0x0000000000000000        0x0 Output\obj\driver\driver_wdt.o
 .data          0x0000000000000000        0x0 Output\obj\driver\driver_wdt.o
 .bss           0x0000000000000000        0x0 Output\obj\driver\driver_wdt.o
 .text.wdt_cmd  0x0000000000000000       0x18 Output\obj\driver\driver_wdt.o
 .text.wdt_reset_cmd
                0x0000000000000000       0x1e Output\obj\driver\driver_wdt.o
 .text.wdt_it_cmd
                0x0000000000000000       0x16 Output\obj\driver\driver_wdt.o
 .text.wdt_clk_select
                0x0000000000000000       0x1a Output\obj\driver\driver_wdt.o
 .text.wdt_time_select
                0x0000000000000000       0x1a Output\obj\driver\driver_wdt.o
 .text.wdt_get_flag
                0x0000000000000000        0x8 Output\obj\driver\driver_wdt.o
 .text.wdt_clear
                0x0000000000000000        0xe Output\obj\driver\driver_wdt.o
 .comment       0x0000000000000000       0x12 Output\obj\driver\driver_wdt.o
 .text          0x0000000000000000        0x0 Output\obj\project\solution\ble_hid_composite\app\app_hid_event.o
 .bss           0x0000000000000000        0x0 Output\obj\project\solution\ble_hid_composite\app\app_hid_event.o
 .text.ble_hid_send_mouse_cmd
                0x0000000000000000       0x32 Output\obj\project\solution\ble_hid_composite\app\app_hid_event.o
 .text.ble_hid_send_keyboard_cmd
                0x0000000000000000       0x2a Output\obj\project\solution\ble_hid_composite\app\app_hid_event.o
 .text          0x0000000000000000        0x0 Output\obj\project\solution\ble_hid_composite\app\app_hid_selfie.o
 .data          0x0000000000000000        0x0 Output\obj\project\solution\ble_hid_composite\app\app_hid_selfie.o
 .bss           0x0000000000000000        0x0 Output\obj\project\solution\ble_hid_composite\app\app_hid_selfie.o
 .text          0x0000000000000000        0x0 Output\obj\project\solution\ble_hid_composite\app\app_hid_test.o
 .data          0x0000000000000000        0x0 Output\obj\project\solution\ble_hid_composite\app\app_hid_test.o
 .bss           0x0000000000000000        0x0 Output\obj\project\solution\ble_hid_composite\app\app_hid_test.o
 .comment       0x0000000000000000       0x12 Output\obj\project\solution\ble_hid_composite\app\app_hid_test.o
 .text          0x0000000000000000        0x0 Output\obj\project\solution\ble_hid_composite\app\app_hid_tiktok.o
 .data          0x0000000000000000        0x0 Output\obj\project\solution\ble_hid_composite\app\app_hid_tiktok.o
 .bss           0x0000000000000000        0x0 Output\obj\project\solution\ble_hid_composite\app\app_hid_tiktok.o
 .text          0x0000000000000000        0x0 Output\obj\project\solution\ble_hid_composite\app\func.o
 .data          0x0000000000000000        0x0 Output\obj\project\solution\ble_hid_composite\app\func.o
 .bss           0x0000000000000000        0x0 Output\obj\project\solution\ble_hid_composite\app\func.o
 .text          0x0000000000000000        0x0 Output\obj\project\solution\ble_hid_composite\app\func_bt.o
 .data          0x0000000000000000        0x0 Output\obj\project\solution\ble_hid_composite\app\func_bt.o
 .bss           0x0000000000000000        0x0 Output\obj\project\solution\ble_hid_composite\app\func_bt.o
 .text          0x0000000000000000        0x0 Output\obj\project\solution\ble_hid_composite\app\func_idle.o
 .data          0x0000000000000000        0x0 Output\obj\project\solution\ble_hid_composite\app\func_idle.o
 .bss           0x0000000000000000        0x0 Output\obj\project\solution\ble_hid_composite\app\func_idle.o
 .text          0x0000000000000000        0x0 Output\obj\project\solution\ble_hid_composite\app\func_iodm.o
 .data          0x0000000000000000        0x0 Output\obj\project\solution\ble_hid_composite\app\func_iodm.o
 .bss           0x0000000000000000        0x0 Output\obj\project\solution\ble_hid_composite\app\func_iodm.o
 .comment       0x0000000000000000       0x12 Output\obj\project\solution\ble_hid_composite\app\func_iodm.o
 .text          0x0000000000000000        0x0 Output\obj\project\solution\ble_hid_composite\app\func_le_bqb_rf.o
 .data          0x0000000000000000        0x0 Output\obj\project\solution\ble_hid_composite\app\func_le_bqb_rf.o
 .bss           0x0000000000000000        0x0 Output\obj\project\solution\ble_hid_composite\app\func_le_bqb_rf.o
 .comment       0x0000000000000000       0x12 Output\obj\project\solution\ble_hid_composite\app\func_le_bqb_rf.o
 .text          0x0000000000000000        0x0 Output\obj\project\solution\ble_hid_composite\app\func_le_fcc.o
 .data          0x0000000000000000        0x0 Output\obj\project\solution\ble_hid_composite\app\func_le_fcc.o
 .bss           0x0000000000000000        0x0 Output\obj\project\solution\ble_hid_composite\app\func_le_fcc.o
 .comment       0x0000000000000000       0x12 Output\obj\project\solution\ble_hid_composite\app\func_le_fcc.o
 .text          0x0000000000000000        0x0 Output\obj\project\solution\ble_hid_composite\app\func_lowpwr.o
 .data          0x0000000000000000        0x0 Output\obj\project\solution\ble_hid_composite\app\func_lowpwr.o
 .bss           0x0000000000000000        0x0 Output\obj\project\solution\ble_hid_composite\app\func_lowpwr.o
 .text.lowpwr.deep_sleep_wk
                0x0000000000000000       0x3a Output\obj\project\solution\ble_hid_composite\app\func_lowpwr.o
 .text.lowpwr.deep_sleep
                0x0000000000000000      0x132 Output\obj\project\solution\ble_hid_composite\app\func_lowpwr.o
 .text          0x0000000000000000        0x0 Output\obj\project\solution\ble_hid_composite\app\func_tbox.o
 .data          0x0000000000000000        0x0 Output\obj\project\solution\ble_hid_composite\app\func_tbox.o
 .bss           0x0000000000000000        0x0 Output\obj\project\solution\ble_hid_composite\app\func_tbox.o
 .comment       0x0000000000000000       0x12 Output\obj\project\solution\ble_hid_composite\app\func_tbox.o
 .text          0x0000000000000000        0x0 Output\obj\project\solution\ble_hid_composite\ble\ble_adv.o
 .data          0x0000000000000000        0x0 Output\obj\project\solution\ble_hid_composite\ble\ble_adv.o
 .bss           0x0000000000000000        0x0 Output\obj\project\solution\ble_hid_composite\ble\ble_adv.o
 .rodata.scan   0x0000000000000000        0x0 Output\obj\project\solution\ble_hid_composite\ble\ble_adv.o
 .text          0x0000000000000000        0x0 Output\obj\project\solution\ble_hid_composite\ble\ble_alarm.o
 .data          0x0000000000000000        0x0 Output\obj\project\solution\ble_hid_composite\ble\ble_alarm.o
 .bss           0x0000000000000000        0x0 Output\obj\project\solution\ble_hid_composite\ble\ble_alarm.o
 .text          0x0000000000000000        0x0 Output\obj\project\solution\ble_hid_composite\ble\ble_battery_service.o
 .data          0x0000000000000000        0x0 Output\obj\project\solution\ble_hid_composite\ble\ble_battery_service.o
 .text          0x0000000000000000        0x0 Output\obj\project\solution\ble_hid_composite\ble\ble_client.o
 .text          0x0000000000000000        0x0 Output\obj\project\solution\ble_hid_composite\ble\ble_fota_service.o
 .data          0x0000000000000000        0x0 Output\obj\project\solution\ble_hid_composite\ble\ble_fota_service.o
 .text.ab_fota_write
                0x0000000000000000        0x8 Output\obj\project\solution\ble_hid_composite\ble\ble_fota_service.o
 .text.ab_fota_get_err
                0x0000000000000000        0x8 Output\obj\project\solution\ble_hid_composite\ble\ble_fota_service.o
 .text.ab_fota_breakpoint_info_read
                0x0000000000000000        0x8 Output\obj\project\solution\ble_hid_composite\ble\ble_fota_service.o
 .text.ab_fota_init
                0x0000000000000000        0x8 Output\obj\project\solution\ble_hid_composite\ble\ble_fota_service.o
 .text.ab_fota_get_curaddr
                0x0000000000000000        0x8 Output\obj\project\solution\ble_hid_composite\ble\ble_fota_service.o
 .text.ab_fota_is_update_success
                0x0000000000000000        0x8 Output\obj\project\solution\ble_hid_composite\ble\ble_fota_service.o
 .text.fota_ble_connect_callback
                0x0000000000000000        0x2 Output\obj\project\solution\ble_hid_composite\ble\ble_fota_service.o
 .text          0x0000000000000000        0x0 Output\obj\project\solution\ble_hid_composite\ble\ble_hid_service.o
 .data          0x0000000000000000        0x0 Output\obj\project\solution\ble_hid_composite\ble\ble_hid_service.o
 .text          0x0000000000000000        0x0 Output\obj\project\solution\ble_hid_composite\ble\ble_init.o
 .data          0x0000000000000000        0x0 Output\obj\project\solution\ble_hid_composite\ble\ble_init.o
 .bss           0x0000000000000000        0x0 Output\obj\project\solution\ble_hid_composite\ble\ble_init.o
 .text.ble_get_work_mode
                0x0000000000000000        0xa Output\obj\project\solution\ble_hid_composite\ble\ble_init.o
 .text          0x0000000000000000        0x0 Output\obj\project\solution\ble_hid_composite\ble\ble_proc.o
 .data          0x0000000000000000        0x0 Output\obj\project\solution\ble_hid_composite\ble\ble_proc.o
 .bss           0x0000000000000000        0x0 Output\obj\project\solution\ble_hid_composite\ble\ble_proc.o
 .text          0x0000000000000000        0x0 Output\obj\project\solution\ble_hid_composite\ble\ble_profile.o
 .data          0x0000000000000000        0x0 Output\obj\project\solution\ble_hid_composite\ble\ble_profile.o
 .bss           0x0000000000000000        0x0 Output\obj\project\solution\ble_hid_composite\ble\ble_profile.o
 .text          0x0000000000000000        0x0 Output\obj\project\solution\ble_hid_composite\ble\ble_service.o
 .data          0x0000000000000000        0x0 Output\obj\project\solution\ble_hid_composite\ble\ble_service.o
 .bss           0x0000000000000000        0x0 Output\obj\project\solution\ble_hid_composite\ble\ble_service.o
 .text          0x0000000000000000        0x0 Output\obj\project\solution\ble_hid_composite\ble\ble_user_service.o
 .data          0x0000000000000000        0x0 Output\obj\project\solution\ble_hid_composite\ble\ble_user_service.o
 COMMON         0x0000000000000000       0x62 Output\obj\project\solution\ble_hid_composite\ble\ble_user_service.o
 .text          0x0000000000000000        0x0 Output\obj\project\solution\ble_hid_composite\bsp\bsp_huart.o
 .data          0x0000000000000000        0x0 Output\obj\project\solution\ble_hid_composite\bsp\bsp_huart.o
 .bss           0x0000000000000000        0x0 Output\obj\project\solution\ble_hid_composite\bsp\bsp_huart.o
 .comment       0x0000000000000000       0x12 Output\obj\project\solution\ble_hid_composite\bsp\bsp_huart.o
 .text          0x0000000000000000        0x0 Output\obj\project\solution\ble_hid_composite\bsp\bsp_huart_iodm.o
 .data          0x0000000000000000        0x0 Output\obj\project\solution\ble_hid_composite\bsp\bsp_huart_iodm.o
 .bss           0x0000000000000000        0x0 Output\obj\project\solution\ble_hid_composite\bsp\bsp_huart_iodm.o
 .comment       0x0000000000000000       0x12 Output\obj\project\solution\ble_hid_composite\bsp\bsp_huart_iodm.o
 .text          0x0000000000000000        0x0 Output\obj\project\solution\ble_hid_composite\bsp\bsp_io_key.o
 .bss           0x0000000000000000        0x0 Output\obj\project\solution\ble_hid_composite\bsp\bsp_io_key.o
 .text          0x0000000000000000        0x0 Output\obj\project\solution\ble_hid_composite\bsp\bsp_key.o
 .data          0x0000000000000000        0x0 Output\obj\project\solution\ble_hid_composite\bsp\bsp_key.o
 .bss           0x0000000000000000        0x0 Output\obj\project\solution\ble_hid_composite\bsp\bsp_key.o
 .text.bsp_key_set_power_on_flag
                0x0000000000000000        0xa Output\obj\project\solution\ble_hid_composite\bsp\bsp_key.o
 .text          0x0000000000000000        0x0 Output\obj\project\solution\ble_hid_composite\bsp\bsp_param.o
 .data          0x0000000000000000        0x0 Output\obj\project\solution\ble_hid_composite\bsp\bsp_param.o
 .bss           0x0000000000000000        0x0 Output\obj\project\solution\ble_hid_composite\bsp\bsp_param.o
 .text          0x0000000000000000        0x0 Output\obj\project\solution\ble_hid_composite\bsp\bsp_saradc.o
 .data          0x0000000000000000        0x0 Output\obj\project\solution\ble_hid_composite\bsp\bsp_saradc.o
 .bss           0x0000000000000000        0x0 Output\obj\project\solution\ble_hid_composite\bsp\bsp_saradc.o
 .text.bsp_saradc_exit
                0x0000000000000000        0x8 Output\obj\project\solution\ble_hid_composite\bsp\bsp_saradc.o
 .text          0x0000000000000000        0x0 Output\obj\project\solution\ble_hid_composite\bsp\bsp_saradc_key.o
 .data          0x0000000000000000        0x0 Output\obj\project\solution\ble_hid_composite\bsp\bsp_saradc_key.o
 .bss           0x0000000000000000        0x0 Output\obj\project\solution\ble_hid_composite\bsp\bsp_saradc_key.o
 .comment       0x0000000000000000       0x12 Output\obj\project\solution\ble_hid_composite\bsp\bsp_saradc_key.o
 .text          0x0000000000000000        0x0 Output\obj\project\solution\ble_hid_composite\bsp\bsp_saradc_tsen.o
 .data          0x0000000000000000        0x0 Output\obj\project\solution\ble_hid_composite\bsp\bsp_saradc_tsen.o
 .bss           0x0000000000000000        0x0 Output\obj\project\solution\ble_hid_composite\bsp\bsp_saradc_tsen.o
 .comment       0x0000000000000000       0x12 Output\obj\project\solution\ble_hid_composite\bsp\bsp_saradc_tsen.o
 .text          0x0000000000000000        0x0 Output\obj\project\solution\ble_hid_composite\bsp\bsp_saradc_vbat.o
 .data          0x0000000000000000        0x0 Output\obj\project\solution\ble_hid_composite\bsp\bsp_saradc_vbat.o
 .rodata        0x0000000000000000        0xa Output\obj\project\solution\ble_hid_composite\bsp\bsp_saradc_vbat.o
 .text          0x0000000000000000        0x0 Output\obj\project\solution\ble_hid_composite\bsp\bsp_sys.o
 .data          0x0000000000000000        0x0 Output\obj\project\solution\ble_hid_composite\bsp\bsp_sys.o
 .bss           0x0000000000000000        0x0 Output\obj\project\solution\ble_hid_composite\bsp\bsp_sys.o
 .text.power_on_check
                0x0000000000000000        0x8 Output\obj\project\solution\ble_hid_composite\bsp\bsp_sys.o
 .text          0x0000000000000000        0x0 Output\obj\project\solution\ble_hid_composite\bsp\bsp_uart_debug.o
 .data          0x0000000000000000        0x0 Output\obj\project\solution\ble_hid_composite\bsp\bsp_uart_debug.o
 .bss           0x0000000000000000        0x0 Output\obj\project\solution\ble_hid_composite\bsp\bsp_uart_debug.o
 .text          0x0000000000000000        0x0 Output\obj\project\solution\ble_hid_composite\main.o
 .data          0x0000000000000000        0x0 Output\obj\project\solution\ble_hid_composite\main.o
 .bss           0x0000000000000000        0x0 Output\obj\project\solution\ble_hid_composite\main.o
 .text          0x0000000000000000        0x0 Output\obj\project\solution\ble_hid_composite\prod_test\iodm\prod_test_iodm.o
 .data          0x0000000000000000        0x0 Output\obj\project\solution\ble_hid_composite\prod_test\iodm\prod_test_iodm.o
 .bss           0x0000000000000000        0x0 Output\obj\project\solution\ble_hid_composite\prod_test\iodm\prod_test_iodm.o
 .comment       0x0000000000000000       0x12 Output\obj\project\solution\ble_hid_composite\prod_test\iodm\prod_test_iodm.o
 .text          0x0000000000000000        0x0 Output\obj\project\solution\ble_hid_composite\prod_test\prod_test.o
 .data          0x0000000000000000        0x0 Output\obj\project\solution\ble_hid_composite\prod_test\prod_test.o
 .bss           0x0000000000000000        0x0 Output\obj\project\solution\ble_hid_composite\prod_test\prod_test.o
 .text          0x0000000000000000        0x0 Output\obj\project\solution\ble_hid_composite\prod_test\tbox\prod_test_tbox.o
 .data          0x0000000000000000        0x0 Output\obj\project\solution\ble_hid_composite\prod_test\tbox\prod_test_tbox.o
 .bss           0x0000000000000000        0x0 Output\obj\project\solution\ble_hid_composite\prod_test\tbox\prod_test_tbox.o
 .comment       0x0000000000000000       0x12 Output\obj\project\solution\ble_hid_composite\prod_test\tbox\prod_test_tbox.o
 .text          0x0000000000000000        0x0 Output\obj\project\solution\ble_hid_composite\prod_test\tbox\tbox_key.o
 .data          0x0000000000000000        0x0 Output\obj\project\solution\ble_hid_composite\prod_test\tbox\tbox_key.o
 .bss           0x0000000000000000        0x0 Output\obj\project\solution\ble_hid_composite\prod_test\tbox\tbox_key.o
 .comment       0x0000000000000000       0x12 Output\obj\project\solution\ble_hid_composite\prod_test\tbox\tbox_key.o
 .text          0x0000000000000000        0x0 Output\obj\project\solution\ble_hid_composite\strong_ble.o
 .data          0x0000000000000000        0x0 Output\obj\project\solution\ble_hid_composite\strong_ble.o
 .bss           0x0000000000000000        0x0 Output\obj\project\solution\ble_hid_composite\strong_ble.o
 .text          0x0000000000000000        0x0 Output\obj\project\solution\ble_hid_composite\strong_symbol.o
 .data          0x0000000000000000        0x0 Output\obj\project\solution\ble_hid_composite\strong_symbol.o
 .bss           0x0000000000000000        0x0 Output\obj\project\solution\ble_hid_composite\strong_symbol.o
 .com_text.timer
                0x0000000000000000        0x8 Output\obj\project\solution\ble_hid_composite\strong_symbol.o
 .text          0x0000000000000000        0x0 ..\..\..\libs\cpu\libplatform.a(audio_mic.o)
 .data          0x0000000000000000        0x0 ..\..\..\libs\cpu\libplatform.a(audio_mic.o)
 .bss           0x0000000000000000       0x18 ..\..\..\libs\cpu\libplatform.a(audio_mic.o)
 .text.audio_mic_get_mic_type
                0x0000000000000000        0xa ..\..\..\libs\cpu\libplatform.a(audio_mic.o)
 .text.audio_mic_get_mic_gain
                0x0000000000000000        0xa ..\..\..\libs\cpu\libplatform.a(audio_mic.o)
 .text.audio_mic_get_mic_trim
                0x0000000000000000        0xa ..\..\..\libs\cpu\libplatform.a(audio_mic.o)
 .text.audio_mic_pb10_pdpu
                0x0000000000000000       0x2e ..\..\..\libs\cpu\libplatform.a(audio_mic.o)
 .text.audio_mic_power
                0x0000000000000000      0x102 ..\..\..\libs\cpu\libplatform.a(audio_mic.o)
 .text.audio_mic_analog_init
                0x0000000000000000      0x2cc ..\..\..\libs\cpu\libplatform.a(audio_mic.o)
 .comment       0x0000000000000000       0x13 ..\..\..\libs\cpu\libplatform.a(audio_mic.o)
 .riscv.attributes
                0x0000000000000000       0x32 ..\..\..\libs\cpu\libplatform.a(audio_mic.o)
 .text          0x0000000000000000        0x0 ..\..\..\libs\cpu\libplatform.a(audio_mic_trim.o)
 .data          0x0000000000000000        0x0 ..\..\..\libs\cpu\libplatform.a(audio_mic_trim.o)
 .bss           0x0000000000000000       0x18 ..\..\..\libs\cpu\libplatform.a(audio_mic_trim.o)
 .text.audio_mic_trim_sta_set
                0x0000000000000000        0xa ..\..\..\libs\cpu\libplatform.a(audio_mic_trim.o)
 .text.audio_mic_trim_sta_get
                0x0000000000000000        0xa ..\..\..\libs\cpu\libplatform.a(audio_mic_trim.o)
 .text.audio_mic_dbg
                0x0000000000000000       0x9e ..\..\..\libs\cpu\libplatform.a(audio_mic_trim.o)
 .text.audio_micdc_trim_step0_init
                0x0000000000000000       0x42 ..\..\..\libs\cpu\libplatform.a(audio_mic_trim.o)
 .text.audio_micdc_trim_step0_waiting
                0x0000000000000000       0x14 ..\..\..\libs\cpu\libplatform.a(audio_mic_trim.o)
 .rodata.str1.4
                0x0000000000000000       0x40 ..\..\..\libs\cpu\libplatform.a(audio_mic_trim.o)
 .text.audio_micdc_trim_step0_run
                0x0000000000000000      0x146 ..\..\..\libs\cpu\libplatform.a(audio_mic_trim.o)
 .text.audio_micdc_trim_step1_init
                0x0000000000000000       0x20 ..\..\..\libs\cpu\libplatform.a(audio_mic_trim.o)
 .text.audio_micdc_trim_step1_waiting
                0x0000000000000000       0x12 ..\..\..\libs\cpu\libplatform.a(audio_mic_trim.o)
 .text.audio_micdc_trim_step1_run
                0x0000000000000000       0x26 ..\..\..\libs\cpu\libplatform.a(audio_mic_trim.o)
 .text.audio_micdc_trim_step2_init
                0x0000000000000000        0x8 ..\..\..\libs\cpu\libplatform.a(audio_mic_trim.o)
 .text.audio_micdc_trim_step2_waiting
                0x0000000000000000        0x8 ..\..\..\libs\cpu\libplatform.a(audio_mic_trim.o)
 .text.audio_micdc_trim_step2_run
                0x0000000000000000        0xe ..\..\..\libs\cpu\libplatform.a(audio_mic_trim.o)
 .text.micin_config
                0x0000000000000000       0x64 ..\..\..\libs\cpu\libplatform.a(audio_mic_trim.o)
 .text.audio_micin_trim_step0_init
                0x0000000000000000       0x3a ..\..\..\libs\cpu\libplatform.a(audio_mic_trim.o)
 .text.audio_micin_trim_step0_waiting
                0x0000000000000000       0x14 ..\..\..\libs\cpu\libplatform.a(audio_mic_trim.o)
 .text.audio_micin_trim_step0_run
                0x0000000000000000       0x60 ..\..\..\libs\cpu\libplatform.a(audio_mic_trim.o)
 .text.audio_micin_trim_step1_init
                0x0000000000000000       0x2e ..\..\..\libs\cpu\libplatform.a(audio_mic_trim.o)
 .text.audio_micin_trim_step1_waiting
                0x0000000000000000        0x8 ..\..\..\libs\cpu\libplatform.a(audio_mic_trim.o)
 .text.audio_micin_trim_step1_run
                0x0000000000000000       0x4c ..\..\..\libs\cpu\libplatform.a(audio_mic_trim.o)
 .text.audio_micin_trim_step2_run
                0x0000000000000000       0x64 ..\..\..\libs\cpu\libplatform.a(audio_mic_trim.o)
 .text.audio_mic_trim_proc
                0x0000000000000000      0x180 ..\..\..\libs\cpu\libplatform.a(audio_mic_trim.o)
 .text.audio_mic_trim_is_finish
                0x0000000000000000       0x10 ..\..\..\libs\cpu\libplatform.a(audio_mic_trim.o)
 .rodata        0x0000000000000000       0x98 ..\..\..\libs\cpu\libplatform.a(audio_mic_trim.o)
 .comment       0x0000000000000000       0x13 ..\..\..\libs\cpu\libplatform.a(audio_mic_trim.o)
 .riscv.attributes
                0x0000000000000000       0x32 ..\..\..\libs\cpu\libplatform.a(audio_mic_trim.o)
 .text          0x0000000000000000        0x0 ..\..\..\libs\cpu\libplatform.a(cm.o)
 .data          0x0000000000000000        0x0 ..\..\..\libs\cpu\libplatform.a(cm.o)
 .text.cm_move_allpages
                0x0000000000000000      0x13e ..\..\..\libs\cpu\libplatform.a(cm.o)
 .text.cm_get_startaddr
                0x0000000000000000        0xa ..\..\..\libs\cpu\libplatform.a(cm.o)
 .text.cm_get_area
                0x0000000000000000       0x14 ..\..\..\libs\cpu\libplatform.a(cm.o)
 .text.cm_release_all
                0x0000000000000000       0x8c ..\..\..\libs\cpu\libplatform.a(cm.o)
 .text.cm_read8
                0x0000000000000000       0x28 ..\..\..\libs\cpu\libplatform.a(cm.o)
 .text.cm_read16
                0x0000000000000000       0x28 ..\..\..\libs\cpu\libplatform.a(cm.o)
 .text.cm_read32
                0x0000000000000000       0x24 ..\..\..\libs\cpu\libplatform.a(cm.o)
 .text.cm_write8
                0x0000000000000000       0x28 ..\..\..\libs\cpu\libplatform.a(cm.o)
 .text.cm_write16
                0x0000000000000000       0x28 ..\..\..\libs\cpu\libplatform.a(cm.o)
 .text.cm_write32
                0x0000000000000000       0x24 ..\..\..\libs\cpu\libplatform.a(cm.o)
 .text.cm_clear
                0x0000000000000000       0x60 ..\..\..\libs\cpu\libplatform.a(cm.o)
 .text          0x0000000000000000        0x0 ..\..\..\libs\cpu\libplatform.a(os_flash.o)
 .data          0x0000000000000000        0x0 ..\..\..\libs\cpu\libplatform.a(os_flash.o)
 .bss           0x0000000000000000        0x0 ..\..\..\libs\cpu\libplatform.a(os_flash.o)
 .com_text.spiflash.id
                0x0000000000000000        0x8 ..\..\..\libs\cpu\libplatform.a(os_flash.o)
 .text          0x0000000000000000        0x0 ..\..\..\libs\cpu\libplatform.a(xcfg.o)
 .data          0x0000000000000000        0x0 ..\..\..\libs\cpu\libplatform.a(xcfg.o)
 .bss           0x0000000000000000        0x0 ..\..\..\libs\cpu\libplatform.a(xcfg.o)
 .text          0x0000000000000000        0x0 ..\..\..\libs\cpu\libplatform.a(main.o)
 .data          0x0000000000000000        0x0 ..\..\..\libs\cpu\libplatform.a(main.o)
 .text          0x0000000000000000        0x0 ..\..\..\libs\cpu\libplatform.a(interrupt.o)
 .data          0x0000000000000000        0x0 ..\..\..\libs\cpu\libplatform.a(interrupt.o)
 .bss           0x0000000000000000        0x0 ..\..\..\libs\cpu\libplatform.a(interrupt.o)
 .com_text.irq.wpt
                0x0000000000000000       0x3e ..\..\..\libs\cpu\libplatform.a(interrupt.o)
 .rodata.str1.4
                0x0000000000000000       0x28 ..\..\..\libs\cpu\libplatform.a(interrupt.o)
 .text.watch_point_set
                0x0000000000000000       0x5c ..\..\..\libs\cpu\libplatform.a(interrupt.o)
 .text.wdt_init
                0x0000000000000000       0x3a ..\..\..\libs\cpu\libplatform.a(interrupt.o)
 .text.usb_irq_init
                0x0000000000000000       0x2e ..\..\..\libs\cpu\libplatform.a(interrupt.o)
 .com_rodata.irq.wpt
                0x0000000000000000       0x1b ..\..\..\libs\cpu\libplatform.a(interrupt.o)
 .text          0x0000000000000000        0x0 ..\..\..\libs\cpu\libplatform.a(startup.o)
 .data          0x0000000000000000        0x0 ..\..\..\libs\cpu\libplatform.a(startup.o)
 .bss           0x0000000000000000        0x0 ..\..\..\libs\cpu\libplatform.a(startup.o)
 .com_text.timer
                0x0000000000000000       0x16 ..\..\..\libs\cpu\libplatform.a(startup.o)
 .text.mem_heap_size_get
                0x0000000000000000        0x6 ..\..\..\libs\cpu\libplatform.a(startup.o)
 .text.thread_cfg_get
                0x0000000000000000        0x4 ..\..\..\libs\cpu\libplatform.a(startup.o)
 .text.thread_timer_create
                0x0000000000000000       0x76 ..\..\..\libs\cpu\libplatform.a(startup.o)
 .text.thread_driver_create
                0x0000000000000000       0x70 ..\..\..\libs\cpu\libplatform.a(startup.o)
 .text.thread_create_callback
                0x0000000000000000       0x28 ..\..\..\libs\cpu\libplatform.a(startup.o)
 .bss.driver    0x0000000000000000        0x4 ..\..\..\libs\cpu\libplatform.a(startup.o)
 .bss.timer     0x0000000000000000       0x28 ..\..\..\libs\cpu\libplatform.a(startup.o)
 .osmem         0x0000000000000000      0x600 ..\..\..\libs\cpu\libplatform.a(startup.o)
 .text          0x0000000000000000        0x0 ..\..\..\libs\cpu\libplatform.a(sys_hook.o)
 .data          0x0000000000000000        0x0 ..\..\..\libs\cpu\libplatform.a(sys_hook.o)
 .bss           0x0000000000000000        0x0 ..\..\..\libs\cpu\libplatform.a(sys_hook.o)
 .text          0x0000000000000000        0x0 ..\..\..\libs\cpu\libplatform.a(thread_driver.o)
 .data          0x0000000000000000        0x0 ..\..\..\libs\cpu\libplatform.a(thread_driver.o)
 .bss           0x0000000000000000        0x0 ..\..\..\libs\cpu\libplatform.a(thread_driver.o)
 .com_text.thread.driver.usb
                0x0000000000000000       0x4e ..\..\..\libs\cpu\libplatform.a(thread_driver.o)
 .com_text.thread.driver.vs
                0x0000000000000000       0x4e ..\..\..\libs\cpu\libplatform.a(thread_driver.o)
 .text.thread.driver.usb
                0x0000000000000000       0x1a ..\..\..\libs\cpu\libplatform.a(thread_driver.o)
 .text.thread.driver.vs
                0x0000000000000000       0x1a ..\..\..\libs\cpu\libplatform.a(thread_driver.o)
 .com_text.thread.driver.enter
                0x0000000000000000       0x5c ..\..\..\libs\cpu\libplatform.a(thread_driver.o)
 .sbss          0x0000000000000000        0x8 ..\..\..\libs\cpu\libplatform.a(thread_driver.o)
 .comment       0x0000000000000000       0x13 ..\..\..\libs\cpu\libplatform.a(thread_driver.o)
 .riscv.attributes
                0x0000000000000000       0x32 ..\..\..\libs\cpu\libplatform.a(thread_driver.o)
 .text          0x0000000000000000        0x0 ..\..\..\libs\cpu\libplatform.a(pll.o)
 .data          0x0000000000000000        0x0 ..\..\..\libs\cpu\libplatform.a(pll.o)
 .bss           0x0000000000000000        0x0 ..\..\..\libs\cpu\libplatform.a(pll.o)
 .text.pll_clk_nhz_get
                0x0000000000000000        0xa ..\..\..\libs\cpu\libplatform.a(pll.o)
 .text.pll_ext_init
                0x0000000000000000      0x204 ..\..\..\libs\cpu\libplatform.a(pll.o)
 .text          0x0000000000000000        0x0 ..\..\..\libs\cpu\libplatform.a(pmu.o)
 .data          0x0000000000000000        0x0 ..\..\..\libs\cpu\libplatform.a(pmu.o)
 .bss           0x0000000000000000        0x0 ..\..\..\libs\cpu\libplatform.a(pmu.o)
 .com_text.trim.core_set
                0x0000000000000000       0x16 ..\..\..\libs\cpu\libplatform.a(pmu.o)
 .com_text.trim.lvd_get
                0x0000000000000000        0xa ..\..\..\libs\cpu\libplatform.a(pmu.o)
 .com_text.pmu.vddbt_set
                0x0000000000000000        0xe ..\..\..\libs\cpu\libplatform.a(pmu.o)
 .com_text.pmu.vddbt_get
                0x0000000000000000        0x8 ..\..\..\libs\cpu\libplatform.a(pmu.o)
 .text          0x0000000000000000        0x0 ..\..\..\libs\cpu\libplatform.a(reset.o)
 .data          0x0000000000000000        0x0 ..\..\..\libs\cpu\libplatform.a(reset.o)
 .bss           0x0000000000000000        0x0 ..\..\..\libs\cpu\libplatform.a(reset.o)
 .com_text.irq  0x0000000000000000        0xe ..\..\..\libs\cpu\libplatform.a(reset.o)
 .text          0x0000000000000000        0x0 ..\..\..\libs\cpu\libplatform.a(context.o)
 .data          0x0000000000000000        0x0 ..\..\..\libs\cpu\libplatform.a(context.o)
 .bss           0x0000000000000000        0x0 ..\..\..\libs\cpu\libplatform.a(context.o)
 .riscv.attributes
                0x0000000000000000       0x30 ..\..\..\libs\cpu\libplatform.a(context.o)
 .text          0x0000000000000000        0x0 ..\..\..\libs\cpu\libplatform.a(debug.o)
 .data          0x0000000000000000        0x0 ..\..\..\libs\cpu\libplatform.a(debug.o)
 .bss           0x0000000000000000        0x0 ..\..\..\libs\cpu\libplatform.a(debug.o)
 .text.debug_dump_info_nanos_schedule
                0x0000000000000000        0x2 ..\..\..\libs\cpu\libplatform.a(debug.o)
 .text.debug_dump_info_nanos_timer
                0x0000000000000000        0x2 ..\..\..\libs\cpu\libplatform.a(debug.o)
 .text          0x0000000000000000        0x0 ..\..\..\libs\cpu\libplatform.a(fot_pack.o)
 .data          0x0000000000000000        0x0 ..\..\..\libs\cpu\libplatform.a(fot_pack.o)
 .bss           0x0000000000000000        0x0 ..\..\..\libs\cpu\libplatform.a(fot_pack.o)
 .text.ota_pack_get_dst_start
                0x0000000000000000        0xa ..\..\..\libs\cpu\libplatform.a(fot_pack.o)
 .text          0x0000000000000000        0x0 ..\..\..\libs\cpu\libplatform.a(key.o)
 .data          0x0000000000000000        0x0 ..\..\..\libs\cpu\libplatform.a(key.o)
 .bss           0x0000000000000000        0x0 ..\..\..\libs\cpu\libplatform.a(key.o)
 .text          0x0000000000000000        0x0 ..\..\..\libs\cpu\libplatform.a(lock.o)
 .data          0x0000000000000000        0x0 ..\..\..\libs\cpu\libplatform.a(lock.o)
 .bss           0x0000000000000000        0x0 ..\..\..\libs\cpu\libplatform.a(lock.o)
 .rodata.str1.4
                0x0000000000000000       0x16 ..\..\..\libs\cpu\libplatform.a(lock.o)
 .text.lock_code_usbdev
                0x0000000000000000       0x58 ..\..\..\libs\cpu\libplatform.a(lock.o)
 .text.unlock_code_usbdev
                0x0000000000000000       0x2c ..\..\..\libs\cpu\libplatform.a(lock.o)
 .text          0x0000000000000000        0x0 ..\..\..\libs\cpu\libplatform.a(patch.o)
 .data          0x0000000000000000        0x0 ..\..\..\libs\cpu\libplatform.a(patch.o)
 .bss           0x0000000000000000        0x0 ..\..\..\libs\cpu\libplatform.a(patch.o)
 .text          0x0000000000000000        0x0 ..\..\..\libs\cpu\libplatform.a(s_sys.o)
 .data          0x0000000000000000        0x0 ..\..\..\libs\cpu\libplatform.a(s_sys.o)
 .bss           0x0000000000000000        0x0 ..\..\..\libs\cpu\libplatform.a(s_sys.o)
 .com_text.sys.alu
                0x0000000000000000       0x66 ..\..\..\libs\cpu\libplatform.a(s_sys.o)
 .text          0x0000000000000000        0x0 ..\..\..\libs\cpu\libplatform.a(sleep.o)
 .data          0x0000000000000000        0x0 ..\..\..\libs\cpu\libplatform.a(sleep.o)
 .bss           0x0000000000000000        0x0 ..\..\..\libs\cpu\libplatform.a(sleep.o)
 .text          0x0000000000000000        0x0 ..\..\..\libs\cpu\libplatform.a(sys.o)
 .data          0x0000000000000000        0x0 ..\..\..\libs\cpu\libplatform.a(sys.o)
 .bss           0x0000000000000000        0x0 ..\..\..\libs\cpu\libplatform.a(sys.o)
 .text.dbg_clk_out
                0x0000000000000000       0x46 ..\..\..\libs\cpu\libplatform.a(sys.o)
 .com_text.sys  0x0000000000000000       0x1e ..\..\..\libs\cpu\libplatform.a(sys.o)
 .text.sw_reset_source_get
                0x0000000000000000       0x2a ..\..\..\libs\cpu\libplatform.a(sys.o)
 .text.random_init
                0x0000000000000000        0xa ..\..\..\libs\cpu\libplatform.a(sys.o)
 .text.sys_get_rand_key
                0x0000000000000000       0x6c ..\..\..\libs\cpu\libplatform.a(sys.o)
 .text.get_random
                0x0000000000000000       0x26 ..\..\..\libs\cpu\libplatform.a(sys.o)
 .text.bt_restore_xosc_cap
                0x0000000000000000        0x8 ..\..\..\libs\cpu\libplatform.a(sys.o)
 .text.__divdi3
                0x0000000000000000       0x5c ..\..\..\libs\cpu\libplatform.a(sys.o)
 .text.__umoddi3
                0x0000000000000000       0x30 ..\..\..\libs\cpu\libplatform.a(sys.o)
 .text          0x0000000000000000        0x0 ..\..\..\libs\cpu\libplatform.a(sys_clk.o)
 .data          0x0000000000000000        0x0 ..\..\..\libs\cpu\libplatform.a(sys_clk.o)
 .bss           0x0000000000000000        0x0 ..\..\..\libs\cpu\libplatform.a(sys_clk.o)
 .text.periph_cacl_clkdiv
                0x0000000000000000        0x2 ..\..\..\libs\cpu\libplatform.a(sys_clk.o)
 .text.sys_clk_nhz_get
                0x0000000000000000       0x5e ..\..\..\libs\cpu\libplatform.a(sys_clk.o)
 .text.sys_clk_lower_limit_lock
                0x0000000000000000       0x84 ..\..\..\libs\cpu\libplatform.a(sys_clk.o)
 .text.sys_clk_lower_limit_unlock
                0x0000000000000000       0x6c ..\..\..\libs\cpu\libplatform.a(sys_clk.o)
 .text.sys_clk_lower_limit_all_unlock
                0x0000000000000000       0x50 ..\..\..\libs\cpu\libplatform.a(sys_clk.o)
 .sbss          0x0000000000000000        0x1 ..\..\..\libs\cpu\libplatform.a(sys_clk.o)
 .srodata       0x0000000000000000        0x4 ..\..\..\libs\cpu\libplatform.a(sys_clk.o)
 .text          0x0000000000000000        0x0 ..\..\..\libs\cpu\libplatform.a(voltage_trim.o)
 .data          0x0000000000000000        0x0 ..\..\..\libs\cpu\libplatform.a(voltage_trim.o)
 .bss           0x0000000000000000        0x0 ..\..\..\libs\cpu\libplatform.a(voltage_trim.o)
 .rodata.str1.4
                0x0000000000000000       0x63 ..\..\..\libs\cpu\libplatform.a(voltage_trim.o)
 .text.voltage_trim_value_dump
                0x0000000000000000       0x8c ..\..\..\libs\cpu\libplatform.a(voltage_trim.o)
 .text          0x0000000000000000        0x0 ..\..\..\libs\cpu\libplatform.a(weak_symbol.o)
 .data          0x0000000000000000        0x0 ..\..\..\libs\cpu\libplatform.a(weak_symbol.o)
 .bss           0x0000000000000000       0x20 ..\..\..\libs\cpu\libplatform.a(weak_symbol.o)
 .text.xosc_get_xcfg
                0x0000000000000000        0x2 ..\..\..\libs\cpu\libplatform.a(weak_symbol.o)
 .text.param_xosc_read
                0x0000000000000000        0x2 ..\..\..\libs\cpu\libplatform.a(weak_symbol.o)
 .text.param_xosc_write
                0x0000000000000000        0x2 ..\..\..\libs\cpu\libplatform.a(weak_symbol.o)
 .text.sys_clk_change_callback
                0x0000000000000000        0x2 ..\..\..\libs\cpu\libplatform.a(weak_symbol.o)
 .text.uart_debug_init_callback
                0x0000000000000000        0x2 ..\..\..\libs\cpu\libplatform.a(weak_symbol.o)
 .text.nanos_var_init
                0x0000000000000000       0x1a ..\..\..\libs\cpu\libplatform.a(weak_symbol.o)
 .text.btstack_message
                0x0000000000000000        0x4 ..\..\..\libs\cpu\libplatform.a(weak_symbol.o)
 .com_text.stack.api
                0x0000000000000000        0x4 ..\..\..\libs\cpu\libplatform.a(weak_symbol.o)
 .com_text.ret.stack.thread
                0x0000000000000000        0x2 ..\..\..\libs\cpu\libplatform.a(weak_symbol.o)
 .com_text.bb.isr
                0x0000000000000000        0x6 ..\..\..\libs\cpu\libplatform.a(weak_symbol.o)
 .com_text.isr  0x0000000000000000        0x2 ..\..\..\libs\cpu\libplatform.a(weak_symbol.o)
 .text.btstack_var_init
                0x0000000000000000        0x2 ..\..\..\libs\cpu\libplatform.a(weak_symbol.o)
 .com_text.stack.run_loop
                0x0000000000000000        0x2 ..\..\..\libs\cpu\libplatform.a(weak_symbol.o)
 .text.bb_patch_init
                0x0000000000000000        0x4 ..\..\..\libs\cpu\libplatform.a(weak_symbol.o)
 .text.bb_nanos_mem_init
                0x0000000000000000        0x2 ..\..\..\libs\cpu\libplatform.a(weak_symbol.o)
 .text          0x0000000000000000        0x0 ..\..\..\libs\cpu\libplatform.a(bt.o)
 .data          0x0000000000000000        0x0 ..\..\..\libs\cpu\libplatform.a(bt.o)
 .bss           0x0000000000000000        0x0 ..\..\..\libs\cpu\libplatform.a(bt.o)
 .text          0x0000000000000000        0x0 ..\..\..\libs\cpu\libplatform.a(freq_det.o)
 .data          0x0000000000000000        0x0 ..\..\..\libs\cpu\libplatform.a(freq_det.o)
 .bss           0x0000000000000000        0x0 ..\..\..\libs\cpu\libplatform.a(freq_det.o)
 .data          0x0000000000000000        0x0 ..\..\..\libs\ble\libbtstack.a(bb_api.o)
 .bss           0x0000000000000000        0x0 ..\..\..\libs\ble\libbtstack.a(bb_api.o)
 .com_text.bt.timer
                0x0000000000000000       0xc0 ..\..\..\libs\ble\libbtstack.a(bb_api.o)
 .com_text.sleep
                0x0000000000000000        0x8 ..\..\..\libs\ble\libbtstack.a(bb_api.o)
 .com_sleep.sleep
                0x0000000000000000        0x8 ..\..\..\libs\ble\libbtstack.a(bb_api.o)
 .data          0x0000000000000000        0x0 ..\..\..\libs\ble\libbtstack.a(bb_int.o)
 .bss           0x0000000000000000        0x0 ..\..\..\libs\ble\libbtstack.a(bb_int.o)
 .com_text.bb.hs_get
                0x0000000000000000       0x22 ..\..\..\libs\ble\libbtstack.a(bb_int.o)
 .text          0x0000000000000000        0x0 ..\..\..\libs\ble\libbtstack.a(bb_alarm.o)
 .data          0x0000000000000000        0x0 ..\..\..\libs\ble\libbtstack.a(bb_alarm.o)
 .bss           0x0000000000000000        0x0 ..\..\..\libs\ble\libbtstack.a(bb_alarm.o)
 .com_text.bb.isr.nest
                0x0000000000000000        0xa ..\..\..\libs\ble\libbtstack.a(bb_alarm.o)
 .data          0x0000000000000000        0x0 ..\..\..\libs\ble\libbtstack.a(txpkt.o)
 .bss           0x0000000000000000        0x0 ..\..\..\libs\ble\libbtstack.a(txpkt.o)
 .data          0x0000000000000000        0x0 ..\..\..\libs\ble\libbtstack.a(sm.o)
 .text.sm.cmac  0x0000000000000000       0x82 ..\..\..\libs\ble\libbtstack.a(sm.o)
 .text.sm.irk.set
                0x0000000000000000       0x2e ..\..\..\libs\ble\libbtstack.a(sm.o)
 .text.sm.bonding_decline
                0x0000000000000000       0x60 ..\..\..\libs\ble\libbtstack.a(sm.o)
 .text.sm.passkey.set
                0x0000000000000000       0x3e ..\..\..\libs\ble\libbtstack.a(sm.o)
 .text.sm.identity_resolving_state
                0x0000000000000000       0x20 ..\..\..\libs\ble\libbtstack.a(sm.o)
 .text.sm.irk_get
                0x0000000000000000        0xa ..\..\..\libs\ble\libbtstack.a(sm.o)
 .text.sm.delete_bonding
                0x0000000000000000       0x6e ..\..\..\libs\ble\libbtstack.a(sm.o)
 .data          0x0000000000000000        0x0 ..\..\..\libs\ble\libbtstack.a(le_device_db_memory.o)
 .bss           0x0000000000000000        0x0 ..\..\..\libs\ble\libbtstack.a(le_device_db_memory.o)
 .text.le.db.get
                0x0000000000000000       0x3e ..\..\..\libs\ble\libbtstack.a(le_device_db_memory.o)
 .text.le.db.remove_all
                0x0000000000000000       0x60 ..\..\..\libs\ble\libbtstack.a(le_device_db_memory.o)
 .text.le.db.dump
                0x0000000000000000       0x6a ..\..\..\libs\ble\libbtstack.a(le_device_db_memory.o)
 .text.le.db.get_index
                0x0000000000000000       0x1c ..\..\..\libs\ble\libbtstack.a(le_device_db_memory.o)
 .data          0x0000000000000000        0x0 ..\..\..\libs\ble\libbtstack.a(gatt_server.o)
 .bss           0x0000000000000000        0x0 ..\..\..\libs\ble\libbtstack.a(gatt_server.o)
 .data          0x0000000000000000        0x0 ..\..\..\libs\ble\libbtstack.a(gatt_client.o)
 .bss           0x0000000000000000        0x0 ..\..\..\libs\ble\libbtstack.a(gatt_client.o)
 .text.client.set.sm_level
                0x0000000000000000        0xa ..\..\..\libs\ble\libbtstack.a(gatt_client.o)
 .text.client.stop_listening
                0x0000000000000000       0x14 ..\..\..\libs\ble\libbtstack.a(gatt_client.o)
 .text.client.deserialize_characteristic_descriptor
                0x0000000000000000       0x4e ..\..\..\libs\ble\libbtstack.a(gatt_client.o)
 .text.client.get_character_uuid16
                0x0000000000000000       0x22 ..\..\..\libs\ble\libbtstack.a(gatt_client.o)
 .text.client.get_character_uuid128
                0x0000000000000000       0x42 ..\..\..\libs\ble\libbtstack.a(gatt_client.o)
 .text.client.write_cmd
                0x0000000000000000       0x24 ..\..\..\libs\ble\libbtstack.a(gatt_client.o)
 .text.client.read_req
                0x0000000000000000       0x44 ..\..\..\libs\ble\libbtstack.a(gatt_client.o)
 .text.client.read_blob
                0x0000000000000000       0x22 ..\..\..\libs\ble\libbtstack.a(gatt_client.o)
 .text.client.find_services
                0x0000000000000000       0x5e ..\..\..\libs\ble\libbtstack.a(gatt_client.o)
 .text.client.discover_secondary_services
                0x0000000000000000       0x4c ..\..\..\libs\ble\libbtstack.a(gatt_client.o)
 .text.client.find_services_uuid16
                0x0000000000000000       0x6a ..\..\..\libs\ble\libbtstack.a(gatt_client.o)
 .text.client.find_character
                0x0000000000000000       0x6a ..\..\..\libs\ble\libbtstack.a(gatt_client.o)
 .text.client.find_included_services
                0x0000000000000000       0x4e ..\..\..\libs\ble\libbtstack.a(gatt_client.o)
 .text.client.find_character_uuid16
                0x0000000000000000       0x90 ..\..\..\libs\ble\libbtstack.a(gatt_client.o)
 .text.client.find_character_uuid128
                0x0000000000000000       0x92 ..\..\..\libs\ble\libbtstack.a(gatt_client.o)
 .text.client.discover_characteristic_descriptors
                0x0000000000000000       0x5e ..\..\..\libs\ble\libbtstack.a(gatt_client.o)
 .text.client.read_value
                0x0000000000000000        0xc ..\..\..\libs\ble\libbtstack.a(gatt_client.o)
 .text.client.read_value_uuid16
                0x0000000000000000       0x66 ..\..\..\libs\ble\libbtstack.a(gatt_client.o)
 .text.client.read_value_uuid128
                0x0000000000000000       0x68 ..\..\..\libs\ble\libbtstack.a(gatt_client.o)
 .text.client.read_long_value
                0x0000000000000000       0x16 ..\..\..\libs\ble\libbtstack.a(gatt_client.o)
 .text.client.read_multiple
                0x0000000000000000       0x48 ..\..\..\libs\ble\libbtstack.a(gatt_client.o)
 .text.client.write_long_value
                0x0000000000000000       0x62 ..\..\..\libs\ble\libbtstack.a(gatt_client.o)
 .text.client.reliable_write_long
                0x0000000000000000       0x52 ..\..\..\libs\ble\libbtstack.a(gatt_client.o)
 .text.client.read_characteristic
                0x0000000000000000       0x50 ..\..\..\libs\ble\libbtstack.a(gatt_client.o)
 .text.client.read_long_characteristic_descriptor
                0x0000000000000000       0x62 ..\..\..\libs\ble\libbtstack.a(gatt_client.o)
 .text.client.write_character_desc
                0x0000000000000000       0x60 ..\..\..\libs\ble\libbtstack.a(gatt_client.o)
 .text.client.write_long_character_desc
                0x0000000000000000       0x70 ..\..\..\libs\ble\libbtstack.a(gatt_client.o)
 .text.client.prepare_write
                0x0000000000000000       0x56 ..\..\..\libs\ble\libbtstack.a(gatt_client.o)
 .text.client.execute_write
                0x0000000000000000       0x3c ..\..\..\libs\ble\libbtstack.a(gatt_client.o)
 .text.client.cancel_write
                0x0000000000000000       0x3c ..\..\..\libs\ble\libbtstack.a(gatt_client.o)
 .ble_buf.read  0x0000000000000000        0x6 ..\..\..\libs\ble\libbtstack.a(gatt_client.o)
 .data          0x0000000000000000        0x0 ..\..\..\libs\ble\libbtstack.a(att_server.o)
 .bss           0x0000000000000000        0x0 ..\..\..\libs\ble\libbtstack.a(att_server.o)
 .data          0x0000000000000000        0x0 ..\..\..\libs\ble\libbtstack.a(att_dispatch.o)
 .bss           0x0000000000000000        0x0 ..\..\..\libs\ble\libbtstack.a(att_dispatch.o)
 .data          0x0000000000000000        0x0 ..\..\..\libs\ble\libbtstack.a(att_db.o)
 .bss           0x0000000000000000        0x0 ..\..\..\libs\ble\libbtstack.a(att_db.o)
 .text.att.dump
                0x0000000000000000       0x5c ..\..\..\libs\ble\libbtstack.a(att_db.o)
 .text.gatt.get_client_config
                0x0000000000000000      0x122 ..\..\..\libs\ble\libbtstack.a(att_db.o)
 .data          0x0000000000000000        0x0 ..\..\..\libs\ble\libbtstack.a(btstack_api.o)
 .bss           0x0000000000000000        0x0 ..\..\..\libs\ble\libbtstack.a(btstack_api.o)
 .data          0x0000000000000000        0x0 ..\..\..\libs\ble\libbtstack.a(ble_api.o)
 .bss           0x0000000000000000        0x0 ..\..\..\libs\ble\libbtstack.a(ble_api.o)
 .text.ble.api.max_mtu
                0x0000000000000000        0x8 ..\..\..\libs\ble\libbtstack.a(ble_api.o)
 .text.ble.api.adv_dis
                0x0000000000000000        0xc ..\..\..\libs\ble\libbtstack.a(ble_api.o)
 .text.ble.api.adv_en
                0x0000000000000000        0xc ..\..\..\libs\ble\libbtstack.a(ble_api.o)
 .text.ble.api.adv_is_en
                0x0000000000000000        0x8 ..\..\..\libs\ble\libbtstack.a(ble_api.o)
 .text.ble.api.discon
                0x0000000000000000        0xe ..\..\..\libs\ble\libbtstack.a(ble_api.o)
 .text.ble.api.adv_data.set
                0x0000000000000000       0x5c ..\..\..\libs\ble\libbtstack.a(ble_api.o)
 .text.ble.api.scan
                0x0000000000000000       0x5c ..\..\..\libs\ble\libbtstack.a(ble_api.o)
 .text.ble.api.adv
                0x0000000000000000        0x4 ..\..\..\libs\ble\libbtstack.a(ble_api.o)
 .text.ble.api.scan.dis
                0x0000000000000000        0x2 ..\..\..\libs\ble\libbtstack.a(ble_api.o)
 .text.ble.api.scan.en
                0x0000000000000000        0x2 ..\..\..\libs\ble\libbtstack.a(ble_api.o)
 .text.ble.api.scan.set
                0x0000000000000000        0x4 ..\..\..\libs\ble\libbtstack.a(ble_api.o)
 .text.ble.api.conn_do
                0x0000000000000000        0x4 ..\..\..\libs\ble\libbtstack.a(ble_api.o)
 .text.ble.api.rpa
                0x0000000000000000        0x2 ..\..\..\libs\ble\libbtstack.a(ble_api.o)
 .text.ble.api.rpa_en
                0x0000000000000000        0x2 ..\..\..\libs\ble\libbtstack.a(ble_api.o)
 .text.ble.api.rpa_add
                0x0000000000000000        0x2 ..\..\..\libs\ble\libbtstack.a(ble_api.o)
 .text.ble.api.rpa_dev
                0x0000000000000000        0x2 ..\..\..\libs\ble\libbtstack.a(ble_api.o)
 .text.ble.api.wlist_add
                0x0000000000000000        0x2 ..\..\..\libs\ble\libbtstack.a(ble_api.o)
 .text.ble.api.wlist_dev
                0x0000000000000000        0x2 ..\..\..\libs\ble\libbtstack.a(ble_api.o)
 .text.ble.api.wlist
                0x0000000000000000        0x4 ..\..\..\libs\ble\libbtstack.a(ble_api.o)
 .text.ble.api.sm.passkey
                0x0000000000000000       0x2c ..\..\..\libs\ble\libbtstack.a(ble_api.o)
 .text.ble.api.sm_req
                0x0000000000000000        0xe ..\..\..\libs\ble\libbtstack.a(ble_api.o)
 .text.ble.bond.delete_addr
                0x0000000000000000        0x8 ..\..\..\libs\ble\libbtstack.a(ble_api.o)
 .text.ble.bond.delete_index
                0x0000000000000000        0x8 ..\..\..\libs\ble\libbtstack.a(ble_api.o)
 .text.ble.bond.delete_all
                0x0000000000000000        0x8 ..\..\..\libs\ble\libbtstack.a(ble_api.o)
 .text.ble.bond.get_cnt
                0x0000000000000000       0x1c ..\..\..\libs\ble\libbtstack.a(ble_api.o)
 .text.ble.bond.get_info
                0x0000000000000000        0x8 ..\..\..\libs\ble\libbtstack.a(ble_api.o)
 .text.ble.bond.get_index
                0x0000000000000000        0x8 ..\..\..\libs\ble\libbtstack.a(ble_api.o)
 .text.ble.api.get_rssi
                0x0000000000000000        0x8 ..\..\..\libs\ble\libbtstack.a(ble_api.o)
 .text.ble.set_static_addr
                0x0000000000000000       0x48 ..\..\..\libs\ble\libbtstack.a(ble_api.o)
 .text.ble.single_mode
                0x0000000000000000       0x48 ..\..\..\libs\ble\libbtstack.a(ble_api.o)
 .data          0x0000000000000000        0x0 ..\..\..\libs\ble\libbtstack.a(txpkt.o)
 .bss           0x0000000000000000        0x0 ..\..\..\libs\ble\libbtstack.a(txpkt.o)
 .text          0x0000000000000000        0x0 ..\..\..\libs\ble\libbtstack.a(aes.o)
 .data          0x0000000000000000        0x0 ..\..\..\libs\ble\libbtstack.a(aes.o)
 .com_text.bb.isr
                0x0000000000000000       0x28 ..\..\..\libs\ble\libbtstack.a(aes.o)
 .text.bb.aes.ecpy
                0x0000000000000000       0xe8 ..\..\..\libs\ble\libbtstack.a(aes.o)
 .data          0x0000000000000000        0x0 ..\..\..\libs\ble\libbtstack.a(extern.o)
 .bss           0x0000000000000000        0x0 ..\..\..\libs\ble\libbtstack.a(extern.o)
 .text.bsp.param
                0x0000000000000000        0x2 ..\..\..\libs\ble\libbtstack.a(extern.o)
 .com_sleep.sleep
                0x0000000000000000        0x2 ..\..\..\libs\ble\libbtstack.a(extern.o)
 .com_text.ble.phy
                0x0000000000000000        0x4 ..\..\..\libs\ble\libbtstack.a(extern.o)
 .data          0x0000000000000000        0x0 ..\..\..\libs\ble\libbtstack.a(rf.o)
 .bss           0x0000000000000000        0x0 ..\..\..\libs\ble\libbtstack.a(rf.o)
 .com_text.bb.isr.lv
                0x0000000000000000       0x3e ..\..\..\libs\ble\libbtstack.a(rf.o)
 .com_text.bb.isr.dbm
                0x0000000000000000       0x12 ..\..\..\libs\ble\libbtstack.a(rf.o)
 .com_rodata.bb.tbl
                0x0000000000000000        0x8 ..\..\..\libs\ble\libbtstack.a(rf.o)
 .text          0x0000000000000000        0x0 ..\..\..\libs\ble\libbtstack.a(hct_tl.o)
 .data          0x0000000000000000        0x0 ..\..\..\libs\ble\libbtstack.a(hct_tl.o)
 .bss           0x0000000000000000        0x0 ..\..\..\libs\ble\libbtstack.a(hct_tl.o)
 .data          0x0000000000000000        0x0 ..\..\..\libs\ble\libbtstack.a(ble_con.o)
 .bss           0x0000000000000000        0x0 ..\..\..\libs\ble\libbtstack.a(ble_con.o)
 .com_rodata.bb.tbl
                0x0000000000000000       0x10 ..\..\..\libs\ble\libbtstack.a(ble_con.o)
 .data          0x0000000000000000        0x0 ..\..\..\libs\ble\libbtstack.a(ble_buf.o)
 .data          0x0000000000000000        0x0 ..\..\..\libs\ble\libbtstack.a(ble.o)
 .bss           0x0000000000000000        0x0 ..\..\..\libs\ble\libbtstack.a(ble.o)
 .text          0x0000000000000000       0x3e ..\..\..\libs\ble\libbtstack.a(bb_utils.o)
 .data          0x0000000000000000        0x0 ..\..\..\libs\ble\libbtstack.a(bb_utils.o)
 .bss           0x0000000000000000        0x0 ..\..\..\libs\ble\libbtstack.a(bb_utils.o)
 .com_rodata.bb.tbl.r2m
                0x0000000000000000        0x4 ..\..\..\libs\ble\libbtstack.a(bb_utils.o)
 .com_rodata.bb.tbl.rate.dur
                0x0000000000000000        0x5 ..\..\..\libs\ble\libbtstack.a(bb_utils.o)
 .srodata       0x0000000000000000        0x5 ..\..\..\libs\ble\libbtstack.a(bb_utils.o)
 .text          0x0000000000000000        0x0 ..\..\..\libs\ble\libbtstack.a(bb_sleep.o)
 .data          0x0000000000000000        0x0 ..\..\..\libs\ble\libbtstack.a(bb_sleep.o)
 .bss           0x0000000000000000        0x0 ..\..\..\libs\ble\libbtstack.a(bb_sleep.o)
 .data          0x0000000000000000        0x0 ..\..\..\libs\ble\libbtstack.a(bb.o)
 .bss           0x0000000000000000        0x0 ..\..\..\libs\ble\libbtstack.a(bb.o)
 .text          0x0000000000000000        0x0 ..\..\..\libs\ble\libbtstack.a(platform.o)
 .data          0x0000000000000000        0x0 ..\..\..\libs\ble\libbtstack.a(platform.o)
 .bss           0x0000000000000000        0x0 ..\..\..\libs\ble\libbtstack.a(platform.o)
 .com_text.cpu.sfr
                0x0000000000000000       0x3c ..\..\..\libs\ble\libbtstack.a(platform.o)
 .data          0x0000000000000000        0x0 ..\..\..\libs\ble\libbtstack.a(extern_ble.o)
 .bss           0x0000000000000000        0x0 ..\..\..\libs\ble\libbtstack.a(extern_ble.o)
 .sbss          0x0000000000000000        0x1 ..\..\..\libs\ble\libbtstack.a(extern_ble.o)
 .data          0x0000000000000000        0x0 ..\..\..\libs\ble\libbtstack.a(l2cap.o)
 .bss           0x0000000000000000        0x0 ..\..\..\libs\ble\libbtstack.a(l2cap.o)
 .text.l2cap.mtu_max
                0x0000000000000000        0x6 ..\..\..\libs\ble\libbtstack.a(l2cap.o)
 .text.l2cap.mtu_set
                0x0000000000000000       0x18 ..\..\..\libs\ble\libbtstack.a(l2cap.o)
 .text          0x0000000000000000       0x18 ..\..\..\libs\ble\libbtstack.a(hci_dump.o)
 .data          0x0000000000000000        0xc ..\..\..\libs\ble\libbtstack.a(hci_dump.o)
 .bss           0x0000000000000000        0x0 ..\..\..\libs\ble\libbtstack.a(hci_dump.o)
 .rodata.str1.4
                0x0000000000000000       0x12 ..\..\..\libs\ble\libbtstack.a(hci_dump.o)
 .text.stack.util
                0x0000000000000000       0x82 ..\..\..\libs\ble\libbtstack.a(hci_dump.o)
 .text          0x0000000000000000        0x0 ..\..\..\libs\ble\libbtstack.a(hci_cmd.o)
 .data          0x0000000000000000        0x0 ..\..\..\libs\ble\libbtstack.a(hci_cmd.o)
 .bss           0x0000000000000000        0x0 ..\..\..\libs\ble\libbtstack.a(hci_cmd.o)
 .rodata.stack.hci_send.ch
                0x0000000000000000        0x8 ..\..\..\libs\ble\libbtstack.a(hci_cmd.o)
 .rodata.stack.hci_send.chm
                0x0000000000000000        0x8 ..\..\..\libs\ble\libbtstack.a(hci_cmd.o)
 .rodata.stack.hci_send.featrue
                0x0000000000000000        0x8 ..\..\..\libs\ble\libbtstack.a(hci_cmd.o)
 .rodata.stack.hci_send.read_sugg_len
                0x0000000000000000        0x8 ..\..\..\libs\ble\libbtstack.a(hci_cmd.o)
 .rodata.stack.hci_send.rx_test
                0x0000000000000000        0x8 ..\..\..\libs\ble\libbtstack.a(hci_cmd.o)
 .rodata.stack.hci_send.set_len
                0x0000000000000000        0x8 ..\..\..\libs\ble\libbtstack.a(hci_cmd.o)
 .rodata.stack.hci_send.sup_sta
                0x0000000000000000        0x8 ..\..\..\libs\ble\libbtstack.a(hci_cmd.o)
 .rodata.stack.hci_send.test_end
                0x0000000000000000        0x8 ..\..\..\libs\ble\libbtstack.a(hci_cmd.o)
 .rodata.stack.hci_send.tx_test
                0x0000000000000000        0x8 ..\..\..\libs\ble\libbtstack.a(hci_cmd.o)
 .srodata       0x0000000000000000        0x8 ..\..\..\libs\ble\libbtstack.a(hci_cmd.o)
 .data          0x0000000000000000        0x0 ..\..\..\libs\ble\libbtstack.a(hci.o)
 .bss           0x0000000000000000        0x0 ..\..\..\libs\ble\libbtstack.a(hci.o)
 .text.hci.adv.is_enable
                0x0000000000000000       0x14 ..\..\..\libs\ble\libbtstack.a(hci.o)
 .com_text.stack.hci_recv
                0x0000000000000000       0x10 ..\..\..\libs\ble\libbtstack.a(hci.o)
 .data          0x0000000000000000        0x0 ..\..\..\libs\ble\libbtstack.a(btstack_util.o)
 .bss           0x0000000000000000        0x0 ..\..\..\libs\ble\libbtstack.a(btstack_util.o)
 .data          0x0000000000000000        0x0 ..\..\..\libs\ble\libbtstack.a(btstack_run_loop.o)
 .bss           0x0000000000000000        0x0 ..\..\..\libs\ble\libbtstack.a(btstack_run_loop.o)
 .data          0x0000000000000000        0x0 ..\..\..\libs\ble\libbtstack.a(btstack_memory.o)
 .text.stack.memory
                0x0000000000000000       0x12 ..\..\..\libs\ble\libbtstack.a(btstack_memory.o)
 .text.stack.setup
                0x0000000000000000        0x2 ..\..\..\libs\ble\libbtstack.a(btstack_memory.o)
 .data          0x0000000000000000        0x0 ..\..\..\libs\ble\libbtstack.a(hci_transport_h3_controller.o)
 .bss           0x0000000000000000       0x20 ..\..\..\libs\ble\libbtstack.a(hci_transport_h3_controller.o)
 .text.stack.h3c
                0x0000000000000000      0x1dc ..\..\..\libs\ble\libbtstack.a(hci_transport_h3_controller.o)
 .rodata.str1.4
                0x0000000000000000       0x16 ..\..\..\libs\ble\libbtstack.a(hci_transport_h3_controller.o)
 .com_text.stack.h3c
                0x0000000000000000       0x48 ..\..\..\libs\ble\libbtstack.a(hci_transport_h3_controller.o)
 .com_text.stack.util
                0x0000000000000000      0x136 ..\..\..\libs\ble\libbtstack.a(hci_transport_h3_controller.o)
 .text.btstack.hci.h3c.init
                0x0000000000000000       0x12 ..\..\..\libs\ble\libbtstack.a(hci_transport_h3_controller.o)
 .rodata        0x0000000000000000       0x20 ..\..\..\libs\ble\libbtstack.a(hci_transport_h3_controller.o)
 .com_rodata.stack.h3
                0x0000000000000000        0x2 ..\..\..\libs\ble\libbtstack.a(hci_transport_h3_controller.o)
 .hci.h3.huart  0x0000000000000000      0x10c ..\..\..\libs\ble\libbtstack.a(hci_transport_h3_controller.o)
 .sbss          0x0000000000000000       0x1c ..\..\..\libs\ble\libbtstack.a(hci_transport_h3_controller.o)
 .data          0x0000000000000000        0x0 ..\..\..\libs\ble\libbtstack.a(hci_transport_dummy.o)
 .bss           0x0000000000000000        0x0 ..\..\..\libs\ble\libbtstack.a(hci_transport_dummy.o)
 .data          0x0000000000000000        0x0 ..\..\..\libs\ble\libbtstack.a(btstack_main.o)
 .bss           0x0000000000000000        0x0 ..\..\..\libs\ble\libbtstack.a(btstack_main.o)
 .data          0x0000000000000000        0x0 ..\..\..\libs\ble\libbtstack.a(btstack_hal.o)
 .bss           0x0000000000000000        0x0 ..\..\..\libs\ble\libbtstack.a(btstack_hal.o)
 .com_text.stack.uart_isr
                0x0000000000000000       0x6c ..\..\..\libs\ble\libbtstack.a(btstack_hal.o)
 .text.stack.hal
                0x0000000000000000       0xa4 ..\..\..\libs\ble\libbtstack.a(btstack_hal.o)
 .com_text.stack.util
                0x0000000000000000       0x12 ..\..\..\libs\ble\libbtstack.a(btstack_hal.o)
 .sbss          0x0000000000000000        0x8 ..\..\..\libs\ble\libbtstack.a(btstack_hal.o)
 .data          0x0000000000000000        0x0 ..\..\..\libs\ble\libbtstack.a(nanos.o)
 .bss           0x0000000000000000        0x0 ..\..\..\libs\ble\libbtstack.a(nanos.o)
 .com_text.ret.bb
                0x0000000000000000        0x2 ..\..\..\libs\ble\libbtstack.a(nanos.o)
 .data          0x0000000000000000        0x0 ..\..\..\libs\ble\libbtstack.a(bb_sche.o)
 .data          0x0000000000000000        0x0 ..\..\..\libs\ble\libbtstack.a(patch.o)
 .bss           0x0000000000000000        0x0 ..\..\..\libs\ble\libbtstack.a(patch.o)
 .text          0x0000000000000000        0x0 ..\..\..\libs\ble\libbtstack.a(bb_dbg.o)
 .data          0x0000000000000000        0x0 ..\..\..\libs\ble\libbtstack.a(bb_dbg.o)
 .bss           0x0000000000000000        0x0 ..\..\..\libs\ble\libbtstack.a(bb_dbg.o)
 .com_text.spi_init
                0x0000000000000000       0x60 ..\..\..\libs\ble\libbtstack.a(bb_dbg.o)
 .com_text.bb.putc
                0x0000000000000000       0x60 ..\..\..\libs\ble\libbtstack.a(bb_dbg.o)
 .text          0x0000000000000000        0x0 ..\..\..\libs\ble\libbtstack.a(bb_clk.o)
 .data          0x0000000000000000        0x0 ..\..\..\libs\ble\libbtstack.a(bb_clk.o)
 .bss           0x0000000000000000        0x0 ..\..\..\libs\ble\libbtstack.a(bb_clk.o)
 .data          0x0000000000000000        0x0 ..\..\..\libs\ble\libbtstack.a(vs.o)
 .bss           0x0000000000000000        0x0 ..\..\..\libs\ble\libbtstack.a(vs.o)
 .bss           0x0000000000000000        0x0 ..\..\..\libs\ble\libbtstack.a(rf_mate.o)
 .text.rf.vddvco.set
                0x0000000000000000       0x18 ..\..\..\libs\ble\libbtstack.a(rf_mate.o)
 .text.rf.vddvco.get
                0x0000000000000000        0xa ..\..\..\libs\ble\libbtstack.a(rf_mate.o)
 .text.rf.pll.set
                0x0000000000000000       0x12 ..\..\..\libs\ble\libbtstack.a(rf_mate.o)
 .data          0x0000000000000000        0x0 ..\..\..\libs\ble\libbtstack.a(ble_hook.o)
 .bss           0x0000000000000000        0x0 ..\..\..\libs\ble\libbtstack.a(ble_hook.o)
 .data          0x0000000000000000        0x0 ..\..\..\libs\ble\libbtstack.a(hct_proc.o)
 .bss           0x0000000000000000        0x0 ..\..\..\libs\ble\libbtstack.a(hct_proc.o)
 .data          0x0000000000000000        0x0 ..\..\..\libs\ble\libbtstack.a(hct.o)
 .bss           0x0000000000000000        0x0 ..\..\..\libs\ble\libbtstack.a(hct.o)
 .data          0x0000000000000000        0x0 ..\..\..\libs\ble\libbtstack.a(mgr_hci.o)
 .bss           0x0000000000000000        0x0 ..\..\..\libs\ble\libbtstack.a(mgr_hci.o)
 .data          0x0000000000000000        0x0 ..\..\..\libs\ble\libbtstack.a(mgr.o)
 .bss           0x0000000000000000        0x0 ..\..\..\libs\ble\libbtstack.a(mgr.o)
 .data          0x0000000000000000        0x0 ..\..\..\libs\ble\libbtstack.a(ll_adv.o)
 .bss           0x0000000000000000        0x0 ..\..\..\libs\ble\libbtstack.a(ll_adv.o)
 .data          0x0000000000000000        0x0 ..\..\..\libs\ble\libbtstack.a(ll_tbox_freq_cal.o)
 .data          0x0000000000000000        0x0 ..\..\..\libs\ble\libbtstack.a(ll_con_upd.o)
 .bss           0x0000000000000000        0x0 ..\..\..\libs\ble\libbtstack.a(ll_con_upd.o)
 .data          0x0000000000000000        0x0 ..\..\..\libs\ble\libbtstack.a(ll_cntl.o)
 .bss           0x0000000000000000        0x0 ..\..\..\libs\ble\libbtstack.a(ll_cntl.o)
 .text          0x0000000000000000        0x0 ..\..\..\libs\ble\libbtstack.a(ll_clk_acc.o)
 .data          0x0000000000000000        0x0 ..\..\..\libs\ble\libbtstack.a(ll_clk_acc.o)
 .bss           0x0000000000000000        0x0 ..\..\..\libs\ble\libbtstack.a(ll_clk_acc.o)
 .data          0x0000000000000000        0x0 ..\..\..\libs\ble\libbtstack.a(ll_chmap_upd.o)
 .bss           0x0000000000000000        0x0 ..\..\..\libs\ble\libbtstack.a(ll_chmap_upd.o)
 .text          0x0000000000000000        0x0 ..\..\..\libs\ble\libbtstack.a(ll.o)
 .data          0x0000000000000000        0x0 ..\..\..\libs\ble\libbtstack.a(ll.o)
 .bss           0x0000000000000000        0x0 ..\..\..\libs\ble\libbtstack.a(ll.o)
 .data          0x0000000000000000        0x0 ..\..\..\libs\ble\libbtstack.a(ble_test.o)
 .bss           0x0000000000000000        0x0 ..\..\..\libs\ble\libbtstack.a(ble_test.o)
 .data          0x0000000000000000        0x0 ..\..\..\libs\ble\libbtstack.a(ble_sync.o)
 .bss           0x0000000000000000        0x0 ..\..\..\libs\ble\libbtstack.a(ble_sync.o)
 .data          0x0000000000000000        0x0 ..\..\..\libs\ble\libbtstack.a(ble_scan.o)
 .bss           0x0000000000000000        0x0 ..\..\..\libs\ble\libbtstack.a(ble_scan.o)
 .data          0x0000000000000000        0x0 ..\..\..\libs\ble\libbtstack.a(ble_init.o)
 .bss           0x0000000000000000        0x0 ..\..\..\libs\ble\libbtstack.a(ble_init.o)
 .data          0x0000000000000000        0x0 ..\..\..\libs\ble\libbtstack.a(ble_hal.o)
 .bss           0x0000000000000000        0x0 ..\..\..\libs\ble\libbtstack.a(ble_hal.o)
 .data          0x0000000000000000        0x0 ..\..\..\libs\ble\libbtstack.a(ble_adv.o)
 .bss           0x0000000000000000        0x0 ..\..\..\libs\ble\libbtstack.a(ble_adv.o)
 .text          0x0000000000000000        0x0 ..\..\..\libs\ble\libbtstack.a(periph.o)
 .data          0x0000000000000000        0x0 ..\..\..\libs\ble\libbtstack.a(periph.o)
 .bss           0x0000000000000000        0x0 ..\..\..\libs\ble\libbtstack.a(periph.o)
 .text.huart    0x0000000000000000        0x4 ..\..\..\libs\ble\libbtstack.a(periph.o)
 .com_text.huart
                0x0000000000000000       0x10 ..\..\..\libs\ble\libbtstack.a(periph.o)
 .comment       0x0000000000000000       0x13 ..\..\..\libs\ble\libbtstack.a(periph.o)
 .riscv.attributes
                0x0000000000000000       0x32 ..\..\..\libs\ble\libbtstack.a(periph.o)
 .text          0x0000000000000000        0x0 ..\..\..\libs\ble\libbtstack.a(l2cap_signaling.o)
 .data          0x0000000000000000        0x0 ..\..\..\libs\ble\libbtstack.a(l2cap_signaling.o)
 .bss           0x0000000000000000        0x0 ..\..\..\libs\ble\libbtstack.a(l2cap_signaling.o)
 .text          0x0000000000000000        0x0 ..\..\..\libs\ble\libbtstack.a(btstack_memory_pool.o)
 .data          0x0000000000000000        0x0 ..\..\..\libs\ble\libbtstack.a(btstack_memory_pool.o)
 .bss           0x0000000000000000        0x0 ..\..\..\libs\ble\libbtstack.a(btstack_memory_pool.o)
 .text          0x0000000000000000        0x0 ..\..\..\libs\ble\libbtstack.a(patch_asm.o)
 .data          0x0000000000000000        0x0 ..\..\..\libs\ble\libbtstack.a(patch_asm.o)
 .bss           0x0000000000000000        0x0 ..\..\..\libs\ble\libbtstack.a(patch_asm.o)
 .text          0x0000000000000000        0x0 ..\..\..\libs\ble\libbtstack.a(platform.o)
 .data          0x0000000000000000        0x0 ..\..\..\libs\ble\libbtstack.a(platform.o)
 .bss           0x0000000000000000        0x0 ..\..\..\libs\ble\libbtstack.a(platform.o)
 .com_text.bb.dbg.bt21
                0x0000000000000000        0x4 ..\..\..\libs\ble\libbtstack.a(platform.o)
 .com_text.bb.utils.dummy
                0x0000000000000000        0x6 ..\..\..\libs\ble\libbtstack.a(platform.o)
 .data          0x0000000000000000        0x0 ..\..\..\libs\ble\libbtstack.a(vs_proc.o)
 .bss           0x0000000000000000        0x0 ..\..\..\libs\ble\libbtstack.a(vs_proc.o)
 .text          0x0000000000000000        0x0 ..\..\..\libs\ble\libbtstack.a(vs_fcc.o)
 .data          0x0000000000000000        0x0 ..\..\..\libs\ble\libbtstack.a(vs_fcc.o)
 .bss           0x0000000000000000        0x0 ..\..\..\libs\ble\libbtstack.a(vs_fcc.o)
 .data          0x0000000000000000        0x0 ..\..\..\libs\ble\libbtstack.a(adv_hook.o)
 .bss           0x0000000000000000        0x0 ..\..\..\libs\ble\libbtstack.a(adv_hook.o)
 .data          0x0000000000000000        0x0 ..\..\..\libs\ble\libbtstack.a(hct_msg.o)
 .bss           0x0000000000000000        0x0 ..\..\..\libs\ble\libbtstack.a(hct_msg.o)
 .data          0x0000000000000000        0x0 ..\..\..\libs\ble\libbtstack.a(mgr_test.o)
 .bss           0x0000000000000000        0x0 ..\..\..\libs\ble\libbtstack.a(mgr_test.o)
 .data          0x0000000000000000        0x0 ..\..\..\libs\ble\libbtstack.a(mgr_proc.o)
 .bss           0x0000000000000000        0x0 ..\..\..\libs\ble\libbtstack.a(mgr_proc.o)
 .data          0x0000000000000000        0x0 ..\..\..\libs\ble\libbtstack.a(ll_version.o)
 .bss           0x0000000000000000        0x0 ..\..\..\libs\ble\libbtstack.a(ll_version.o)
 .data          0x0000000000000000        0x0 ..\..\..\libs\ble\libbtstack.a(ll_tbox_prod_test.o)
 .bss           0x0000000000000000        0x0 ..\..\..\libs\ble\libbtstack.a(ll_tbox_prod_test.o)
 .data          0x0000000000000000        0x0 ..\..\..\libs\ble\libbtstack.a(ll_tbox_feature.o)
 .bss           0x0000000000000000        0x0 ..\..\..\libs\ble\libbtstack.a(ll_tbox_feature.o)
 .data          0x0000000000000000        0x0 ..\..\..\libs\ble\libbtstack.a(ll_proc.o)
 .bss           0x0000000000000000        0x0 ..\..\..\libs\ble\libbtstack.a(ll_proc.o)
 .data          0x0000000000000000        0x0 ..\..\..\libs\ble\libbtstack.a(ll_phy_upd.o)
 .bss           0x0000000000000000        0x0 ..\..\..\libs\ble\libbtstack.a(ll_phy_upd.o)
 .data          0x0000000000000000        0x0 ..\..\..\libs\ble\libbtstack.a(ll_length.o)
 .bss           0x0000000000000000        0x0 ..\..\..\libs\ble\libbtstack.a(ll_length.o)
 .data          0x0000000000000000        0x0 ..\..\..\libs\ble\libbtstack.a(ll_feature.o)
 .bss           0x0000000000000000        0x0 ..\..\..\libs\ble\libbtstack.a(ll_feature.o)
 .data          0x0000000000000000        0x0 ..\..\..\libs\ble\libbtstack.a(ll_encrypt.o)
 .bss           0x0000000000000000        0x0 ..\..\..\libs\ble\libbtstack.a(ll_encrypt.o)
 .data          0x0000000000000000        0x0 ..\..\..\libs\ble\libbtstack.a(ll_disconnect.o)
 .bss           0x0000000000000000        0x0 ..\..\..\libs\ble\libbtstack.a(ll_disconnect.o)

Memory Configuration

Name             Origin             Length             Attributes
init             0x0000000010000000 0x0000000000000200
flash            0x0000000010000200 0x000000000003e000 xr
stack            0x0000000000010800 0x0000000000000400
sram             0x0000000000010c00 0x0000000000005400
pdn_comm         0x0000000000010c00 0x0000000000000400
*default*        0x0000000000000000 0xffffffffffffffff

Linker script and memory map

LOAD Output\obj\driver\driver_clk.o
LOAD Output\obj\driver\driver_gpio.o
LOAD Output\obj\driver\driver_hsuart.o
LOAD Output\obj\driver\driver_irrx.o
LOAD Output\obj\driver\driver_irtx.o
LOAD Output\obj\driver\driver_keyscan.o
LOAD Output\obj\driver\driver_ledc.o
LOAD Output\obj\driver\driver_lowpwr.o
LOAD Output\obj\driver\driver_pwm.o
LOAD Output\obj\driver\driver_rtc.o
LOAD Output\obj\driver\driver_saradc.o
LOAD Output\obj\driver\driver_spi.o
LOAD Output\obj\driver\driver_tmr.o
LOAD Output\obj\driver\driver_uart.o
LOAD Output\obj\driver\driver_wdt.o
LOAD Output\obj\project\solution\ble_hid_composite\app\app_hid_event.o
LOAD Output\obj\project\solution\ble_hid_composite\app\app_hid_selfie.o
LOAD Output\obj\project\solution\ble_hid_composite\app\app_hid_test.o
LOAD Output\obj\project\solution\ble_hid_composite\app\app_hid_tiktok.o
LOAD Output\obj\project\solution\ble_hid_composite\app\func.o
LOAD Output\obj\project\solution\ble_hid_composite\app\func_bt.o
LOAD Output\obj\project\solution\ble_hid_composite\app\func_idle.o
LOAD Output\obj\project\solution\ble_hid_composite\app\func_iodm.o
LOAD Output\obj\project\solution\ble_hid_composite\app\func_le_bqb_rf.o
LOAD Output\obj\project\solution\ble_hid_composite\app\func_le_fcc.o
LOAD Output\obj\project\solution\ble_hid_composite\app\func_lowpwr.o
LOAD Output\obj\project\solution\ble_hid_composite\app\func_tbox.o
LOAD Output\obj\project\solution\ble_hid_composite\ble\ble_adv.o
LOAD Output\obj\project\solution\ble_hid_composite\ble\ble_alarm.o
LOAD Output\obj\project\solution\ble_hid_composite\ble\ble_battery_service.o
LOAD Output\obj\project\solution\ble_hid_composite\ble\ble_client.o
LOAD Output\obj\project\solution\ble_hid_composite\ble\ble_fota_service.o
LOAD Output\obj\project\solution\ble_hid_composite\ble\ble_hid_service.o
LOAD Output\obj\project\solution\ble_hid_composite\ble\ble_init.o
LOAD Output\obj\project\solution\ble_hid_composite\ble\ble_proc.o
LOAD Output\obj\project\solution\ble_hid_composite\ble\ble_profile.o
LOAD Output\obj\project\solution\ble_hid_composite\ble\ble_service.o
LOAD Output\obj\project\solution\ble_hid_composite\ble\ble_user_service.o
LOAD Output\obj\project\solution\ble_hid_composite\bsp\bsp_huart.o
LOAD Output\obj\project\solution\ble_hid_composite\bsp\bsp_huart_iodm.o
LOAD Output\obj\project\solution\ble_hid_composite\bsp\bsp_io_key.o
LOAD Output\obj\project\solution\ble_hid_composite\bsp\bsp_key.o
LOAD Output\obj\project\solution\ble_hid_composite\bsp\bsp_param.o
LOAD Output\obj\project\solution\ble_hid_composite\bsp\bsp_saradc.o
LOAD Output\obj\project\solution\ble_hid_composite\bsp\bsp_saradc_key.o
LOAD Output\obj\project\solution\ble_hid_composite\bsp\bsp_saradc_tsen.o
LOAD Output\obj\project\solution\ble_hid_composite\bsp\bsp_saradc_vbat.o
LOAD Output\obj\project\solution\ble_hid_composite\bsp\bsp_sys.o
LOAD Output\obj\project\solution\ble_hid_composite\bsp\bsp_uart_debug.o
LOAD Output\obj\project\solution\ble_hid_composite\main.o
LOAD Output\obj\project\solution\ble_hid_composite\prod_test\iodm\prod_test_iodm.o
LOAD Output\obj\project\solution\ble_hid_composite\prod_test\prod_test.o
LOAD Output\obj\project\solution\ble_hid_composite\prod_test\tbox\prod_test_tbox.o
LOAD Output\obj\project\solution\ble_hid_composite\prod_test\tbox\tbox_key.o
LOAD Output\obj\project\solution\ble_hid_composite\strong_ble.o
LOAD Output\obj\project\solution\ble_hid_composite\strong_symbol.o
                0x000000000003e000                __max_flash_size = 0x3e000
                0x0000000010000000                __base = 0x10000000
                0x0000000000010600                __cache_stack_vma = 0x10600
                0x0000000000000200                __cache_stack_size = 0x200
                0x0000000000010800                __stack_vma = 0x10800
                0x0000000000000400                __stack_ram_size = 0x400
                0x0000000000010c00                __sram_vma = 0x10c00
                0x0000000000005400                __sram_ram_size = 0x5400
                0x0000000000013e00                __comm_vma = __comm_start
                0x0000000000000400                __pdn_comm_ram_size = 0x400
                0x0000000000010c00                __pdn_comm_vma = __sram_vma

.init           0x0000000010000000       0x4e
 *(.reset)
 .reset         0x0000000010000000       0x4e ..\..\..\libs\cpu\libplatform.a(reset.o)
                0x0000000010000000                _start

.bss            0x0000000000010c00     0x3200
                0x0000000000010c00                __bss_start = .
 *(.btmem.bthw)
 .btmem.bthw    0x0000000000010c00      0x6d4 ..\..\..\libs\ble\libbtstack.a(bb.o)
                0x0000000000010c00                bthw_mem
 *(.btmem*)
 .btmem.alarm   0x00000000000112d4       0x1c Output\obj\project\solution\ble_hid_composite\ble\ble_alarm.o
                0x00000000000112d4                alarm_pool
 .btmem.bb.env  0x00000000000112f0       0x60 ..\..\..\libs\ble\libbtstack.a(bb_int.o)
                0x00000000000112f0                bb_env
 .btmem.bb.timer
                0x0000000000011350        0x8 ..\..\..\libs\ble\libbtstack.a(bb_alarm.o)
 .btmem.rf.dc   0x0000000000011358       0x48 ..\..\..\libs\ble\libbtstack.a(rf.o)
                0x0000000000011358                rf_dc_trim
 .btmem.ble.con
                0x00000000000113a0        0x8 ..\..\..\libs\ble\libbtstack.a(ble_con.o)
                0x00000000000113a0                ble_con_env
 .btmem.ble.buf
                0x00000000000113a8       0x30 ..\..\..\libs\ble\libbtstack.a(ble_buf.o)
 .btmem.bb.ble.tbl
                0x00000000000113d8       0x10 ..\..\..\libs\ble\libbtstack.a(ble.o)
 .btmem.alloc.bb.buf
                0x00000000000113e8      0x540 ..\..\..\libs\ble\libbtstack.a(bb.o)
 .btmem.bb.buf  0x0000000000011928      0x1fc ..\..\..\libs\ble\libbtstack.a(bb.o)
 .btmem.bb.rf   0x0000000000011b24        0x3 ..\..\..\libs\ble\libbtstack.a(bb.o)
                0x0000000000011b24                rf_api
 *fill*         0x0000000000011b27        0x1 
 .btmem.cache.stack.hci
                0x0000000000011b28      0x10b ..\..\..\libs\ble\libbtstack.a(hci.o)
 *fill*         0x0000000000011c33        0x1 
 .btmem.stack.hci_buf
                0x0000000000011c34      0x1f8 ..\..\..\libs\ble\libbtstack.a(hci.o)
 .btmem.stack.util
                0x0000000000011e2c       0x12 ..\..\..\libs\ble\libbtstack.a(btstack_util.o)
 *fill*         0x0000000000011e3e        0x2 
 .btmem.stack   0x0000000000011e40       0x14 ..\..\..\libs\ble\libbtstack.a(btstack_run_loop.o)
 .btmem.hci.transport.h3
                0x0000000000011e54        0x4 ..\..\..\libs\ble\libbtstack.a(hci_transport_h3_controller.o)
                0x0000000000011e54                p_hci_transport
 .btmem.bb.buf  0x0000000000011e58       0x34 ..\..\..\libs\ble\libbtstack.a(nanos.o)
 .btmem.hct.env
                0x0000000000011e8c       0x40 ..\..\..\libs\ble\libbtstack.a(hct_proc.o)
 .btmem.bb.hci  0x0000000000011ecc        0x2 ..\..\..\libs\ble\libbtstack.a(hct.o)
                0x0000000000011ecc                hci_env
 *fill*         0x0000000000011ece        0x2 
 .btmem.ble.lm  0x0000000000011ed0       0xc4 ..\..\..\libs\ble\libbtstack.a(mgr.o)
                0x0000000000011ed0                mgr_env
 .btmem.ble.lc  0x0000000000011f94        0x8 ..\..\..\libs\ble\libbtstack.a(ll.o)
                0x0000000000011f94                ll_env
 .btmem.ble.test
                0x0000000000011f9c        0x4 ..\..\..\libs\ble\libbtstack.a(ble_test.o)
 .btmem.ble.hal
                0x0000000000011fa0      0x124 ..\..\..\libs\ble\libbtstack.a(ble_hal.o)
                0x0000000000011fa0                ble_env
                0x00000000000120bc                ble_exp_sync_pos_tab
 .btmem.ble.adv
                0x00000000000120c4        0x8 ..\..\..\libs\ble\libbtstack.a(ble_adv.o)
 .btmem.bb.vs   0x00000000000120cc        0xd ..\..\..\libs\ble\libbtstack.a(vs_proc.o)
                0x00000000000120cc                vs_env
 *(.osmem*)
 *fill*         0x00000000000120d9        0x3 
 .osmem         0x00000000000120dc      0xc48 Output\obj\project\solution\ble_hid_composite\strong_symbol.o
                0x00000000000120dc                mem_heap
 *(COMMON)
 COMMON         0x0000000000012d24       0x20 Output\obj\project\solution\ble_hid_composite\app\func_lowpwr.o
                0x0000000000012d24                sfr_user_backup
 COMMON         0x0000000000012d44        0x4 Output\obj\project\solution\ble_hid_composite\ble\ble_alarm.o
                0x0000000000012d44                alarm_handle
 COMMON         0x0000000000012d48       0x22 Output\obj\project\solution\ble_hid_composite\ble\ble_fota_service.o
                0x0000000000012d48                fot_var
 *fill*         0x0000000000012d6a        0x2 
 COMMON         0x0000000000012d6c       0x37 Output\obj\project\solution\ble_hid_composite\bsp\bsp_sys.o
                0x0000000000012d6c                tmr5ms_cnt
                0x0000000000012d70                xcfg_cb
 *(.bss*)
 *fill*         0x0000000000012da3        0x1 
 .bss           0x0000000000012da4       0x5c Output\obj\driver\driver_lowpwr.o
 .bss.periph.saradc
                0x0000000000012e00       0x24 Output\obj\driver\driver_saradc.o
 .bss           0x0000000000012e24       0x14 Output\obj\project\solution\ble_hid_composite\ble\ble_battery_service.o
 .bss           0x0000000000012e38       0x2c Output\obj\project\solution\ble_hid_composite\ble\ble_client.o
 .bss           0x0000000000012e64       0x14 Output\obj\project\solution\ble_hid_composite\ble\ble_fota_service.o
 .bss           0x0000000000012e78      0x450 Output\obj\project\solution\ble_hid_composite\ble\ble_hid_service.o
 .bss           0x00000000000132c8       0x28 Output\obj\project\solution\ble_hid_composite\ble\ble_user_service.o
 .bss.key.flag  0x00000000000132f0        0x1 Output\obj\project\solution\ble_hid_composite\bsp\bsp_key.o
 *fill*         0x00000000000132f1        0x3 
 .bss           0x00000000000132f4       0x14 Output\obj\project\solution\ble_hid_composite\bsp\bsp_saradc_vbat.o
 .bss           0x0000000000013308      0x130 ..\..\..\libs\cpu\libplatform.a(cm.o)
                0x0000000000013308                cm
 .bss           0x0000000000013438       0x18 ..\..\..\libs\cpu\libplatform.a(main.o)
                0x0000000000013438                sys
 .bss.irq_tbl   0x0000000000013450       0x88 ..\..\..\libs\cpu\libplatform.a(interrupt.o)
 .bss.sys.timer
                0x00000000000134d8        0x8 ..\..\..\libs\cpu\libplatform.a(interrupt.o)
 .bss.btstack   0x00000000000134e0        0x4 ..\..\..\libs\cpu\libplatform.a(startup.o)
                0x00000000000134e0                pmq_btstack
 .bss.bb.timer  0x00000000000134e4        0x1 ..\..\..\libs\ble\libbtstack.a(bb_alarm.o)
 *fill*         0x00000000000134e5        0x3 
 .bss           0x00000000000134e8       0x30 ..\..\..\libs\ble\libbtstack.a(sm.o)
 .bss           0x0000000000013518        0xc ..\..\..\libs\ble\libbtstack.a(aes.o)
                0x0000000000013518                aes_env
 .bss           0x0000000000013524       0x68 ..\..\..\libs\ble\libbtstack.a(ble_buf.o)
 .bss.stack.l2cap
                0x000000000001358c       0x3c ..\..\..\libs\ble\libbtstack.a(l2cap.o)
 .bss           0x00000000000135c8       0x6c ..\..\..\libs\ble\libbtstack.a(btstack_memory.o)
 .bss           0x0000000000013634      0x128 ..\..\..\libs\ble\libbtstack.a(bb_sche.o)
 .bss.hct.env   0x000000000001375c       0x18 ..\..\..\libs\ble\libbtstack.a(hct_proc.o)
 .bss           0x0000000000013774       0x28 ..\..\..\libs\ble\libbtstack.a(ll_tbox_freq_cal.o)
 *(.sbss*)
 .sbss          0x000000000001379c        0x2 Output\obj\project\solution\ble_hid_composite\app\app_hid_selfie.o
 .sbss          0x000000000001379e        0x1 Output\obj\project\solution\ble_hid_composite\app\app_hid_tiktok.o
 *fill*         0x000000000001379f        0x1 
 .sbss          0x00000000000137a0        0xc Output\obj\project\solution\ble_hid_composite\ble\ble_battery_service.o
 .sbss          0x00000000000137ac        0x4 Output\obj\project\solution\ble_hid_composite\ble\ble_client.o
 .sbss          0x00000000000137b0        0x2 Output\obj\project\solution\ble_hid_composite\ble\ble_fota_service.o
 *fill*         0x00000000000137b2        0x2 
 .sbss          0x00000000000137b4        0xe Output\obj\project\solution\ble_hid_composite\ble\ble_hid_service.o
 *fill*         0x00000000000137c2        0x2 
 .sbss          0x00000000000137c4        0x4 Output\obj\project\solution\ble_hid_composite\ble\ble_init.o
                0x00000000000137c4                cfg_bt_work_mode
 .sbss          0x00000000000137c8        0x8 Output\obj\project\solution\ble_hid_composite\ble\ble_proc.o
 .sbss          0x00000000000137d0        0x8 Output\obj\project\solution\ble_hid_composite\bsp\bsp_saradc_vbat.o
 .sbss          0x00000000000137d8        0x8 ..\..\..\libs\cpu\libplatform.a(os_flash.o)
                0x00000000000137d8                spi_baud_w
                0x00000000000137dc                spi_baud_r
 .sbss          0x00000000000137e0       0x10 ..\..\..\libs\cpu\libplatform.a(startup.o)
                0x00000000000137e0                soft_timer_isr_en
                0x00000000000137e4                pmutex_clk
                0x00000000000137e8                pmutex_cm
                0x00000000000137ec                psem_btstack
 .sbss          0x00000000000137f0        0x2 ..\..\..\libs\cpu\libplatform.a(fot_pack.o)
 *fill*         0x00000000000137f2        0x2 
 .sbss          0x00000000000137f4        0x8 ..\..\..\libs\cpu\libplatform.a(key.o)
 *fill*         0x00000000000137fc        0x4 
 .sbss          0x0000000000013800        0x8 ..\..\..\libs\cpu\libplatform.a(lock.o)
 .sbss          0x0000000000013808        0x8 ..\..\..\libs\cpu\libplatform.a(voltage_trim.o)
                0x0000000000013808                sys_trim
 .sbss          0x0000000000013810        0x1 ..\..\..\libs\cpu\libplatform.a(freq_det.o)
                0x0000000000013810                freq_det_kick
 *fill*         0x0000000000013811        0x3 
 .sbss          0x0000000000013814       0x11 ..\..\..\libs\ble\libbtstack.a(sm.o)
 *fill*         0x0000000000013825        0x3 
 .sbss          0x0000000000013828        0x4 ..\..\..\libs\ble\libbtstack.a(gatt_client.o)
 .sbss          0x000000000001382c        0x4 ..\..\..\libs\ble\libbtstack.a(att_server.o)
 .sbss          0x0000000000013830        0xc ..\..\..\libs\ble\libbtstack.a(att_dispatch.o)
 .sbss          0x000000000001383c       0x10 ..\..\..\libs\ble\libbtstack.a(att_db.o)
 .sbss          0x000000000001384c        0x2 ..\..\..\libs\ble\libbtstack.a(btstack_api.o)
                0x000000000001384c                btstack_cb
 .sbss          0x000000000001384e        0x1 ..\..\..\libs\ble\libbtstack.a(ble_api.o)
 .sbss          0x000000000001384f        0x1 ..\..\..\libs\ble\libbtstack.a(rf.o)
 .sbss          0x0000000000013850        0x1 ..\..\..\libs\ble\libbtstack.a(bb.o)
 *fill*         0x0000000000013851        0x1 
 .sbss          0x0000000000013852        0x2 ..\..\..\libs\ble\libbtstack.a(l2cap.o)
 .sbss          0x0000000000013854        0x4 ..\..\..\libs\ble\libbtstack.a(btstack_memory.o)
 .sbss          0x0000000000013858       0x10 ..\..\..\libs\ble\libbtstack.a(btstack_main.o)
 .sbss          0x0000000000013868        0x8 ..\..\..\libs\ble\libbtstack.a(bb_sche.o)
                0x0000000000013868                ss_params
 .sbss          0x0000000000013870        0x2 ..\..\..\libs\ble\libbtstack.a(hct_proc.o)
 *fill*         0x0000000000013872        0x2 
 .sbss          0x0000000000013874        0x1 ..\..\..\libs\ble\libbtstack.a(mgr_proc.o)
 *fill*         0x0000000000013875        0x3 
 .sbss          0x0000000000013878        0x5 ..\..\..\libs\ble\libbtstack.a(ll_tbox_prod_test.o)
 *fill*         0x000000000001387d        0x3 
 .sbss          0x0000000000013880        0x2 ..\..\..\libs\ble\libbtstack.a(ll_proc.o)
 *(.buf*)
 *fill*         0x0000000000013882        0x2 
 .buf.func_cb   0x0000000000013884        0x2 Output\obj\project\solution\ble_hid_composite\app\func.o
                0x0000000000013884                func_cb
 *fill*         0x0000000000013886        0x2 
 .buf.bsp.sys_cb
                0x0000000000013888       0x14 Output\obj\project\solution\ble_hid_composite\bsp\bsp_sys.o
                0x0000000000013888                sys_cb
 .buf.key.cb    0x000000000001389c       0x10 ..\..\..\libs\cpu\libplatform.a(key.o)
 .buf.key.sta   0x00000000000138ac        0x6 ..\..\..\libs\cpu\libplatform.a(key.o)
 *(.ble_cache*)
 *fill*         0x00000000000138b2        0x2 
 .ble_cache.att
                0x00000000000138b4      0x10c Output\obj\project\solution\ble_hid_composite\ble\ble_init.o
                0x00000000000138b4                ble_tx_pool
 .ble_cache.att
                0x00000000000139c0       0x10 ..\..\..\libs\ble\libbtstack.a(txpkt.o)
                0x00000000000139c0                txpkt_cb
 .ble_cache.sm  0x00000000000139d0        0x8 ..\..\..\libs\ble\libbtstack.a(sm.o)
 .ble_cache.sm.addr
                0x00000000000139d8        0x6 ..\..\..\libs\ble\libbtstack.a(sm.o)
 *fill*         0x00000000000139de        0x2 
 .ble_cache.sm.aes
                0x00000000000139e0        0x8 ..\..\..\libs\ble\libbtstack.a(sm.o)
 .ble_cache.sm.auth
                0x00000000000139e8        0x1 ..\..\..\libs\ble\libbtstack.a(sm.o)
 *fill*         0x00000000000139e9        0x3 
 .ble_cache.sm.cmac
                0x00000000000139ec       0x45 ..\..\..\libs\ble\libbtstack.a(sm.o)
 *fill*         0x0000000000013a31        0x3 
 .ble_cache.sm.dhk
                0x0000000000013a34       0x10 ..\..\..\libs\ble\libbtstack.a(sm.o)
 .ble_cache.sm.io
                0x0000000000013a44        0x1 ..\..\..\libs\ble\libbtstack.a(sm.o)
 *fill*         0x0000000000013a45        0x3 
 .ble_cache.sm.irk
                0x0000000000013a48       0x10 ..\..\..\libs\ble\libbtstack.a(sm.o)
 .ble_cache.sm.rand
                0x0000000000013a58        0x4 ..\..\..\libs\ble\libbtstack.a(sm.o)
 .ble_cache.sm.req
                0x0000000000013a5c        0x1 ..\..\..\libs\ble\libbtstack.a(sm.o)
 *fill*         0x0000000000013a5d        0x3 
 .ble_cache.sm.resolution
                0x0000000000013a60       0x18 ..\..\..\libs\ble\libbtstack.a(sm.o)
 .ble_cache.sm.setup
                0x0000000000013a78      0x100 ..\..\..\libs\ble\libbtstack.a(sm.o)
 .ble_cache.sm.sta
                0x0000000000013b78        0x8 ..\..\..\libs\ble\libbtstack.a(sm.o)
 *(.ble_buf*)
 .ble_buf.var   0x0000000000013b80        0x4 Output\obj\project\solution\ble_hid_composite\ble\ble_init.o
                0x0000000000013b80                ble_cb
 .ble_buf.att   0x0000000000013b84       0x28 ..\..\..\libs\ble\libbtstack.a(gatt_client.o)
 .ble_buf.att   0x0000000000013bac       0x10 ..\..\..\libs\ble\libbtstack.a(att_server.o)
 *(.fot_data.*)
 .fot_data.buf  0x0000000000013bbc      0x200 Output\obj\project\solution\ble_hid_composite\ble\ble_fota_service.o
 .fot_data.com.pack
                0x0000000000013dbc       0x44 ..\..\..\libs\cpu\libplatform.a(fot_pack.o)
 *(.tbox.*)
 *(.notch_iir*)
 *(.prod_test*)
 *(.fcc.huart_buf)
 *(.hci.h3*)
                0x0000000000013e00                . = ALIGN (0x100)
                0x0000000000013e00                __bss_end = .
                0x0000000000003200                __bss_size = (__bss_end - __bss_start)

.comm           0x0000000000013e00     0x1a00 load address 0x0000000010000200
                0x0000000000013e00                __comm_start = .
 *(.vector)
 .vector        0x0000000000013e00       0xc8 ..\..\..\libs\cpu\libplatform.a(reset.o)
                0x0000000000013ea0                _exception_isr
                0x0000000000013ea2                nop_isr
 *(.com_text*)
 .com_text.saradc.done
                0x0000000000013ec8       0x32 Output\obj\driver\driver_saradc.o
                0x0000000000013ec8                saradc_get_result
 .com_text.gpio.isr
                0x0000000000013efa       0x34 Output\obj\project\solution\ble_hid_composite\app\func_lowpwr.o
                0x0000000000013efa                gpio_isr_callback
 .com_text.sleep_tick
                0x0000000000013f2e       0x14 Output\obj\project\solution\ble_hid_composite\app\func_lowpwr.o
                0x0000000000013f2e                lowpwr_tout_ticks
 .com_text.timer
                0x0000000000013f42        0x2 Output\obj\project\solution\ble_hid_composite\ble\ble_alarm.o
 .com_text.fot.update
                0x0000000000013f44        0xc Output\obj\project\solution\ble_hid_composite\ble\ble_fota_service.o
                0x0000000000013f44                ble_fota_is_start
 .com_text.key.scan
                0x0000000000013f50       0x2e Output\obj\project\solution\ble_hid_composite\bsp\bsp_io_key.o
                0x0000000000013f50                bsp_get_io_key_id
 .com_text.key.scan
                0x0000000000013f7e       0x42 Output\obj\project\solution\ble_hid_composite\bsp\bsp_key.o
                0x0000000000013f7e                bsp_key_scan
 .com_text.saradc_scan
                0x0000000000013fc0       0x22 Output\obj\project\solution\ble_hid_composite\bsp\bsp_saradc.o
                0x0000000000013fc0                bsp_saradc_scan
 .com_text.timer
                0x0000000000013fe2       0x58 Output\obj\project\solution\ble_hid_composite\bsp\bsp_sys.o
                0x0000000000013fe2                usr_tmr5ms_callback
 .com_text.ble.phy
                0x000000000001403a        0x4 Output\obj\project\solution\ble_hid_composite\strong_ble.o
                0x000000000001403a                ble_phy_2M_enable
 .com_text.spiflash
                0x000000000001403e       0x4c Output\obj\project\solution\ble_hid_composite\strong_symbol.o
                0x000000000001403e                os_spiflash_addr_check
 .com_text.spiflash
                0x000000000001408a       0x5e ..\..\..\libs\cpu\libplatform.a(os_flash.o)
                0x000000000001408e                os_spiflash_program_do
                0x00000000000140a0                os_spiflash_program
                0x00000000000140c2                os_spiflash_erase_do
                0x00000000000140d4                os_spiflash_erase
 .com_text.delay
                0x00000000000140e8       0x54 ..\..\..\libs\cpu\libplatform.a(main.o)
                0x00000000000140e8                delay_5ms
                0x0000000000014102                delay_ms
                0x000000000001411a                delay_us
                0x0000000000014132                delay
 .com_text.irq  0x000000000001413c       0x72 ..\..\..\libs\cpu\libplatform.a(interrupt.o)
                0x000000000001413c                tick0_isr
                0x0000000000014194                tick_get
                0x000000000001419c                tick_check_expire
 .com_text.trim.vddio_get
                0x00000000000141ae        0x8 ..\..\..\libs\cpu\libplatform.a(pmu.o)
                0x00000000000141ae                pmu_get_vddio
 .com_text.trim.vddio_set
                0x00000000000141b6       0x2a ..\..\..\libs\cpu\libplatform.a(pmu.o)
                0x00000000000141b6                pmu_set_vddio
 .com_text.trim.core_get
                0x00000000000141e0        0x8 ..\..\..\libs\cpu\libplatform.a(pmu.o)
                0x00000000000141e0                pmu_get_vddcore
 .com_text.trim.lvd_set
                0x00000000000141e8       0x3e ..\..\..\libs\cpu\libplatform.a(pmu.o)
                0x00000000000141e8                pmu_set_lvd
                0x0000000000014214                pmu_set_vbg
 .com_text.exception
                0x0000000000014226        0xa ..\..\..\libs\cpu\libplatform.a(debug.o)
                0x0000000000014226                exception_isr
 .com_text.exception.hook
                0x0000000000014230        0x4 ..\..\..\libs\cpu\libplatform.a(debug.o)
                0x0000000000014230                sys_error_hook
 .com_text.key_return
                0x0000000000014234       0x30 ..\..\..\libs\cpu\libplatform.a(key.o)
                0x0000000000014234                check_key_return
 .com_text.bsp.key
                0x0000000000014264       0x16 ..\..\..\libs\cpu\libplatform.a(key.o)
                0x0000000000014264                key_multi_press_process
                0x000000000001426e                key_status_process
 .com_text.sys  0x000000000001427a        0x2 ..\..\..\libs\cpu\libplatform.a(s_sys.o)
                0x000000000001427a                dummy_func
 .com_text.timer
                0x000000000001427c        0x4 ..\..\..\libs\cpu\libplatform.a(weak_symbol.o)
                0x000000000001427e                usr_tmr1ms_isr_callback
 .com_text.stack.api
                0x0000000000014280       0x24 ..\..\..\libs\cpu\libplatform.a(bt.o)
                0x0000000000014280                ble_send_msg_do
 .com_text.stack.thread
                0x00000000000142a4       0x32 ..\..\..\libs\cpu\libplatform.a(bt.o)
                0x00000000000142a4                thread_btstack_pend
                0x00000000000142c6                thread_btstack_post
 .com_text.stack.run_loop
                0x00000000000142d6       0x38 ..\..\..\libs\cpu\libplatform.a(bt.o)
                0x00000000000142d6                thread_btstack_entry
 .com_text.bb.isr
                0x000000000001430e       0x7c ..\..\..\libs\ble\libbtstack.a(bb_int.o)
                0x0000000000014340                bb_isr
                0x000000000001437e                bb_hal_isr
 .com_text.bb.isr.timer
                0x000000000001438a       0x50 ..\..\..\libs\ble\libbtstack.a(bb_alarm.o)
 .com_text.bb.timer.check
                0x00000000000143da       0x1e ..\..\..\libs\ble\libbtstack.a(bb_alarm.o)
                0x00000000000143da                bb_timer_queue_check
 .com_text.bb.timer.push
                0x00000000000143f8       0x64 ..\..\..\libs\ble\libbtstack.a(bb_alarm.o)
                0x00000000000143f8                bb_timer_queue_release
                0x0000000000014426                bb_timer_queue_free
 .com_text.att.event_handler
                0x000000000001445c       0x26 ..\..\..\libs\ble\libbtstack.a(att_server.o)
 .com_text.ret.bb.sleep
                0x0000000000014482       0x18 ..\..\..\libs\ble\libbtstack.a(btstack_api.o)
                0x0000000000014482                ble_is_sleep
 .com_text.stack.api
                0x000000000001449a       0x62 ..\..\..\libs\ble\libbtstack.a(btstack_api.o)
                0x000000000001449a                ble_get_status
                0x00000000000144a6                btstack_message
 .com_text.txpkt.list.push_back
                0x00000000000144fc        0xa ..\..\..\libs\ble\libbtstack.a(txpkt.o)
                0x00000000000144fc                txpkt_list_push_back
 .com_text.bb.isr.rssi
                0x0000000000014506        0xa ..\..\..\libs\ble\libbtstack.a(rf.o)
                0x0000000000014506                rf_rssi_calc_dbm
 .com_text.bb.rf
                0x0000000000014510       0x26 ..\..\..\libs\ble\libbtstack.a(rf.o)
                0x0000000000014510                rf_hal_init
 .com_text.bb.sleep
                0x0000000000014536        0x4 ..\..\..\libs\ble\libbtstack.a(hct_tl.o)
                0x0000000000014536                hct_queue_is_empty
 .com_text.ble.isr.con.end
                0x000000000001453a       0x9a ..\..\..\libs\ble\libbtstack.a(ble_con.o)
                0x000000000001453a                ble_con_rx_end
 .com_text.ble.isr.con.rx_desc
                0x00000000000145d4        0x2 ..\..\..\libs\ble\libbtstack.a(ble_con.o)
                0x00000000000145d4                ble_con_rx_desc
 .com_text.bb.buf
                0x00000000000145d6       0xbc ..\..\..\libs\ble\libbtstack.a(ble_buf.o)
                0x00000000000145d6                ble_buf_acl_tx_alloc
                0x0000000000014620                ble_buf_acl_tx_free_do
                0x0000000000014632                ble_buf_acl_tx_free
 .com_text.bb.patch
                0x0000000000014692       0x24 ..\..\..\libs\ble\libbtstack.a(ble_buf.o)
                0x0000000000014692                bb_patch1
                0x0000000000014694                bb_patch3
 .com_text.bb.isr
                0x00000000000146b6       0x34 ..\..\..\libs\ble\libbtstack.a(ble.o)
                0x00000000000146b6                ble_isr
 .com_text.bb.run_loop
                0x00000000000146ea       0x30 ..\..\..\libs\ble\libbtstack.a(bb.o)
                0x00000000000146ea                bb_run_loop
 .com_text.dummy
                0x000000000001471a        0x6 ..\..\..\libs\ble\libbtstack.a(platform.o)
                0x000000000001471a                dummy_void
                0x000000000001471c                dummy_false
 .com_text.stack.hci.conn
                0x0000000000014720        0x8 ..\..\..\libs\ble\libbtstack.a(hci.o)
                0x0000000000014720                hci_get_connections
 .com_text.stack.linked_list
                0x0000000000014728       0x10 ..\..\..\libs\ble\libbtstack.a(hci.o)
                0x0000000000014728                hci_connections_get_iterator
 .com_text.stack.hci
                0x0000000000014738       0x3a ..\..\..\libs\ble\libbtstack.a(hci.o)
                0x0000000000014738                hci_connection_for_handle
                0x000000000001475a                hci_att_connection_for_handle
                0x000000000001476a                hci_get_outgoing_packet_buffer
 .com_text.stack.run_loop
                0x0000000000014772       0x74 ..\..\..\libs\ble\libbtstack.a(btstack_run_loop.o)
                0x0000000000014772                btstack_cmp_abs_tick
                0x0000000000014778                btstack_run_loop_execute_once
 .com_text.ret.stack.thread
                0x00000000000147e6        0xa ..\..\..\libs\ble\libbtstack.a(btstack_run_loop.o)
                0x00000000000147e6                btstack_run_loop_embedded_trigger
 .com_text.stack.ticks
                0x00000000000147f0       0x1e ..\..\..\libs\ble\libbtstack.a(btstack_run_loop.o)
 .com_text.bb.nanos.trigger
                0x000000000001480e        0x2 ..\..\..\libs\ble\libbtstack.a(btstack_run_loop.o)
                0x000000000001480e                thread_nanos_task_trigger
 .com_text.hci  0x0000000000014810        0x4 ..\..\..\libs\ble\libbtstack.a(hci_transport_h3_controller.o)
                0x0000000000014810                hci_is_sleep
 .com_text.stack.handler
                0x0000000000014814       0x1e ..\..\..\libs\ble\libbtstack.a(btstack_main.o)
 .com_text.stack.ticks
                0x0000000000014832        0xa ..\..\..\libs\ble\libbtstack.a(btstack_hal.o)
                0x0000000000014834                sys_tick_handler
 .com_text.isr  0x000000000001483c       0x24 ..\..\..\libs\ble\libbtstack.a(btstack_hal.o)
                0x000000000001483c                bt_timer_isr
 .com_text.md.nanos
                0x0000000000014860       0x14 ..\..\..\libs\ble\libbtstack.a(nanos.o)
                0x0000000000014860                nanos_event_set
 .com_text.nanos.malloc
                0x0000000000014874        0xc ..\..\..\libs\ble\libbtstack.a(nanos.o)
                0x0000000000014874                nanos_sys_malloc
 .com_text.nanos.free
                0x0000000000014880        0xa ..\..\..\libs\ble\libbtstack.a(nanos.o)
                0x0000000000014880                nanos_sys_free
 .com_text.bb.frag
                0x000000000001488a       0x18 ..\..\..\libs\ble\libbtstack.a(bb_sche.o)
 .com_text.bb.prog
                0x00000000000148a2       0x30 ..\..\..\libs\ble\libbtstack.a(bb_sche.o)
 .com_text.ble.isr.con.end
                0x00000000000148d2       0x18 ..\..\..\libs\ble\libbtstack.a(patch.o)
                0x00000000000148d2                bb_patch2_do
 .com_text.bb.isr
                0x00000000000148ea        0xe ..\..\..\libs\ble\libbtstack.a(bb_clk.o)
                0x00000000000148ea                bb_lpcycles_2_hus_hook
 .com_text.ble.isr
                0x00000000000148f8       0x92 ..\..\..\libs\ble\libbtstack.a(ble_hook.o)
                0x00000000000148f8                ble_isr_hook
 .com_text.bb.buf
                0x000000000001498a       0x24 ..\..\..\libs\ble\libbtstack.a(hct_proc.o)
                0x000000000001498a                hct_block_is_reserved
 .com_text.ble.isr.con
                0x00000000000149ae      0x136 ..\..\..\libs\ble\libbtstack.a(ll_tbox_freq_cal.o)
                0x00000000000149ae                ll_tbox_freq_cal_time_record
                0x0000000000014a32                ll_tbox_freq_cal
 .com_text.bb.patch
                0x0000000000014ae4       0x1a ..\..\..\libs\ble\libbtstack.a(patch_asm.o)
                0x0000000000014ae4                bb_patch2
 .com_text.bb.patch.trc
                0x0000000000014afe       0x1e ..\..\..\libs\ble\libbtstack.a(patch_asm.o)
                0x0000000000014afe                ll_cntl_tx_check_fix_cb
 .com_text.bb.dbg.ble
                0x0000000000014b1c        0x4 ..\..\..\libs\ble\libbtstack.a(platform.o)
                0x0000000000014b1c                bb_ll_tx_cb
                0x0000000000014b1e                bb_ll_rx_cb
 *(.com_rodata*)
 *fill*         0x0000000000014b20        0x0 
 .com_rodata.key
                0x0000000000014b20       0x10 Output\obj\project\solution\ble_hid_composite\bsp\bsp_key.o
                0x0000000000014b20                key_param
                0x0000000000014b24                allow_multiple_key_table
 .com_rodata.multi.key
                0x0000000000014b30        0x8 ..\..\..\libs\cpu\libplatform.a(key.o)
                0x0000000000014b30                key_multi_tbl
 .com_rodata.bb.err
                0x0000000000014b38        0xd ..\..\..\libs\ble\libbtstack.a(bb_int.o)
                0x0000000000014b38                str_bb_err
 *fill*         0x0000000000014b45        0x3 
 .com_rodata.bb.tbl
                0x0000000000014b48       0x18 ..\..\..\libs\ble\libbtstack.a(ble_buf.o)
 .com_rodata.bb.err
                0x0000000000014b60        0xf ..\..\..\libs\ble\libbtstack.a(ble.o)
                0x0000000000014b60                str_ble_err
 *fill*         0x0000000000014b6f        0x1 
 .com_rodata.bb.tbl
                0x0000000000014b70       0x10 ..\..\..\libs\ble\libbtstack.a(bb_utils.o)
                0x0000000000014b70                bb_sca2ppm
 .com_rodata.bb.tbl.bits
                0x0000000000014b80       0x10 ..\..\..\libs\ble\libbtstack.a(bb_utils.o)
                0x0000000000014b80                one_bits
 .com_rodata.bb.tbl.i2m
                0x0000000000014b90        0x4 ..\..\..\libs\ble\libbtstack.a(bb_utils.o)
                0x0000000000014b90                bb_phy_value_to_mask
 .com_rodata.bb.tbl.phy.i2r
                0x0000000000014b94        0x4 ..\..\..\libs\ble\libbtstack.a(bb_utils.o)
                0x0000000000014b94                bb_phy_to_rate
 .com_rodata.bb.tbl.phy.m2i
                0x0000000000014b98        0x5 ..\..\..\libs\ble\libbtstack.a(bb_utils.o)
                0x0000000000014b98                bb_phy_mask_to_value
 *fill*         0x0000000000014b9d        0x3 
 .com_rodata.bb.tbl.phy.r2i
                0x0000000000014ba0        0x5 ..\..\..\libs\ble\libbtstack.a(bb_utils.o)
                0x0000000000014ba0                bb_rate_to_phy
 *fill*         0x0000000000014ba5        0x3 
 .com_rodata.bb.tbl
                0x0000000000014ba8       0x16 ..\..\..\libs\ble\libbtstack.a(bb.o)
                0x0000000000014ba8                bb_priority
 *fill*         0x0000000000014bbe        0x2 
 .com_rodata.bb.tbl
                0x0000000000014bc0        0xc ..\..\..\libs\ble\libbtstack.a(hct_proc.o)
 .com_rodata.bb.tbl
                0x0000000000014bcc        0xc ..\..\..\libs\ble\libbtstack.a(vs_proc.o)
                0x0000000000014bcc                vs_msg_env
 .com_rodata.bb.tbl
                0x0000000000014bd8        0xc ..\..\..\libs\ble\libbtstack.a(mgr_proc.o)
                0x0000000000014bd8                mgr_msg_env
 .com_rodata.bb.tbl
                0x0000000000014be4        0xc ..\..\..\libs\ble\libbtstack.a(ll_proc.o)
                0x0000000000014be4                ll_msg_env
 *debug.o(.rodata*)
 *(.com_periph.*)
 .com_periph.gpio.read_bit
                0x0000000000014bf0        0xa Output\obj\driver\driver_gpio.o
                0x0000000000014bf0                gpio_read_bit
 .com_periph.gpio.pending_clr
                0x0000000000014bfa        0xc Output\obj\driver\driver_gpio.o
                0x0000000000014bfa                gpio_edge_pending_clear
 .com_periph.saradc.kick
                0x0000000000014c06       0x2c Output\obj\driver\driver_saradc.o
                0x0000000000014c06                saradc_kick_start
 .com_periph.saradc.get
                0x0000000000014c32       0x3a Output\obj\driver\driver_saradc.o
                0x0000000000014c32                saradc_get_flag
 .com_periph.saradc.clear
                0x0000000000014c6c       0x2e Output\obj\driver\driver_saradc.o
                0x0000000000014c6c                saradc_clear_flag
 .com_periph.saradc.get_data
                0x0000000000014c9a       0x90 Output\obj\driver\driver_saradc.o
                0x0000000000014c9a                saradc_get_channel_value
 *(.com_sleep*)
 .com_sleep.sys
                0x0000000000014d2a       0x8e Output\obj\driver\driver_lowpwr.o
                0x0000000000014d2a                lp_sleep_do
 .com_sleep.lp_proc
                0x0000000000014db8       0xc6 Output\obj\driver\driver_lowpwr.o
                0x0000000000014db8                lp_sleep_proc
 .com_sleep.lp_wakeup
                0x0000000000014e7e      0x130 Output\obj\driver\driver_lowpwr.o
                0x0000000000014e7e                lp_wakeup_proc
 .com_sleep.proc_do
                0x0000000000014fae       0x8e Output\obj\driver\driver_lowpwr.o
                0x0000000000014fae                lowpwr_sleep_proc_do
 .com_sleep.sleep
                0x000000000001503c        0x2 Output\obj\driver\driver_lowpwr.o
                0x000000000001503c                lowpwr_sleep_proc
 .com_sleep.lv2
                0x000000000001503e       0x80 Output\obj\project\solution\ble_hid_composite\app\func_lowpwr.o
                0x000000000001503e                lowpwr_sleep_sfr_user_save
                0x000000000001507a                lowpwr_sleep_sfr_user_resume
 .com_sleep.sleep
                0x00000000000150be       0x16 Output\obj\project\solution\ble_hid_composite\app\func_lowpwr.o
                0x00000000000150be                sys_sleep_cb
 .com_sleep.lowpwr.sleep
                0x00000000000150d4       0x38 Output\obj\project\solution\ble_hid_composite\app\func_lowpwr.o
                0x00000000000150d4                sfunc_sleep_do
 .com_sleep.ble.sleep
                0x000000000001510c       0x20 Output\obj\project\solution\ble_hid_composite\ble\ble_proc.o
                0x000000000001510c                ble_get_service_pending
                0x0000000000015114                ble_proc_pending
 .com_sleep.rf.txpwr
                0x000000000001512c        0x8 Output\obj\project\solution\ble_hid_composite\strong_ble.o
                0x000000000001512c                bt_rf_get_tx_pwr
 .com_sleep.lp.sleep
                0x0000000000015134       0x62 ..\..\..\libs\cpu\libplatform.a(sleep.o)
                0x0000000000015134                lowpwr_sleep_sfr_save
                0x0000000000015138                lowpwr_sleep_sfr_resume
 .com_sleep.sleep.rc
                0x0000000000015196       0x42 ..\..\..\libs\cpu\libplatform.a(freq_det.o)
                0x0000000000015196                freq_det_kick_or_get
 .com_sleep.bb  0x00000000000151d8      0x182 ..\..\..\libs\ble\libbtstack.a(bb_int.o)
                0x00000000000151d8                bb_sleep
                0x0000000000015310                bb_is_sleep
 .com_sleep.sleep
                0x000000000001535a        0x2 ..\..\..\libs\ble\libbtstack.a(btstack_api.o)
                0x000000000001535a                ble_sleep_proc
 .com_sleep.bb  0x000000000001535c       0x94 ..\..\..\libs\ble\libbtstack.a(rf.o)
                0x000000000001535c                rf_sleep
                0x000000000001538e                rf_wakeup
 .com_sleep.bb  0x00000000000153f0       0x7c ..\..\..\libs\ble\libbtstack.a(bb_sleep.o)
                0x00000000000153f0                bb_sleep_suspend
                0x0000000000015400                bb_sleep_resume
 .com_sleep.bb  0x000000000001546c        0x8 ..\..\..\libs\ble\libbtstack.a(bb_sche.o)
                0x000000000001546c                bb_sche_resume
 .com_sleep.bb.putc
                0x0000000000015474        0x2 ..\..\..\libs\ble\libbtstack.a(bb_dbg.o)
                0x0000000000015474                bb_dbg_init
 .com_sleep.rfphy
                0x0000000000015476       0xf2 ..\..\..\libs\ble\libbtstack.a(rf_mate.o)
                0x00000000000154f2                rfphy_txrx_init
 .com_sleep.rfphy.init
                0x0000000000015568       0x6e ..\..\..\libs\ble\libbtstack.a(rf_mate.o)
                0x0000000000015568                rfphy_init
 .com_sleep.rf  0x00000000000155d6       0x32 ..\..\..\libs\ble\libbtstack.a(rf_mate.o)
                0x00000000000155d6                modem_init
 *(.data*)
 *fill*         0x0000000000015608        0x0 
 .data          0x0000000000015608       0x54 Output\obj\project\solution\ble_hid_composite\app\app_hid_event.o
                0x0000000000015608                key_and_hid_message_map
 .data          0x000000000001565c       0x10 Output\obj\project\solution\ble_hid_composite\ble\ble_client.o
                0x000000000001565c                attribute_uuid128
 .data          0x000000000001566c       0x30 Output\obj\project\solution\ble_hid_composite\bsp\bsp_io_key.o
                0x000000000001566c                key_io_table_column
 .data          0x000000000001569c       0x28 ..\..\..\libs\ble\libbtstack.a(rf_mate.o)
                0x00000000000156a8                rf_init_cb
 *(.sdata*)
 .sdata         0x00000000000156c4        0x8 Output\obj\project\solution\ble_hid_composite\app\func_bt.o
 .sdata         0x00000000000156cc        0x1 Output\obj\project\solution\ble_hid_composite\ble\ble_proc.o
                0x00000000000156cc                peer_device_type
 *fill*         0x00000000000156cd        0x3 
 .sdata         0x00000000000156d0        0x6 Output\obj\project\solution\ble_hid_composite\bsp\bsp_saradc_vbat.o
 .sdata         0x00000000000156d6        0x1 Output\obj\project\solution\ble_hid_composite\strong_symbol.o
                0x00000000000156d6                cfg_spiflash_speed_up_en
 *fill*         0x00000000000156d7        0x1 
 .sdata         0x00000000000156d8        0x4 ..\..\..\libs\cpu\libplatform.a(debug.o)
                0x00000000000156d8                cpu_gprs
 .sdata         0x00000000000156dc        0x2 ..\..\..\libs\ble\libbtstack.a(sm.o)
 *fill*         0x00000000000156de        0x2 
 .sdata         0x00000000000156e0        0x4 ..\..\..\libs\ble\libbtstack.a(extern.o)
                0x00000000000156e0                sleep_max_duration
 .sdata         0x00000000000156e4        0xc ..\..\..\libs\ble\libbtstack.a(btstack_hal.o)
 .sdata         0x00000000000156f0        0x1 ..\..\..\libs\ble\libbtstack.a(rf_mate.o)
 *(.notch_iir_text*)
                0x0000000000015800                . = ALIGN (0x200)
 *fill*         0x00000000000156f1      0x10f 
                0x0000000000015800                __comm_end = .
                0x0000000000001a00                __comm_size = (__comm_end - __comm_start)

.pdn_comm       0x0000000000010c00      0x200 load address 0x0000000010001c00
 *(.com_pwroff*)
 .com_pwroff.mode2
                0x0000000000010c00      0x188 Output\obj\driver\driver_lowpwr.o
                0x0000000000010c00                pwroff_mode2_final
                0x0000000000010c9a                lowpwr_pwroff_mode2_do
                0x0000000000010e00                . = ALIGN (0x200)
 *fill*         0x0000000000010d88       0x78 

.flash          0x0000000010001e00    0x18000
                0x0000000010001e00                __code_start_app_proc = .
 *(.text.app.proc.*)
 .text.app.proc.func
                0x0000000010001e00       0x12 Output\obj\project\solution\ble_hid_composite\app\func.o
                0x0000000010001e00                func_process
 .text.app.proc.msg
                0x0000000010001e12        0x8 Output\obj\project\solution\ble_hid_composite\app\func_bt.o
                0x0000000010001e12                func_bt_message
 .text.app.proc.bt
                0x0000000010001e1a       0x18 Output\obj\project\solution\ble_hid_composite\app\func_bt.o
                0x0000000010001e1a                func_bt_sub_process
                0x0000000010001e1c                func_bt_process
 .text.app.proc.sleep
                0x0000000010001e32      0x142 Output\obj\project\solution\ble_hid_composite\app\func_lowpwr.o
                0x0000000010001e32                sleep_process
 .text.app.proc.fot
                0x0000000010001f74       0x3a Output\obj\project\solution\ble_hid_composite\ble\ble_fota_service.o
                0x0000000010001f74                ble_fota_process
 .text.app.proc.ble
                0x0000000010001fae       0x1c Output\obj\project\solution\ble_hid_composite\ble\ble_proc.o
                0x0000000010001fae                ble_app_proc
 .text.app.proc.vbat
                0x0000000010001fca       0xd8 Output\obj\project\solution\ble_hid_composite\bsp\bsp_saradc_vbat.o
                0x0000000010001fca                bsp_vbat_lowpwr_detect
                0x0000000010002014                bsp_vbat_process_do
                0x0000000010002078                bsp_vbat_process
 .text.app.proc.test
                0x00000000100020a2        0x2 Output\obj\project\solution\ble_hid_composite\prod_test\prod_test.o
                0x00000000100020a2                prod_test_process
                0x0000000010002200                . = ALIGN (0x200)
 *fill*         0x00000000100020a4      0x15c 
                0x0000000010002200                __code_end_app_proc = .
                0x0000000010002200                __code_start_stack_send = .
 *(.text.stack.send.*)
 .text.stack.send.txpkt
                0x0000000010002200      0x1de ..\..\..\libs\ble\libbtstack.a(txpkt.o)
                0x0000000010002200                txpkt_send
                0x00000000100022c2                txpkt_event_send
                0x00000000100022f6                txpkt_server_send_tick
                0x0000000010002304                txpkt_client_send_tick
 .text.stack.send.ntf_do
                0x00000000100023de       0x4e ..\..\..\libs\ble\libbtstack.a(gatt_server.o)
 .text.stack.send.ntf
                0x000000001000242c       0x16 ..\..\..\libs\ble\libbtstack.a(gatt_server.o)
                0x000000001000242c                ble_send_notify_packet
                0x000000001000243e                ble_notify_for_handle
 .text.stack.send.ntf_kick
                0x0000000010002442        0x2 ..\..\..\libs\ble\libbtstack.a(gatt_server.o)
                0x0000000010002442                ble_notify_for_handle_kick
 .text.stack.send.server
                0x0000000010002444       0x8c ..\..\..\libs\ble\libbtstack.a(gatt_server.o)
                0x0000000010002444                att_event_server_txpkt_send
                0x00000000100024b8                btstack_ble_server_send_req
 .text.stack.send.client
                0x00000000100024d0       0x6e ..\..\..\libs\ble\libbtstack.a(gatt_client.o)
                0x00000000100024d0                att_event_client_txpkt_send
 .text.stack.send.server
                0x000000001000253e       0x1e ..\..\..\libs\ble\libbtstack.a(att_server.o)
                0x000000001000253e                att_server_request_can_send_now_event
 .text.stack.send.ntf
                0x000000001000255c       0x52 ..\..\..\libs\ble\libbtstack.a(att_server.o)
                0x000000001000255c                att_server_notify
 .text.stack.send.dispatch_server
                0x00000000100025ae        0xc ..\..\..\libs\ble\libbtstack.a(att_dispatch.o)
                0x00000000100025ae                att_dispatch_server_request_can_send_now_event
 .text.stack.send.ntf
                0x00000000100025ba       0x3e ..\..\..\libs\ble\libbtstack.a(att_db.o)
                0x00000000100025ba                att_prepare_handle_value_notification
 .text.stack.send.kick
                0x00000000100025f8       0x1a ..\..\..\libs\ble\libbtstack.a(ble_api.o)
                0x00000000100025f8                ble_send_kick
 .text.stack.send.l2cap
                0x0000000010002612       0x6e ..\..\..\libs\ble\libbtstack.a(l2cap.o)
                0x0000000010002612                l2cap_request_can_send_fix_channel_now_event
                0x0000000010002638                l2cap_send_prepared_connectionless
 .text.stack.send.hci
                0x0000000010002680       0xe6 ..\..\..\libs\ble\libbtstack.a(hci.o)
                0x0000000010002722                hci_send_acl_packet_buffer
 .text.stack.send.acl
                0x0000000010002766       0xe0 ..\..\..\libs\ble\libbtstack.a(ll_proc.o)
                0x0000000010002766                hci_acl_data_func
                0x0000000010002a00                . = ALIGN (0x200)
 *fill*         0x0000000010002846      0x1ba 
                0x0000000010002a00                __code_end_stack_send = .
 *(.text*)
 .text.clk_gate0_cmd
                0x0000000010002a00       0x16 Output\obj\driver\driver_clk.o
                0x0000000010002a00                clk_gate0_cmd
 .text.clk_saradc_clk_set
                0x0000000010002a16       0x18 Output\obj\driver\driver_clk.o
                0x0000000010002a16                clk_saradc_clk_set
 .text.clk_saradc_clk_get
                0x0000000010002a2e       0x3a Output\obj\driver\driver_clk.o
                0x0000000010002a2e                clk_saradc_clk_get
 .text.clk_uart_clk_set
                0x0000000010002a68       0x16 Output\obj\driver\driver_clk.o
                0x0000000010002a68                clk_uart_clk_set
 .text.clk_uart_clk_get
                0x0000000010002a7e       0x32 Output\obj\driver\driver_clk.o
                0x0000000010002a7e                clk_uart_clk_get
 .text.gpio_init
                0x0000000010002ab0      0x122 Output\obj\driver\driver_gpio.o
                0x0000000010002ab0                gpio_init
 .text.gpio_func_mapping_config
                0x0000000010002bd2       0xac Output\obj\driver\driver_gpio.o
                0x0000000010002bd2                gpio_func_mapping_config
 .text.wko_io_config
                0x0000000010002c7e       0x3e Output\obj\driver\driver_gpio.o
                0x0000000010002c7e                wko_io_config
 .text.wk0_edge_capture_config
                0x0000000010002cbc       0x60 Output\obj\driver\driver_gpio.o
                0x0000000010002cbc                wk0_edge_capture_config
 .text.gpio_edge_capture_config
                0x0000000010002d1c       0xd4 Output\obj\driver\driver_gpio.o
                0x0000000010002d1c                gpio_edge_capture_config
 .text.gpio_get_edge_pin
                0x0000000010002df0        0x8 Output\obj\driver\driver_gpio.o
                0x0000000010002df0                gpio_get_edge_pin
 .text.gpio_edge_pic_config
                0x0000000010002df8       0x48 Output\obj\driver\driver_gpio.o
                0x0000000010002df8                gpio_edge_pic_config
 .text.lowpwr_get_wakeup_source
                0x0000000010002e40       0x80 Output\obj\driver\driver_lowpwr.o
                0x0000000010002e40                lowpwr_get_wakeup_source
 .text.lowpwr_wakeup_disable
                0x0000000010002ec0       0x38 Output\obj\driver\driver_lowpwr.o
                0x0000000010002ec0                lowpwr_wakeup_disable
 .text.lowpwr_clr_wakeup_pending
                0x0000000010002ef8       0x1c Output\obj\driver\driver_lowpwr.o
                0x0000000010002ef8                lowpwr_clr_wakeup_pending
 .text.lowpwr_wk0_wakeup_config
                0x0000000010002f14       0x72 Output\obj\driver\driver_lowpwr.o
                0x0000000010002f14                lowpwr_wk0_wakeup_config
 .text.lowpwr_gpio_wakeup_config
                0x0000000010002f86       0x3c Output\obj\driver\driver_lowpwr.o
                0x0000000010002f86                lowpwr_gpio_wakeup_config
 .text.lowpwr_wakeup_config
                0x0000000010002fc2       0xd8 Output\obj\driver\driver_lowpwr.o
                0x0000000010002fc2                lowpwr_wakeup_config
 .text.saradc_init
                0x000000001000309a       0x76 Output\obj\driver\driver_saradc.o
                0x000000001000309a                saradc_init
 .text.saradc_add_channel
                0x0000000010003110      0x128 Output\obj\driver\driver_saradc.o
                0x0000000010003110                saradc_add_channel
 .text.saradc_deinit
                0x0000000010003238       0xca Output\obj\driver\driver_saradc.o
                0x0000000010003238                saradc_deinit
 .text.saradc_cmd
                0x0000000010003302       0x16 Output\obj\driver\driver_saradc.o
                0x0000000010003302                saradc_cmd
 .text.uart_init
                0x0000000010003318       0x46 Output\obj\driver\driver_uart.o
                0x0000000010003318                uart_init
 .text.uart_cmd
                0x000000001000335e       0x10 Output\obj\driver\driver_uart.o
                0x000000001000335e                uart_cmd
 .text.uart_baud_config
                0x000000001000336e       0x36 Output\obj\driver\driver_uart.o
                0x000000001000336e                uart_baud_config
 .text.ble_hid_post_msg_by_key
                0x00000000100033a4       0x34 Output\obj\project\solution\ble_hid_composite\app\app_hid_event.o
                0x00000000100033a4                ble_hid_post_msg_by_key
 .text.ble_hid_send_touch_cmd_android
                0x00000000100033d8       0x44 Output\obj\project\solution\ble_hid_composite\app\app_hid_event.o
                0x00000000100033d8                ble_hid_send_touch_cmd_android
 .text.ble_hid_send_touch_cmd_ios
                0x000000001000341c       0xc6 Output\obj\project\solution\ble_hid_composite\app\app_hid_event.o
                0x000000001000341c                ble_hid_send_touch_cmd_ios
 .text.ble_hid_send_consumer_cmd
                0x00000000100034e2       0x1c Output\obj\project\solution\ble_hid_composite\app\app_hid_event.o
                0x00000000100034e2                ble_hid_send_consumer_cmd
 .text.func.msg.hid
                0x00000000100034fe       0x26 Output\obj\project\solution\ble_hid_composite\app\app_hid_event.o
                0x00000000100034fe                func_message_hid_event
 .text.ble_hid_event_selfie
                0x0000000010003524      0x5d2 Output\obj\project\solution\ble_hid_composite\app\app_hid_selfie.o
                0x0000000010003524                ble_hid_event_selfie
 .text.ble_hid_event_tiktok
                0x0000000010003af6      0xbe6 Output\obj\project\solution\ble_hid_composite\app\app_hid_tiktok.o
                0x0000000010003af6                ble_hid_event_tiktok
 .text.func.msg.key
                0x00000000100046dc        0x4 Output\obj\project\solution\ble_hid_composite\app\func.o
                0x00000000100046dc                func_message_key_event
 .text.func.msg
                0x00000000100046e0       0x3a Output\obj\project\solution\ble_hid_composite\app\func.o
                0x00000000100046e0                func_message
 .text.func     0x000000001000471a       0x70 Output\obj\project\solution\ble_hid_composite\app\func.o
                0x000000001000471a                func_enter
                0x0000000010004738                func_exit
                0x0000000010004742                func_run
 .text.func.msg
                0x000000001000478a        0xe Output\obj\project\solution\ble_hid_composite\app\func_bt.o
                0x000000001000478a                func_bt_message_do
 .text.func.bt  0x0000000010004798       0x6c Output\obj\project\solution\ble_hid_composite\app\func_bt.o
                0x0000000010004798                func_bt_init
                0x000000001000479c                func_bt_enter
                0x00000000100047b2                func_bt_exit
                0x00000000100047cc                func_bt
 .text.func.idle.msg
                0x0000000010004804        0xe Output\obj\project\solution\ble_hid_composite\app\func_idle.o
                0x0000000010004804                func_idle_message
 .text.func.idle
                0x0000000010004812       0x40 Output\obj\project\solution\ble_hid_composite\app\func_idle.o
                0x0000000010004812                func_idle_process
                0x0000000010004816                func_idle
 .text.bsp_gpio_wakeup_config
                0x0000000010004852       0x5e Output\obj\project\solution\ble_hid_composite\app\func_lowpwr.o
                0x0000000010004852                bsp_gpio_wakeup_config
 .text.lowpwr_sleep_wakeup_config
                0x00000000100048b0       0x28 Output\obj\project\solution\ble_hid_composite\app\func_lowpwr.o
                0x00000000100048b0                lowpwr_sleep_wakeup_config
 .text.lowpwr_pwroff_wakeup_config
                0x00000000100048d8       0x22 Output\obj\project\solution\ble_hid_composite\app\func_lowpwr.o
                0x00000000100048d8                lowpwr_pwroff_wakeup_config
 .text.lowpwr.pwroff
                0x00000000100048fa       0x44 Output\obj\project\solution\ble_hid_composite\app\func_lowpwr.o
                0x00000000100048fa                func_pwroff
 .text.ble_get_scan_data
                0x000000001000493e       0x58 Output\obj\project\solution\ble_hid_composite\ble\ble_adv.o
                0x000000001000493e                ble_get_scan_data
 .text.ble_get_adv_data
                0x0000000010004996       0x68 Output\obj\project\solution\ble_hid_composite\ble\ble_adv.o
                0x0000000010004996                ble_get_adv_data
 .text.ble_adv_param_init
                0x00000000100049fe       0x54 Output\obj\project\solution\ble_hid_composite\ble\ble_adv.o
                0x00000000100049fe                ble_adv_param_init
 .text.ble_alarm_enter_sleep_proc
                0x0000000010004a52        0xa Output\obj\project\solution\ble_hid_composite\ble\ble_alarm.o
                0x0000000010004a52                ble_alarm_enter_sleep_proc
 .text.ble_alarm_exit_sleep_proc
                0x0000000010004a5c       0x26 Output\obj\project\solution\ble_hid_composite\ble\ble_alarm.o
                0x0000000010004a5c                ble_alarm_exit_sleep_proc
 .text.ble_alarm_init
                0x0000000010004a82       0x32 Output\obj\project\solution\ble_hid_composite\ble\ble_alarm.o
                0x0000000010004a82                ble_alarm_init
 .text.battery_service_write_callback
                0x0000000010004ab4       0x14 Output\obj\project\solution\ble_hid_composite\ble\ble_battery_service.o
 .text.battery_service_event_callback
                0x0000000010004ac8       0x38 Output\obj\project\solution\ble_hid_composite\ble\ble_battery_service.o
 .text.battery_service_read_callback
                0x0000000010004b00       0x24 Output\obj\project\solution\ble_hid_composite\ble\ble_battery_service.o
 .text.ble_battery_service_init
                0x0000000010004b24       0x54 Output\obj\project\solution\ble_hid_composite\ble\ble_battery_service.o
                0x0000000010004b24                ble_battery_service_init
 .text.ble_battery_service_proc
                0x0000000010004b78       0x8c Output\obj\project\solution\ble_hid_composite\ble\ble_battery_service.o
                0x0000000010004b78                ble_battery_service_proc
 .text.ble_client_event_callback
                0x0000000010004c04      0x13a Output\obj\project\solution\ble_hid_composite\ble\ble_client.o
                0x0000000010004c04                ble_client_event_callback
 .text.ble_client_init
                0x0000000010004d3e       0x3a Output\obj\project\solution\ble_hid_composite\ble\ble_client.o
                0x0000000010004d3e                ble_client_init
 .text.fota_read_callback
                0x0000000010004d78       0x32 Output\obj\project\solution\ble_hid_composite\ble\ble_fota_service.o
 .text.fot.cache
                0x0000000010004daa      0x5f6 Output\obj\project\solution\ble_hid_composite\ble\ble_fota_service.o
                0x0000000010004dfe                fot_recv_proc
                0x00000000100052a0                ble_fota_process_do
                0x000000001000531a                ble_fota_flag_do
 .text.fot.update
                0x00000000100053a0       0x90 Output\obj\project\solution\ble_hid_composite\ble\ble_fota_service.o
                0x00000000100053a0                ble_fota_init
                0x00000000100053cc                ble_fota_pause
                0x00000000100053ea                ble_fota_continue
 .text.ble_fota_exit
                0x0000000010005430       0x32 Output\obj\project\solution\ble_hid_composite\ble\ble_fota_service.o
                0x0000000010005430                ble_fota_exit
 .text.fota_ble_disconnect_callback
                0x0000000010005462       0x14 Output\obj\project\solution\ble_hid_composite\ble\ble_fota_service.o
                0x0000000010005462                fota_ble_disconnect_callback
 .text.fota_event_callback
                0x0000000010005476       0x3a Output\obj\project\solution\ble_hid_composite\ble\ble_fota_service.o
 .text.fota_write_callback
                0x00000000100054b0       0x62 Output\obj\project\solution\ble_hid_composite\ble\ble_fota_service.o
 .text.ble_fota_service_init
                0x0000000010005512       0x52 Output\obj\project\solution\ble_hid_composite\ble\ble_fota_service.o
                0x0000000010005512                ble_fota_service_init
 .text.ble_service_event_callback
                0x0000000010005564       0xb6 Output\obj\project\solution\ble_hid_composite\ble\ble_hid_service.o
 .text.ble_service_read_callback
                0x000000001000561a       0x5a Output\obj\project\solution\ble_hid_composite\ble\ble_hid_service.o
 .text.ble_service_write_callback
                0x0000000010005674       0x9a Output\obj\project\solution\ble_hid_composite\ble\ble_hid_service.o
 .text.ble_hid_report_for_handle_kick
                0x000000001000570e       0xb8 Output\obj\project\solution\ble_hid_composite\ble\ble_hid_service.o
                0x000000001000570e                ble_hid_report_for_handle_kick
 .text.ble_hid_report_for_handle
                0x00000000100057c6        0x6 Output\obj\project\solution\ble_hid_composite\ble\ble_hid_service.o
                0x00000000100057c6                ble_hid_report_for_handle
 .text.ble_hid_service_init
                0x00000000100057cc       0x7c Output\obj\project\solution\ble_hid_composite\ble\ble_hid_service.o
                0x00000000100057cc                ble_hid_service_init
 .text.ble_hid_task_enqueue
                0x0000000010005848       0x48 Output\obj\project\solution\ble_hid_composite\ble\ble_hid_service.o
                0x0000000010005848                ble_hid_task_enqueue
 .text.ble_hid_service_proc
                0x0000000010005890       0x98 Output\obj\project\solution\ble_hid_composite\ble\ble_hid_service.o
                0x0000000010005890                ble_hid_service_proc
 .text.ble_set_work_mode
                0x0000000010005928        0x8 Output\obj\project\solution\ble_hid_composite\ble\ble_init.o
                0x0000000010005928                ble_set_work_mode
 .text.ble_txpkt_init
                0x0000000010005930        0xe Output\obj\project\solution\ble_hid_composite\ble\ble_init.o
                0x0000000010005930                ble_txpkt_init
 .text.ble_sm_param_init
                0x000000001000593e        0xa Output\obj\project\solution\ble_hid_composite\ble\ble_init.o
                0x000000001000593e                ble_sm_param_init
 .text.ble_periph_init
                0x0000000010005948       0x2a Output\obj\project\solution\ble_hid_composite\ble\ble_init.o
                0x0000000010005948                ble_periph_init
 .text.bsp_ble_init
                0x0000000010005972       0x2e Output\obj\project\solution\ble_hid_composite\ble\ble_init.o
                0x0000000010005972                bsp_ble_init
 .text.ble_enter_sleep_proc
                0x00000000100059a0       0x2c Output\obj\project\solution\ble_hid_composite\ble\ble_proc.o
                0x00000000100059a0                ble_enter_sleep_proc
 .text.ble_exit_sleep_proc
                0x00000000100059cc       0x3e Output\obj\project\solution\ble_hid_composite\ble\ble_proc.o
                0x00000000100059cc                ble_exit_sleep_proc
 .text.ble.sleep
                0x0000000010005a0a        0x8 Output\obj\project\solution\ble_hid_composite\ble\ble_proc.o
                0x0000000010005a0a                ble_set_service_pending
 .text.ble_hid_peer_device_type_set
                0x0000000010005a12        0x8 Output\obj\project\solution\ble_hid_composite\ble\ble_proc.o
                0x0000000010005a12                ble_hid_peer_device_type_set
 .text.ble_hid_peer_device_type_get
                0x0000000010005a1a        0x8 Output\obj\project\solution\ble_hid_composite\ble\ble_proc.o
                0x0000000010005a1a                ble_hid_peer_device_type_get
 .text.ble_hid_peer_device_is_ios
                0x0000000010005a22        0xe Output\obj\project\solution\ble_hid_composite\ble\ble_proc.o
                0x0000000010005a22                ble_hid_peer_device_is_ios
 .text.ble_get_profile_data
                0x0000000010005a30        0xa Output\obj\project\solution\ble_hid_composite\ble\ble_profile.o
                0x0000000010005a30                ble_get_profile_data
 .text.ble_service_init
                0x0000000010005a3a       0x22 Output\obj\project\solution\ble_hid_composite\ble\ble_service.o
                0x0000000010005a3a                ble_service_init
 .text.user_service_event_callback
                0x0000000010005a5c       0x82 Output\obj\project\solution\ble_hid_composite\ble\ble_user_service.o
 .text.user_service_write_callback
                0x0000000010005ade       0x28 Output\obj\project\solution\ble_hid_composite\ble\ble_user_service.o
 .text.user_service_read_callback
                0x0000000010005b06       0x60 Output\obj\project\solution\ble_hid_composite\ble\ble_user_service.o
 .text.ble_user_service_init
                0x0000000010005b66       0x74 Output\obj\project\solution\ble_hid_composite\ble\ble_user_service.o
                0x0000000010005b66                ble_user_service_init
 .text.ble_user_service_proc
                0x0000000010005bda        0x2 Output\obj\project\solution\ble_hid_composite\ble\ble_user_service.o
                0x0000000010005bda                ble_user_service_proc
 .text.bsp_io_key_init
                0x0000000010005bdc       0x3e Output\obj\project\solution\ble_hid_composite\bsp\bsp_io_key.o
                0x0000000010005bdc                bsp_io_key_init
 .text.bsp_key_init
                0x0000000010005c1a       0x1c Output\obj\project\solution\ble_hid_composite\bsp\bsp_key.o
                0x0000000010005c1a                bsp_key_init
 .text.bsp.param
                0x0000000010005c36       0x18 Output\obj\project\solution\ble_hid_composite\bsp\bsp_param.o
                0x0000000010005c36                bsp_param_init
                0x0000000010005c42                bsp_param_write
                0x0000000010005c46                bsp_param_read
                0x0000000010005c4a                bsp_param_sync
 .text.bsp.param.fota
                0x0000000010005c4e       0x70 Output\obj\project\solution\ble_hid_composite\bsp\bsp_param.o
                0x0000000010005c4e                param_fot_addr_write
                0x0000000010005c62                param_fot_addr_read
                0x0000000010005c6a                param_fot_remote_ver_write
                0x0000000010005c7e                param_fot_remote_ver_read
                0x0000000010005c86                param_fot_head_info_write
                0x0000000010005c9a                param_fot_head_info_read
                0x0000000010005ca2                param_fot_hash_write
                0x0000000010005cb6                param_fot_hash_read
 .text.bsp_saradc_init
                0x0000000010005cbe       0x3e Output\obj\project\solution\ble_hid_composite\bsp\bsp_saradc.o
                0x0000000010005cbe                bsp_saradc_init
 .text.bsp_vbat_detect_init
                0x0000000010005cfc       0x18 Output\obj\project\solution\ble_hid_composite\bsp\bsp_saradc_vbat.o
                0x0000000010005cfc                bsp_vbat_detect_init
 .text.bsp_vbat_filter
                0x0000000010005d14       0x5c Output\obj\project\solution\ble_hid_composite\bsp\bsp_saradc_vbat.o
                0x0000000010005d14                bsp_vbat_filter
 .text.vddio_adjust_for_vbat
                0x0000000010005d70       0x64 Output\obj\project\solution\ble_hid_composite\bsp\bsp_saradc_vbat.o
                0x0000000010005d70                vddio_adjust_for_vbat
 .text.bsp_get_vbat_level
                0x0000000010005dd4       0x46 Output\obj\project\solution\ble_hid_composite\bsp\bsp_saradc_vbat.o
                0x0000000010005dd4                bsp_get_vbat_level
 .text.power_on_vbat_check
                0x0000000010005e1a       0x32 Output\obj\project\solution\ble_hid_composite\bsp\bsp_sys.o
 .text.sys_ram_info_dump
                0x0000000010005e4c       0x50 Output\obj\project\solution\ble_hid_composite\bsp\bsp_sys.o
                0x0000000010005e4c                sys_ram_info_dump
 .text.bsp.sys.init
                0x0000000010005e9c       0xce Output\obj\project\solution\ble_hid_composite\bsp\bsp_sys.o
                0x0000000010005e9c                bsp_sys_init
 .text.bsp_periph_init
                0x0000000010005f6a       0x16 Output\obj\project\solution\ble_hid_composite\bsp\bsp_sys.o
                0x0000000010005f6a                bsp_periph_init
 .text.bsp_uart_debug_init
                0x0000000010005f80       0x82 Output\obj\project\solution\ble_hid_composite\bsp\bsp_uart_debug.o
                0x0000000010005f80                bsp_uart_debug_init
 .text.startup.main
                0x0000000010006002       0x58 Output\obj\project\solution\ble_hid_composite\main.o
                0x0000000010006002                main
 .text.prod_test_init
                0x000000001000605a        0x2 Output\obj\project\solution\ble_hid_composite\prod_test\prod_test.o
                0x000000001000605a                prod_test_init
 .text.hci_fcc_init
                0x000000001000605c        0x2 Output\obj\project\solution\ble_hid_composite\strong_ble.o
                0x000000001000605c                hci_fcc_init
 .text.bt_uart_isr
                0x000000001000605e        0x4 Output\obj\project\solution\ble_hid_composite\strong_ble.o
                0x000000001000605e                bt_uart_isr
 .text.ble_get_local_bd_addr
                0x0000000010006062       0x14 Output\obj\project\solution\ble_hid_composite\strong_ble.o
                0x0000000010006062                ble_get_local_bd_addr
 .text.bt_rf_get_param
                0x0000000010006076       0x16 Output\obj\project\solution\ble_hid_composite\strong_ble.o
                0x0000000010006076                bt_rf_get_param
 .text.ble_get_link_info
                0x000000001000608c        0x6 Output\obj\project\solution\ble_hid_composite\strong_ble.o
                0x000000001000608c                ble_get_link_info
 .text.ble_put_link_info
                0x0000000010006092       0x10 Output\obj\project\solution\ble_hid_composite\strong_ble.o
                0x0000000010006092                ble_put_link_info
 .text.ble_mtu_exchange_enabled
                0x00000000100060a2        0x4 Output\obj\project\solution\ble_hid_composite\strong_ble.o
                0x00000000100060a2                ble_mtu_exchange_enabled
 .text.ble_sm_send_security_req_time_get
                0x00000000100060a6        0x6 Output\obj\project\solution\ble_hid_composite\strong_ble.o
                0x00000000100060a6                ble_sm_send_security_req_time_get
 .text.ble_sm_always_accept_ltk_req
                0x00000000100060ac        0x4 Output\obj\project\solution\ble_hid_composite\strong_ble.o
                0x00000000100060ac                ble_sm_always_accept_ltk_req
 .text.ble_sm_pairing_support
                0x00000000100060b0        0x4 Output\obj\project\solution\ble_hid_composite\strong_ble.o
                0x00000000100060b0                ble_sm_pairing_support
 .text.ble_disconnected_restart_adv
                0x00000000100060b4        0x4 Output\obj\project\solution\ble_hid_composite\strong_ble.o
                0x00000000100060b4                ble_disconnected_restart_adv
 .text.ble_rx_exit_sleep
                0x00000000100060b8        0x4 Output\obj\project\solution\ble_hid_composite\strong_ble.o
                0x00000000100060b8                ble_rx_exit_sleep
 .text.ble_feature_exchange_enabled
                0x00000000100060bc        0x4 Output\obj\project\solution\ble_hid_composite\strong_ble.o
                0x00000000100060bc                ble_feature_exchange_enabled
 .text.ble_length_request_enabled
                0x00000000100060c0        0x4 Output\obj\project\solution\ble_hid_composite\strong_ble.o
                0x00000000100060c0                ble_length_request_enabled
 .text.ble_phy_update_enable
                0x00000000100060c4        0x4 Output\obj\project\solution\ble_hid_composite\strong_ble.o
                0x00000000100060c4                ble_phy_update_enable
 .text.mem_heap_size_get
                0x00000000100060c8        0x8 Output\obj\project\solution\ble_hid_composite\strong_symbol.o
                0x00000000100060c8                mem_heap_size_get
 .text.thread_cfg_get
                0x00000000100060d0        0xa Output\obj\project\solution\ble_hid_composite\strong_symbol.o
                0x00000000100060d0                thread_cfg_get
 .text.thread_create_callback
                0x00000000100060da        0x4 Output\obj\project\solution\ble_hid_composite\strong_symbol.o
                0x00000000100060da                thread_create_callback
 .text.xosc_get_xcfg
                0x00000000100060de       0x20 Output\obj\project\solution\ble_hid_composite\strong_symbol.o
                0x00000000100060de                xosc_get_xcfg
 .text.param_xosc_read
                0x00000000100060fe        0x8 Output\obj\project\solution\ble_hid_composite\strong_symbol.o
                0x00000000100060fe                param_xosc_read
 .text.param_xosc_write
                0x0000000010006106       0x14 Output\obj\project\solution\ble_hid_composite\strong_symbol.o
                0x0000000010006106                param_xosc_write
 .text.sys_clk_change_callback
                0x000000001000611a       0x10 Output\obj\project\solution\ble_hid_composite\strong_symbol.o
                0x000000001000611a                sys_clk_change_callback
 .text.uart_debug_init_callback
                0x000000001000612a        0x4 Output\obj\project\solution\ble_hid_composite\strong_symbol.o
                0x000000001000612a                uart_debug_init_callback
 .text.cm_loadpage
                0x000000001000612e       0xb0 ..\..\..\libs\cpu\libplatform.a(cm.o)
 .text.cm_next_freepage
                0x00000000100061de       0x54 ..\..\..\libs\cpu\libplatform.a(cm.o)
 .text.cm_loadparam
                0x0000000010006232        0x4 ..\..\..\libs\cpu\libplatform.a(cm.o)
                0x0000000010006232                cm_loadparam
 .text.cm_factory
                0x0000000010006236        0xa ..\..\..\libs\cpu\libplatform.a(cm.o)
                0x0000000010006236                cm_factory
 .text.cm_addr_check
                0x0000000010006240        0x4 ..\..\..\libs\cpu\libplatform.a(cm.o)
                0x0000000010006240                cm_addr_check
 .text.cm_writepage
                0x0000000010006244       0x2a ..\..\..\libs\cpu\libplatform.a(cm.o)
 .text.cm_movepage
                0x000000001000626e       0x56 ..\..\..\libs\cpu\libplatform.a(cm.o)
 .text.cm_erase
                0x00000000100062c4       0x1e ..\..\..\libs\cpu\libplatform.a(cm.o)
 .text.cm_release
                0x00000000100062e2      0x100 ..\..\..\libs\cpu\libplatform.a(cm.o)
 .text.cm_savepage
                0x00000000100063e2       0xda ..\..\..\libs\cpu\libplatform.a(cm.o)
 .text.cm_check_loadpage
                0x00000000100064bc       0xb0 ..\..\..\libs\cpu\libplatform.a(cm.o)
 .text.cm_sync  0x000000001000656c       0x3e ..\..\..\libs\cpu\libplatform.a(cm.o)
                0x000000001000656c                cm_sync
 .text.cm_read  0x00000000100065aa       0x44 ..\..\..\libs\cpu\libplatform.a(cm.o)
                0x00000000100065aa                cm_read
 .text.cm_write
                0x00000000100065ee       0x5e ..\..\..\libs\cpu\libplatform.a(cm.o)
                0x00000000100065ee                cm_write
 .text.cm_init  0x000000001000664c      0x1e2 ..\..\..\libs\cpu\libplatform.a(cm.o)
                0x000000001000664c                cm_init
 .text.xcfg_init
                0x000000001000682e       0x4c ..\..\..\libs\cpu\libplatform.a(xcfg.o)
                0x000000001000682e                xcfg_init
 .text.platform_main
                0x000000001000687a      0x152 ..\..\..\libs\cpu\libplatform.a(main.o)
                0x000000001000687a                platform_main
 .text.main_startup
                0x00000000100069cc        0xe ..\..\..\libs\cpu\libplatform.a(main.o)
                0x00000000100069cc                main_startup
 .text.register_isr
                0x00000000100069da       0x38 ..\..\..\libs\cpu\libplatform.a(interrupt.o)
                0x00000000100069da                register_isr
 .text.sys_irq_init
                0x0000000010006a12       0x8a ..\..\..\libs\cpu\libplatform.a(interrupt.o)
                0x0000000010006a12                sys_irq_init
 .text.soft_irq_init
                0x0000000010006a9c       0x44 ..\..\..\libs\cpu\libplatform.a(interrupt.o)
                0x0000000010006a9c                soft_irq_init
 .text.bthw_irq_init
                0x0000000010006ae0        0xe ..\..\..\libs\cpu\libplatform.a(interrupt.o)
                0x0000000010006ae0                bthw_irq_init
 .text.sys_timer_init
                0x0000000010006aee       0x5e ..\..\..\libs\cpu\libplatform.a(interrupt.o)
                0x0000000010006aee                sys_timer_init
 .text.thread_btstack_create
                0x0000000010006b4c       0x82 ..\..\..\libs\cpu\libplatform.a(startup.o)
                0x0000000010006b4c                thread_btstack_create
 .text.thread_main_entry
                0x0000000010006bce       0x2e ..\..\..\libs\cpu\libplatform.a(startup.o)
 .text.startup.init
                0x0000000010006bfc      0x100 ..\..\..\libs\cpu\libplatform.a(startup.o)
                0x0000000010006bfc                platform_init
                0x0000000010006c04                sys_startup
 .text.bt_set_timer_enable
                0x0000000010006cfc       0x16 ..\..\..\libs\cpu\libplatform.a(startup.o)
                0x0000000010006cfc                bt_set_timer_enable
 .text.sys_set_tmr_enable
                0x0000000010006d12       0x20 ..\..\..\libs\cpu\libplatform.a(startup.o)
                0x0000000010006d12                sys_set_tmr_enable
 .text.sys_hook_init
                0x0000000010006d32        0x2 ..\..\..\libs\cpu\libplatform.a(sys_hook.o)
                0x0000000010006d32                sys_hook_init
 .text.pll0_vco_band_trimming
                0x0000000010006d34      0x176 ..\..\..\libs\cpu\libplatform.a(pll.o)
                0x0000000010006d34                pll0_vco_band_trimming
 .text.pll0_init
                0x0000000010006eaa       0x62 ..\..\..\libs\cpu\libplatform.a(pll.o)
                0x0000000010006eaa                pll0_init
 .text.pll0_disable
                0x0000000010006f0c       0x16 ..\..\..\libs\cpu\libplatform.a(pll.o)
                0x0000000010006f0c                pll0_disable
 .text.pmu_set_buck_mode
                0x0000000010006f22       0x48 ..\..\..\libs\cpu\libplatform.a(pmu.o)
                0x0000000010006f22                pmu_set_buck_mode
 .text.pmu_voltage_configure
                0x0000000010006f6a       0x48 ..\..\..\libs\cpu\libplatform.a(pmu.o)
                0x0000000010006f6a                pmu_voltage_configure
 .text.pmu_init
                0x0000000010006fb2      0x2e8 ..\..\..\libs\cpu\libplatform.a(pmu.o)
                0x0000000010006fb2                pmu_init
 .text.debug_set
                0x000000001000729a       0x20 ..\..\..\libs\cpu\libplatform.a(debug.o)
                0x000000001000729a                debug_set
 .text.ota_pack
                0x00000000100072ba      0x456 ..\..\..\libs\cpu\libplatform.a(fot_pack.o)
                0x0000000010007394                ota_pack_init
                0x00000000100073c0                ota_pack_verify
 .text.ota_pack_get_curaddr
                0x0000000010007710        0x8 ..\..\..\libs\cpu\libplatform.a(fot_pack.o)
                0x0000000010007710                ota_pack_get_curaddr
 .text.ota_pack_get_err
                0x0000000010007718       0x10 ..\..\..\libs\cpu\libplatform.a(fot_pack.o)
                0x0000000010007718                ota_pack_get_err
 .text.ota_pack_is_update_success
                0x0000000010007728        0x8 ..\..\..\libs\cpu\libplatform.a(fot_pack.o)
                0x0000000010007728                ota_pack_is_update_success
 .text.ota_pack_done
                0x0000000010007730       0x44 ..\..\..\libs\cpu\libplatform.a(fot_pack.o)
                0x0000000010007730                ota_pack_done
 .text.fot.cache
                0x0000000010007774      0x11e ..\..\..\libs\cpu\libplatform.a(fot_pack.o)
                0x0000000010007774                ota_pack_write
 .text.ota_pack_breakpoint_info_read
                0x0000000010007892       0x9e ..\..\..\libs\cpu\libplatform.a(fot_pack.o)
                0x0000000010007892                ota_pack_breakpoint_info_read
 .text.bsp.key.init
                0x0000000010007930       0x38 ..\..\..\libs\cpu\libplatform.a(key.o)
                0x0000000010007930                multiple_key_init
 .text.lock_init
                0x0000000010007968       0x10 ..\..\..\libs\cpu\libplatform.a(lock.o)
                0x0000000010007968                lock_init
 .text.patch_init
                0x0000000010007978       0x1e ..\..\..\libs\cpu\libplatform.a(patch.o)
                0x0000000010007978                patch_init
 .text.udivmoddi4
                0x0000000010007996       0x96 ..\..\..\libs\cpu\libplatform.a(sys.o)
 .text.sys_rst_init
                0x0000000010007a2c       0x84 ..\..\..\libs\cpu\libplatform.a(sys.o)
                0x0000000010007a2c                sys_rst_init
 .text.sys_rst_dump
                0x0000000010007ab0       0x74 ..\..\..\libs\cpu\libplatform.a(sys.o)
                0x0000000010007ab0                sys_rst_dump
 .text.rc2m_clk_nhz_cal
                0x0000000010007b24      0x10c ..\..\..\libs\cpu\libplatform.a(sys.o)
                0x0000000010007b24                rc2m_clk_nhz_cal
 .text.rc2m_clk_nhz_get
                0x0000000010007c30       0x2a ..\..\..\libs\cpu\libplatform.a(sys.o)
                0x0000000010007c30                rc2m_clk_nhz_get
 .text.sys_get_rand_key_init
                0x0000000010007c5a        0xa ..\..\..\libs\cpu\libplatform.a(sys.o)
                0x0000000010007c5a                sys_get_rand_key_init
 .text.xosc_init
                0x0000000010007c64       0xa0 ..\..\..\libs\cpu\libplatform.a(sys.o)
                0x0000000010007c64                xosc_init
 .text.bsp.param
                0x0000000010007d04       0x26 ..\..\..\libs\cpu\libplatform.a(sys.o)
                0x0000000010007d04                bt_save_xosc_cap
 .text.bt_get_xosc_cap
                0x0000000010007d2a        0xc ..\..\..\libs\cpu\libplatform.a(sys.o)
                0x0000000010007d2a                bt_get_xosc_cap
 .text.bt_set_xosc_cap
                0x0000000010007d36       0x18 ..\..\..\libs\cpu\libplatform.a(sys.o)
                0x0000000010007d36                bt_set_xosc_cap
 .text.bt_adj_xosc_cap
                0x0000000010007d4e       0x72 ..\..\..\libs\cpu\libplatform.a(sys.o)
                0x0000000010007d4e                bt_adj_xosc_cap
 .text.__udivdi3
                0x0000000010007dc0        0x6 ..\..\..\libs\cpu\libplatform.a(sys.o)
                0x0000000010007dc0                __udivdi3
 .text.sys_clk_cacl_curr
                0x0000000010007dc6       0x18 ..\..\..\libs\cpu\libplatform.a(sys_clk.o)
 *fill*         0x0000000010007dde       0x22 
 .text.set_sys_clk_do
                0x0000000010007e00      0x1f2 ..\..\..\libs\cpu\libplatform.a(sys_clk.o)
                0x0000000010007e00                set_sys_clk_do
 .text.sys_clk  0x0000000010007ff2      0x1ca ..\..\..\libs\cpu\libplatform.a(sys_clk.o)
                0x0000000010007ff2                sys_clk_get_cur
                0x0000000010007ffa                sys_clk_set_do
 .text.sys_clk_get
                0x00000000100081bc        0x8 ..\..\..\libs\cpu\libplatform.a(sys_clk.o)
                0x00000000100081bc                sys_clk_get
 .text.sys_clk_set
                0x00000000100081c4       0x60 ..\..\..\libs\cpu\libplatform.a(sys_clk.o)
                0x00000000100081c4                sys_clk_set
 *fill*         0x0000000010008224        0x0 
 .text.sys_clk.table
                0x0000000010008224       0x16 ..\..\..\libs\cpu\libplatform.a(sys_clk.o)
                0x0000000010008224                sysclk_info_tbl
 .text.pmu_get_vbg_mv
                0x000000001000823a        0xc ..\..\..\libs\cpu\libplatform.a(voltage_trim.o)
                0x000000001000823a                pmu_get_vbg_mv
 .text.pmu_get_vbatdet
                0x0000000010008246       0x44 ..\..\..\libs\cpu\libplatform.a(voltage_trim.o)
                0x0000000010008246                pmu_get_vbatdet
 .text.voltage.trim
                0x000000001000828a       0xb0 ..\..\..\libs\cpu\libplatform.a(voltage_trim.o)
                0x000000001000828a                voltage_trim_value_init
 .text.xosc_24m_div_get
                0x000000001000833a        0x4 ..\..\..\libs\cpu\libplatform.a(weak_symbol.o)
                0x000000001000833a                xosc_24m_div_get
 .text.freq_det_kick_flag_clr
                0x000000001000833e        0x8 ..\..\..\libs\cpu\libplatform.a(freq_det.o)
                0x000000001000833e                freq_det_kick_flag_clr
 .text          0x0000000010008346       0xdc ..\..\..\libs\ble\libbtstack.a(bb_api.o)
                0x0000000010008346                soft_timer_init
                0x0000000010008346                ble_alarm_timer_init
                0x0000000010008350                soft_timer_mem_extend
                0x0000000010008350                ble_alarm_timer_mem_extend
                0x000000001000835a                soft_timer_mem_free
                0x000000001000835a                ble_alarm_timer_mem_free
                0x0000000010008382                soft_timer_start
                0x0000000010008382                ble_alarm_timer_start
                0x00000000100083aa                soft_timer_stop
                0x00000000100083aa                ble_alarm_timer_stop
                0x00000000100083dc                soft_timer_acquire
                0x00000000100083dc                ble_alarm_timer_acquire
                0x00000000100083e6                ble_alarm_timer_release
                0x00000000100083e6                soft_timer_release
 .text          0x0000000010008422      0x110 ..\..\..\libs\ble\libbtstack.a(bb_int.o)
                0x0000000010008422                bb_sleep_init
                0x0000000010008424                bb_driver_init
 *fill*         0x0000000010008532       0xce 
 .text.bb.aes   0x0000000010008600       0xf4 ..\..\..\libs\ble\libbtstack.a(bb_int.o)
                0x0000000010008600                bb_aes_encrypt
 .text.bb.timer.ind
                0x00000000100086f4       0x24 ..\..\..\libs\ble\libbtstack.a(bb_alarm.o)
                0x00000000100086f4                bb_timer_end_ind
 .text.bb.timer.init
                0x0000000010008718       0xcc ..\..\..\libs\ble\libbtstack.a(bb_alarm.o)
                0x0000000010008718                bb_timer_init
 .text          0x00000000100087e4       0x4e ..\..\..\libs\ble\libbtstack.a(txpkt.o)
                0x00000000100087e4                txpkt_list_is_empty
                0x00000000100087f0                txpkt_init
                0x0000000010008820                txpkt_get_available_len
 .text.txpkt.flush
                0x0000000010008832       0x4a ..\..\..\libs\ble\libbtstack.a(txpkt.o)
                0x0000000010008832                txpkt_free_for_handle
 .text          0x000000001000887c      0x75a ..\..\..\libs\ble\libbtstack.a(sm.o)
 .text.sm.aes   0x0000000010008fd6       0x3a ..\..\..\libs\ble\libbtstack.a(sm.o)
 .text.sm.get_handle
                0x0000000010009010       0x16 ..\..\..\libs\ble\libbtstack.a(sm.o)
 .text.sm.rau_run
                0x0000000010009026       0x90 ..\..\..\libs\ble\libbtstack.a(sm.o)
 .text.gap.rau.update
                0x00000000100090b6       0x38 ..\..\..\libs\ble\libbtstack.a(sm.o)
 .text.sm.is_null
                0x00000000100090ee       0x1c ..\..\..\libs\ble\libbtstack.a(sm.o)
                0x00000000100090ee                sm_is_null
 .text.sm.request
                0x000000001000910a       0x86 ..\..\..\libs\ble\libbtstack.a(sm.o)
                0x0000000010009180                sm_send_security_request
 .text.sm.er.get
                0x0000000010009190       0x3e ..\..\..\libs\ble\libbtstack.a(sm.o)
                0x0000000010009190                sm_get_er
 .text.sm.ir    0x00000000100091ce       0x3e ..\..\..\libs\ble\libbtstack.a(sm.o)
                0x00000000100091ce                sm_get_ir
 .text.sm.hdl   0x000000001000920c       0x12 ..\..\..\libs\ble\libbtstack.a(sm.o)
                0x000000001000920c                sm_add_event_handler
 .text.stack.ble.sm
                0x000000001000921e       0xd6 ..\..\..\libs\ble\libbtstack.a(sm.o)
                0x000000001000921e                ble_sm_init
 .text.sm.deinit
                0x00000000100092f4        0x8 ..\..\..\libs\ble\libbtstack.a(sm.o)
                0x00000000100092f4                sm_deinit
 .text.sm.key_size
                0x00000000100092fc       0x20 ..\..\..\libs\ble\libbtstack.a(sm.o)
                0x00000000100092fc                sm_encryption_key_size
 .text.sm.auth  0x000000001000931c       0x20 ..\..\..\libs\ble\libbtstack.a(sm.o)
                0x000000001000931c                sm_authenticated
 .text.sm.auth.sta
                0x000000001000933c       0x24 ..\..\..\libs\ble\libbtstack.a(sm.o)
                0x000000001000933c                sm_authorization_state
 .text.sm.pairing
                0x0000000010009360       0x1c ..\..\..\libs\ble\libbtstack.a(sm.o)
                0x0000000010009360                sm_request_pairing
 .text.sm.confirm
                0x000000001000937c       0x26 ..\..\..\libs\ble\libbtstack.a(sm.o)
                0x000000001000937c                sm_just_works_confirm
 .text.sm.passkey.get
                0x00000000100093a2       0x20 ..\..\..\libs\ble\libbtstack.a(sm.o)
                0x00000000100093a2                sm_passkey_input_get
 .text.sm.passkey.input
                0x00000000100093c2       0x3e ..\..\..\libs\ble\libbtstack.a(sm.o)
                0x00000000100093c2                sm_passkey_input
 .text.sm.index
                0x0000000010009400       0x14 ..\..\..\libs\ble\libbtstack.a(sm.o)
                0x0000000010009400                sm_le_device_index
 .text.gap.rau.mode
                0x0000000010009414       0x66 ..\..\..\libs\ble\libbtstack.a(sm.o)
                0x0000000010009414                gap_random_address_set_mode
 .text.gap.addr
                0x000000001000947a        0x8 ..\..\..\libs\ble\libbtstack.a(sm.o)
                0x000000001000947a                gap_random_address_get_mode
 *fill*         0x0000000010009482        0x2 
 .text.sm.run   0x0000000010009484      0xaf8 ..\..\..\libs\ble\libbtstack.a(sm.o)
 .text.sm.pdu   0x0000000010009f7c      0x26c ..\..\..\libs\ble\libbtstack.a(sm.o)
 *fill*         0x000000001000a1e8        0x0 
 .text.sm.event
                0x000000001000a1e8      0x966 ..\..\..\libs\ble\libbtstack.a(sm.o)
 .text.gap.rau_set
                0x000000001000ab4e       0x28 ..\..\..\libs\ble\libbtstack.a(sm.o)
                0x000000001000ab4e                gap_random_address_set
 .text.sm.addr  0x000000001000ab76        0xc ..\..\..\libs\ble\libbtstack.a(sm.o)
                0x000000001000ab76                gap_random_address_get
 .text.gap.adv  0x000000001000ab82        0x4 ..\..\..\libs\ble\libbtstack.a(sm.o)
                0x000000001000ab82                gap_advertisements_set_params
 .text.sm.reconnect
                0x000000001000ab86       0x46 ..\..\..\libs\ble\libbtstack.a(sm.o)
                0x000000001000ab86                gap_reconnect_security_setup_active
 .text          0x000000001000abcc       0x36 ..\..\..\libs\ble\libbtstack.a(le_device_db_memory.o)
                0x000000001000abcc                le_device_db_count
 .text.le.db.max
                0x000000001000ac02        0x4 ..\..\..\libs\ble\libbtstack.a(le_device_db_memory.o)
                0x000000001000ac02                ble_bonding_info_max_count
 .text.le.db.set
                0x000000001000ac06      0x114 ..\..\..\libs\ble\libbtstack.a(le_device_db_memory.o)
                0x000000001000ac06                le_device_db_info_save_for_index
                0x000000001000ac2e                le_device_db_info_set
 .text.le.db.read
                0x000000001000ad1a       0x2c ..\..\..\libs\ble\libbtstack.a(le_device_db_memory.o)
                0x000000001000ad1a                le_device_db_info_load_for_index
 .text.le.db.init
                0x000000001000ad46       0x52 ..\..\..\libs\ble\libbtstack.a(le_device_db_memory.o)
                0x000000001000ad46                le_device_db_init
 .text.le.db.remove
                0x000000001000ad98       0x7e ..\..\..\libs\ble\libbtstack.a(le_device_db_memory.o)
                0x000000001000ad98                le_device_db_remove
 .text.le.db.add
                0x000000001000ae16       0xb0 ..\..\..\libs\ble\libbtstack.a(le_device_db_memory.o)
                0x000000001000ae16                le_device_db_add
 .text.le.db    0x000000001000aec6      0x144 ..\..\..\libs\ble\libbtstack.a(le_device_db_memory.o)
                0x000000001000aec6                le_device_db_info
                0x000000001000af16                le_device_db_encryption_set
                0x000000001000af7e                le_device_db_encryption_get
 .text          0x000000001000b00a       0x24 ..\..\..\libs\ble\libbtstack.a(gatt_server.o)
                0x000000001000b00a                att_server_send_func_get
 .text.ble.indicate
                0x000000001000b02e       0x6c ..\..\..\libs\ble\libbtstack.a(gatt_server.o)
                0x000000001000b02e                ble_send_indicate_packet
                0x000000001000b042                ble_indicate_for_handle
 *fill*         0x000000001000b09a        0x2 
 .text          0x000000001000b09c     0x195e ..\..\..\libs\ble\libbtstack.a(gatt_client.o)
                0x000000001000b5fe                att_client_register_handler
                0x000000001000b74e                gatt_client_is_ready
                0x000000001000bbf4                gatt_client_listen_for_characteristic_value_updates
                0x000000001000bc18                gatt_client_init
                0x000000001000bc7a                gatt_client_write_value_of_characteristic_without_response
                0x000000001000bce2                gatt_client_write_value_of_characteristic
                0x000000001000bd34                ble_service_query_result_get_service
                0x000000001000bd3c                ble_characteristic_query_result_get_characteristic
                0x000000001000bd44                ble_client_write_client_characteristic_configuration
                0x000000001000bdb4                att_client_send_func_get
                0x000000001000c92a                gatt_client_read_value_of_characteristic_using_value_handle
                0x000000001000c98a                gatt_client_write_client_characteristic_configuration
 .text.client.get_context
                0x000000001000c9fa       0x18 ..\..\..\libs\ble\libbtstack.a(gatt_client.o)
                0x000000001000c9fa                gatt_client_get_context_for_handle
 .text.client.request_can_send
                0x000000001000ca12       0x28 ..\..\..\libs\ble\libbtstack.a(gatt_client.o)
                0x000000001000ca12                att_client_request_can_send_now_event
 .text.client.write_req
                0x000000001000ca3a       0x6c ..\..\..\libs\ble\libbtstack.a(gatt_client.o)
                0x000000001000ca3a                att_write_request
                0x000000001000ca86                ble_write_req_for_character
 *fill*         0x000000001000caa6        0x2 
 .text.sm.client
                0x000000001000caa8      0x15c ..\..\..\libs\ble\libbtstack.a(gatt_client.o)
                0x000000001000caa8                ble_sm_client_event_do
 .text.client.deserialize_service
                0x000000001000cc04       0x48 ..\..\..\libs\ble\libbtstack.a(gatt_client.o)
                0x000000001000cc04                gatt_client_deserialize_service
 .text.client.deserialize_characteristic
                0x000000001000cc4c       0x58 ..\..\..\libs\ble\libbtstack.a(gatt_client.o)
                0x000000001000cc4c                gatt_client_deserialize_characteristic
 .text.client.send_req
                0x000000001000cca4       0x16 ..\..\..\libs\ble\libbtstack.a(gatt_client.o)
                0x000000001000cca4                btstack_ble_client_send_req
 .text.client.find_services_uuid128
                0x000000001000ccba       0x54 ..\..\..\libs\ble\libbtstack.a(gatt_client.o)
                0x000000001000ccba                gatt_client_discover_primary_services_by_uuid128
                0x000000001000cd00                ble_client_discover_primary_services_by_uuid128
 .text.client.read_long_value_offset
                0x000000001000cd0e       0x3a ..\..\..\libs\ble\libbtstack.a(gatt_client.o)
                0x000000001000cd0e                gatt_client_read_long_value_of_characteristic_using_value_handle_with_offset
 .text          0x000000001000cd48      0x1b0 ..\..\..\libs\ble\libbtstack.a(att_server.o)
                0x000000001000ce64                att_server_handler_list_init
                0x000000001000ce6c                att_server_can_send_packet_now
 *fill*         0x000000001000cef8        0x0 
 .text.sm.server
                0x000000001000cef8      0x1e2 ..\..\..\libs\ble\libbtstack.a(att_server.o)
                0x000000001000cef8                ble_sm_server_event_do
 .text.server.register_service
                0x000000001000d0da       0x30 ..\..\..\libs\ble\libbtstack.a(att_server.o)
                0x000000001000d0da                att_server_register_service_handler
 .text.server.init
                0x000000001000d10a       0x5e ..\..\..\libs\ble\libbtstack.a(att_server.o)
                0x000000001000d10a                att_server_init
 .text.server.packet_handler
                0x000000001000d168      0x18e ..\..\..\libs\ble\libbtstack.a(att_server.o)
 .text.att.event_handler
                0x000000001000d2f6      0x14a ..\..\..\libs\ble\libbtstack.a(att_server.o)
 .text.server.indicate
                0x000000001000d440       0x98 ..\..\..\libs\ble\libbtstack.a(att_server.o)
                0x000000001000d440                att_server_indicate
 .text.server.mtu_get
                0x000000001000d4d8       0x24 ..\..\..\libs\ble\libbtstack.a(att_server.o)
                0x000000001000d4d8                ble_att_get_mtu
 .text          0x000000001000d4fc      0x1da ..\..\..\libs\ble\libbtstack.a(att_dispatch.o)
                0x000000001000d5f2                att_dispatch_connected_event
                0x000000001000d648                att_dispatch_disconnected_event
                0x000000001000d670                att_dispatch_connect_param_update_event
                0x000000001000d69e                att_dispatch_encryption_change_event
                0x000000001000d6ce                att_dispatch_sm_event
 .text.att.register_client
                0x000000001000d6d6       0x14 ..\..\..\libs\ble\libbtstack.a(att_dispatch.o)
                0x000000001000d6d6                att_dispatch_register_client
 .text.att.is_register_client
                0x000000001000d6ea        0xc ..\..\..\libs\ble\libbtstack.a(att_dispatch.o)
                0x000000001000d6ea                att_dispatch_client_is_register
 .text.att.register_server
                0x000000001000d6f6       0x14 ..\..\..\libs\ble\libbtstack.a(att_dispatch.o)
                0x000000001000d6f6                att_dispatch_register_server
 .text.att.dispatch_server
                0x000000001000d70a        0x6 ..\..\..\libs\ble\libbtstack.a(att_dispatch.o)
                0x000000001000d70a                att_dispatch_can_send_now
 .text.att.dispatch_client
                0x000000001000d710        0xe ..\..\..\libs\ble\libbtstack.a(att_dispatch.o)
                0x000000001000d710                att_dispatch_client_request_can_send_now_event
 .text.att.client_mtu
                0x000000001000d71e        0xe ..\..\..\libs\ble\libbtstack.a(att_dispatch.o)
                0x000000001000d71e                att_dispatch_client_mtu_exchanged
 .text.att.server_mtu
                0x000000001000d72c        0xe ..\..\..\libs\ble\libbtstack.a(att_dispatch.o)
                0x000000001000d72c                att_dispatch_server_mtu_exchanged
 *fill*         0x000000001000d73a        0x2 
 .text          0x000000001000d73c      0xddc ..\..\..\libs\ble\libbtstack.a(att_db.o)
                0x000000001000d936                att_uuid_for_handle
                0x000000001000d960                att_set_db
                0x000000001000d968                att_set_read_callback
                0x000000001000d970                att_set_write_callback
                0x000000001000d978                handle_exchange_mtu_request
                0x000000001000d9a0                att_clear_transaction_queue
                0x000000001000d9bc                att_prepare_handle_value_indication
                0x000000001000d9fa                att_handle_request
                0x000000001000e3c4                gatt_server_get_get_handle_range_for_service_with_uuid16
                0x000000001000e44a                gatt_server_get_value_handle_for_characteristic_with_uuid16
                0x000000001000e48c                gatt_server_get_client_configuration_handle_for_characteristic_with_uuid16
 .text.att.mtu_request
                0x000000001000e518       0x3a ..\..\..\libs\ble\libbtstack.a(att_db.o)
                0x000000001000e518                att_exchange_mtu_request
 .text.att_server.mtu_rsp
                0x000000001000e552       0x2a ..\..\..\libs\ble\libbtstack.a(att_db.o)
                0x000000001000e552                handle_exchange_mtu_response
 .text          0x000000001000e57c      0x116 ..\..\..\libs\ble\libbtstack.a(btstack_api.o)
                0x000000001000e57c                btstack_ble_enable_scan
                0x000000001000e5ce                btstack_ble_enable_adv
                0x000000001000e5d4                btstack_ble_disable_adv
                0x000000001000e5da                btstack_ble_set_adv_param
                0x000000001000e61c                btstack_ble_sm_passkey_input
                0x000000001000e632                btstack_ble_sm_send_security_request
                0x000000001000e636                btstack_ble_ctrl_connection_latency
                0x000000001000e642                btstack_ble_single_tone_mode_enter
                0x000000001000e660                btstack_ble_set_random_static_addr
                0x000000001000e670                btstack_ble_add_dev_to_white_list
                0x000000001000e672                btstack_ble_rmv_dev_from_white_list
                0x000000001000e674                btstack_ble_set_ext_adv_param
                0x000000001000e676                btstack_ble_disable_scan
                0x000000001000e678                btstack_ble_set_scan_param
                0x000000001000e67a                btstack_ble_conn_by_addr
                0x000000001000e67c                btstack_ble_rslv_enable
                0x000000001000e67e                btstack_ble_rslv_renew_to_set
                0x000000001000e680                btstack_ble_add_dev_to_ral_list
                0x000000001000e682                btstack_ble_rmv_dev_from_ral_list
                0x000000001000e684                btstack_var_init
                0x000000001000e68e                btstack_ble_get_conn_rssi
 .text.stack.sleep
                0x000000001000e692       0x24 ..\..\..\libs\ble\libbtstack.a(btstack_api.o)
                0x000000001000e692                btstack_exit_sleep
                0x000000001000e69e                btstack_enter_sleep
 .text.ble.hci  0x000000001000e6b6       0xb0 ..\..\..\libs\ble\libbtstack.a(btstack_api.o)
                0x000000001000e6b6                btstack_ble_set_adv_data
                0x000000001000e6c6                btstack_ble_set_scan_rsp_data
                0x000000001000e6d6                btstack_ble_disconnect
                0x000000001000e6f0                btstack_ble_set_adv_interval
 .text.stack.setup
                0x000000001000e766       0x4c ..\..\..\libs\ble\libbtstack.a(btstack_api.o)
 .text.stack.api
                0x000000001000e7b2       0x34 ..\..\..\libs\ble\libbtstack.a(btstack_api.o)
                0x000000001000e7d2                btstack_init
 .text          0x000000001000e7e6       0x40 ..\..\..\libs\ble\libbtstack.a(ble_api.o)
                0x000000001000e812                ble_msg_free_prepare
 .text.ble.api.conn.update
                0x000000001000e826       0x94 ..\..\..\libs\ble\libbtstack.a(ble_api.o)
                0x000000001000e8b0                ble_update_conn_param
                0x000000001000e8b8                ble_update_conn_param_2
 .text.stack.api
                0x000000001000e8ba       0x56 ..\..\..\libs\ble\libbtstack.a(ble_api.o)
                0x000000001000e8ba                btstack_deinit
                0x000000001000e8e2                ble_setup
 .text.stack.sleep
                0x000000001000e910       0x98 ..\..\..\libs\ble\libbtstack.a(ble_api.o)
                0x000000001000e910                ble_enter_sleep
                0x000000001000e95c                ble_exit_sleep
 .text.ble.api.adv_interval.set
                0x000000001000e9a8       0x46 ..\..\..\libs\ble\libbtstack.a(ble_api.o)
                0x000000001000e9a8                ble_set_adv_interval
 .text.ble.api.adv.adv_interval.get
                0x000000001000e9ee       0x18 ..\..\..\libs\ble\libbtstack.a(ble_api.o)
                0x000000001000e9ee                ble_get_adv_interval
 .text.ble.api.conn_param.get
                0x000000001000ea06        0x4 ..\..\..\libs\ble\libbtstack.a(ble_api.o)
                0x000000001000ea06                ble_get_conn_param
 .text.ble.api.latency.dis
                0x000000001000ea0a       0x2c ..\..\..\libs\ble\libbtstack.a(ble_api.o)
                0x000000001000ea0a                ble_disable_latency
 .text.ble.api.latency.en
                0x000000001000ea36       0x2c ..\..\..\libs\ble\libbtstack.a(ble_api.o)
                0x000000001000ea36                ble_enable_latency
 .text.ble.api.adv_param.set
                0x000000001000ea62       0xf8 ..\..\..\libs\ble\libbtstack.a(ble_api.o)
                0x000000001000ea62                ble_set_adv_param
 .text.ble.api.regist
                0x000000001000eb5a        0x8 ..\..\..\libs\ble\libbtstack.a(ble_api.o)
                0x000000001000eb5a                ble_init_callback_register
                0x000000001000eb5e                ble_vs_tbox_init_callback_register
 .text          0x000000001000eb62       0x44 ..\..\..\libs\ble\libbtstack.a(txpkt.o)
                0x000000001000eb62                txpkt_mem_init
                0x000000001000eb7c                txpkt_malloc
                0x000000001000eb88                txpkt_free
                0x000000001000eb92                txpkt_list_pop_front
                0x000000001000eb9c                txpkt_list_extract
 .text.bb.aes   0x000000001000eba6      0x19a ..\..\..\libs\ble\libbtstack.a(aes.o)
                0x000000001000eba6                aes_init
                0x000000001000ebf0                aes_alloc
                0x000000001000ec12                aes_start
                0x000000001000ec50                aes_encrypt
                0x000000001000ec9c                aes_rand
                0x000000001000ecd8                aes_result_handler
 .text          0x000000001000ed40       0x34 ..\..\..\libs\ble\libbtstack.a(extern.o)
                0x000000001000ed56                bt_rf_get_fcc_param
                0x000000001000ed5e                private_freq_bands_hook
                0x000000001000ed62                private_access_code_hook
                0x000000001000ed6c                ble_tbox_feature_req_enabled
                0x000000001000ed70                ble_chmap_instant_pass_discon
 .text          0x000000001000ed74       0x82 ..\..\..\libs\ble\libbtstack.a(rf.o)
                0x000000001000ed74                rf_off
                0x000000001000ed8c                rf_reset
                0x000000001000ed8e                rf_init
 .text.rf.tx_tone
                0x000000001000edf6       0x54 ..\..\..\libs\ble\libbtstack.a(rf.o)
                0x000000001000edf6                rf_single_tone_enter
 *fill*         0x000000001000ee4a       0xb6 
 .text          0x000000001000ef00      0x52a ..\..\..\libs\ble\libbtstack.a(ble_con.o)
                0x000000001000ef00                ble_con_start_do
                0x000000001000ef28                ble_con_start
                0x000000001000f300                ble_con_stop
                0x000000001000f380                ble_con_offset_get
                0x000000001000f3c0                ble_con_pref_slave_latency_set
                0x000000001000f3fc                ble_con_peer_sca_set
 .text.le.con   0x000000001000f42a       0x84 ..\..\..\libs\ble\libbtstack.a(ble_con.o)
                0x000000001000f42a                ble_get_con_var
                0x000000001000f432                ble_get_con_rssi
                0x000000001000f448                ble_con_init
 .text          0x000000001000f4ae      0x13e ..\..\..\libs\ble\libbtstack.a(ble_buf.o)
                0x000000001000f4ae                ble_buf_init_do
                0x000000001000f5a4                ble_buf_init
 *fill*         0x000000001000f5ec       0x14 
 .text.bb.buf   0x000000001000f600       0x98 ..\..\..\libs\ble\libbtstack.a(ble_buf.o)
                0x000000001000f600                ble_buf_acl_tx_elt_get
                0x000000001000f640                ble_buf_acl_tx_elt_set
 .text.le.stack
                0x000000001000f698       0x28 ..\..\..\libs\ble\libbtstack.a(ble_buf.o)
                0x000000001000f698                ble_msg_malloc
                0x000000001000f6a0                ble_msg_free
                0x000000001000f6a8                ble_msg_wrap
                0x000000001000f6b6                ble_msg_unwrap
 .text          0x000000001000f6c0       0x40 ..\..\..\libs\ble\libbtstack.a(ble.o)
                0x000000001000f6c0                ble_init
 .text.ble.var.init
                0x000000001000f700       0x58 ..\..\..\libs\ble\libbtstack.a(ble.o)
                0x000000001000f700                ble_var_init
 .text          0x000000001000f758      0x2a0 ..\..\..\libs\ble\libbtstack.a(bb.o)
                0x000000001000f77a                bb_rand_init
                0x000000001000f782                bb_get_heap_info
                0x000000001000f794                bb_var_init
                0x000000001000f79c                bb_nanos_mem_init
                0x000000001000f7e2                bb_reset
                0x000000001000f86e                bb_init
                0x000000001000f998                bb_off
 .text          0x000000001000f9f8       0x2e ..\..\..\libs\ble\libbtstack.a(extern_ble.o)
                0x000000001000fa20                ble_sync_link_info
 .text          0x000000001000fa26       0x60 ..\..\..\libs\ble\libbtstack.a(l2cap.o)
                0x000000001000fa70                l2cap_register_packet_handler
                0x000000001000fa78                l2cap_max_le_mtu
 .text.stk.l2cap.txreq
                0x000000001000fa86       0x96 ..\..\..\libs\ble\libbtstack.a(l2cap.o)
 .text.stack.l2cap
                0x000000001000fb1c       0xf4 ..\..\..\libs\ble\libbtstack.a(l2cap.o)
                0x000000001000fbf4                l2cap_get_outgoing_buffer
                0x000000001000fc06                l2cap_reserve_packet_buffer
                0x000000001000fc0c                l2cap_release_packet_buffer
 .text.stack.handler.l2cap
                0x000000001000fc10      0x11a ..\..\..\libs\ble\libbtstack.a(l2cap.o)
                0x000000001000fd26                l2cap_can_send_fixed_channel_packet_now
 .text.stack.l2cap.gap
                0x000000001000fd2a       0x20 ..\..\..\libs\ble\libbtstack.a(l2cap.o)
                0x000000001000fd2a                gap_request_connection_parameter_update
 .text.stack.setup
                0x000000001000fd4a       0x6e ..\..\..\libs\ble\libbtstack.a(l2cap.o)
                0x000000001000fd4a                l2cap_init
                0x000000001000fd96                l2cap_register_fixed_channel
 .text.stack.l2cap.connectionless
                0x000000001000fdb8       0x40 ..\..\..\libs\ble\libbtstack.a(l2cap.o)
                0x000000001000fdb8                l2cap_send_connectionless
 .text.stack.setup
                0x000000001000fdf8        0x2 ..\..\..\libs\ble\libbtstack.a(hci_dump.o)
                0x000000001000fdf8                hci_dump_open
 *fill*         0x000000001000fdfa        0x2 
 .text.stack.hci_send
                0x000000001000fdfc      0x322 ..\..\..\libs\ble\libbtstack.a(hci_cmd.o)
                0x000000001000fdfc                hci_cmd_create_from_template
 .text          0x000000001001011e      0x258 ..\..\..\libs\ble\libbtstack.a(hci.o)
                0x000000001001011e                hci_get_state
                0x0000000010010126                hci_adv_param_get
                0x000000001001012e                ble_get_scan_sta
                0x0000000010010132                hci_shutdown_connection
                0x0000000010010158                gap_le_get_own_address
                0x000000001001018e                hci_le_set_own_address_type
                0x00000000100101c2                hci_le_random_address_set
                0x00000000100101e6                gap_ctrl_connection_parameter_latency
                0x000000001001020e                gap_set_connection_parameters
                0x0000000010010226                gap_get_connection_parameters
                0x000000001001024e                gap_get_connection_parameters_for_handle
                0x0000000010010284                gap_advertisements_set_data
                0x0000000010010298                gap_scan_response_set_data
                0x00000000100102ac                gap_advertisements_enable
                0x00000000100102dc                gap_ext_advertisements_set_data
                0x00000000100102de                gap_ext_scan_response_set_data
                0x00000000100102e0                gap_ext_advertisements_enable
                0x00000000100102e2                gap_ext_advertisements_set_params
                0x00000000100102e4                ble_per_advertisements_set_data
                0x00000000100102e6                ble_per_advertisements_enable
                0x00000000100102e8                ble_per_advertisements_add_device_list
                0x00000000100102ea                ble_per_advertisements_creat_sync
                0x00000000100102ec                ble_per_advertisements_creat_sync_cancel
                0x00000000100102ee                ble_per_advertisements_terminate_sync
                0x00000000100102f0                ble_vs_tbox_prod_test_start
                0x0000000010010306                gap_disconnect
                0x0000000010010358                hci_rx_flush
                0x000000001001035a                hci_packet_send_finish
 .text.stack.hci_init
                0x0000000010010376       0x88 ..\..\..\libs\ble\libbtstack.a(hci.o)
                0x0000000010010396                hci_power_control
 .text.stack.handler.acl
                0x00000000100103fe       0x14 ..\..\..\libs\ble\libbtstack.a(hci.o)
 .text.stack.setup
                0x0000000010010412       0xac ..\..\..\libs\ble\libbtstack.a(hci.o)
                0x0000000010010442                hci_add_event_handler
                0x0000000010010454                hci_register_acl_packet_handler
                0x000000001001045c                hci_init
 .text.stack.hci
                0x00000000100104be      0x232 ..\..\..\libs\ble\libbtstack.a(hci.o)
                0x000000001001050e                hci_number_free_acl_slots_for_handle
                0x0000000010010526                hci_can_send_command_packet_now
                0x0000000010010564                hci_can_send_acl_le_packet_now
                0x00000000100105a2                hci_can_send_prepared_acl_packet_now
                0x00000000100105b0                hci_can_send_acl_packet_now
                0x00000000100105be                hci_is_packet_buffer_reserved
                0x00000000100105c6                hci_reserve_packet_buffer
                0x00000000100105fe                hci_release_packet_buffer
 .text.stack.hci.conn
                0x00000000100106f0       0xcc ..\..\..\libs\ble\libbtstack.a(hci.o)
                0x00000000100106f0                get_free_hci_connection
                0x000000001001070c                create_connection_for_bd_addr_and_type
                0x0000000010010784                hci_connection_for_bd_addr_and_type
 .text.ble.hci  0x00000000100107bc      0x18c ..\..\..\libs\ble\libbtstack.a(hci.o)
                0x00000000100107bc                ble_event_cmd_complete
                0x0000000010010840                ble_event_meta
 .text.stack.hci_send
                0x0000000010010948       0x96 ..\..\..\libs\ble\libbtstack.a(hci.o)
                0x0000000010010948                hci_send_cmd_packet
                0x000000001001099c                hci_send_cmd
 .text.stack.hci.run
                0x00000000100109de      0x17a ..\..\..\libs\ble\libbtstack.a(hci.o)
 .text.stack.hci_rx
                0x0000000010010b58       0xdc ..\..\..\libs\ble\libbtstack.a(hci.o)
 .text.stack.hci_emit
                0x0000000010010c34       0x2c ..\..\..\libs\ble\libbtstack.a(hci.o)
                0x0000000010010c34                hci_emit_state
 .text.stack.hci.le.adv
                0x0000000010010c60       0x46 ..\..\..\libs\ble\libbtstack.a(hci.o)
                0x0000000010010c60                hci_le_advertisements_set_params
 .text          0x0000000010010ca6       0x42 ..\..\..\libs\ble\libbtstack.a(btstack_util.o)
                0x0000000010010ca6                log_info_hexdump
                0x0000000010010ca8                log_info_key
                0x0000000010010caa                uuid_add_bluetooth_prefix
                0x0000000010010ccc                uuid_has_bluetooth_prefix
 .text.stack.util
                0x0000000010010ce8      0x126 ..\..\..\libs\ble\libbtstack.a(btstack_util.o)
                0x0000000010010ce8                bd_addr_cmp
                0x0000000010010cee                bd_addr_copy
                0x0000000010010cf4                big_endian_read_16
                0x0000000010010d04                big_endian_read_32
                0x0000000010010d24                big_endian_store_16
                0x0000000010010d38                big_endian_store_32
                0x0000000010010d6c                reverse_bytes
                0x0000000010010d88                reverse_24
                0x0000000010010d8c                reverse_48
                0x0000000010010d90                reverse_56
                0x0000000010010d94                reverse_64
                0x0000000010010d98                reverse_128
                0x0000000010010d9c                reverse_256
                0x0000000010010da2                reverse_bd_addr
                0x0000000010010da4                btstack_min
                0x0000000010010daa                btstack_max
                0x0000000010010db0                char_for_nibble
                0x0000000010010dd6                nibble_for_char
 .text.stack.hci_dump
                0x0000000010010e0e       0x50 ..\..\..\libs\ble\libbtstack.a(btstack_util.o)
                0x0000000010010e0e                bd_addr_to_str
 .text          0x0000000010010e5e        0x2 ..\..\..\libs\ble\libbtstack.a(btstack_run_loop.o)
                0x0000000010010e5e                thread_nanos_task_create
 *fill*         0x0000000010010e60       0x20 
 .text.stack.run_loop
                0x0000000010010e80      0x16a ..\..\..\libs\ble\libbtstack.a(btstack_run_loop.o)
                0x0000000010010e80                btstack_run_loop_set_timer_handler
                0x0000000010010e84                btstack_run_loop_set_data_source_handler
                0x0000000010010e88                btstack_run_loop_set_data_source_fd
                0x0000000010010e8c                btstack_run_loop_get_data_source_fd
                0x0000000010010e90                btstack_run_loop_enable_data_source_callbacks
                0x0000000010010e9c                btstack_run_loop_disable_data_source_callbacks
                0x0000000010010eac                btstack_run_loop_add_data_source
                0x0000000010010ebe                btstack_run_loop_remove_data_source
                0x0000000010010ed0                btstack_run_loop_set_timer
                0x0000000010010eea                btstack_run_loop_set_timer_context
                0x0000000010010eee                btstack_run_loop_get_timer_context
                0x0000000010010f00                btstack_run_loop_set_trig_ticks
                0x0000000010010f3c                btstack_run_loop_add_timer
                0x0000000010010f6c                btstack_run_loop_remove_timer
                0x0000000010010fa4                btstack_run_loop_get_ticks
                0x0000000010010fae                btstack_run_loop_ticks_for_ms
                0x0000000010010fb4                btstack_run_loop_get_time_ms
                0x0000000010010fc0                btstack_run_loop_timer_dump
 .text.stack.setup
                0x0000000010010fea       0x2e ..\..\..\libs\ble\libbtstack.a(btstack_run_loop.o)
                0x0000000010010fea                btstack_run_loop_init
 .text          0x0000000010011018       0x2c ..\..\..\libs\ble\libbtstack.a(btstack_memory.o)
                0x0000000010011018                btstack_memory_gatt_client_get
                0x0000000010011022                btstack_memory_gatt_client_free
                0x000000001001102e                btstack_memory_gatt_client_init
 .text          0x0000000010011044        0x2 ..\..\..\libs\ble\libbtstack.a(hci_transport_h3_controller.o)
                0x0000000010011044                hci_init_var
 .text          0x0000000010011046       0x12 ..\..\..\libs\ble\libbtstack.a(hci_transport_dummy.o)
                0x0000000010011046                hci_iodm_init
                0x0000000010011048                hci_transport_setup
 .text          0x0000000010011058       0x10 ..\..\..\libs\ble\libbtstack.a(btstack_main.o)
                0x0000000010011058                btstack_ble_set_init_callback
                0x0000000010011060                btstack_ble_vs_tbox_set_init_callback
 .text.stack.handler
                0x0000000010011068       0x60 ..\..\..\libs\ble\libbtstack.a(btstack_main.o)
 .text.stack.ble.setup
                0x00000000100110c8        0x4 ..\..\..\libs\ble\libbtstack.a(btstack_main.o)
                0x00000000100110c8                btstack_ble_init
 .text.stack.setup
                0x00000000100110cc       0x34 ..\..\..\libs\ble\libbtstack.a(btstack_main.o)
                0x00000000100110cc                btstack_main
 .text          0x0000000010011100       0x18 ..\..\..\libs\ble\libbtstack.a(btstack_hal.o)
                0x0000000010011100                hal_tick_init
                0x0000000010011106                hal_tick_set_handler
 .text          0x0000000010011118       0x76 ..\..\..\libs\ble\libbtstack.a(nanos.o)
                0x0000000010011118                nanos_init
                0x000000001001114e                nanos_var_init
 .text          0x000000001001118e       0x34 ..\..\..\libs\ble\libbtstack.a(bb_sche.o)
                0x000000001001118e                bb_sche_frag_ble_dur_set
                0x00000000100111a0                bb_sche_init
 .text          0x00000000100111c2       0xae ..\..\..\libs\ble\libbtstack.a(patch.o)
                0x00000000100111c2                bb_patch_dummy
                0x00000000100111c4                bb_patch_init
 .text          0x0000000010011270       0x9c ..\..\..\libs\ble\libbtstack.a(vs.o)
                0x0000000010011270                vs_init
                0x00000000100112ac                vs_reset_complete_evt
 .text          0x000000001001130c      0x2ca ..\..\..\libs\ble\libbtstack.a(rf_mate.o)
                0x00000000100113f2                rfphy_tx
                0x00000000100115a4                rfphy_test
                0x00000000100115a6                ble_rf_external_pa_init
 .text.rfphy.other
                0x00000000100115d6       0x8a ..\..\..\libs\ble\libbtstack.a(rf_mate.o)
 .text.rf.param.init
                0x0000000010011660       0xde ..\..\..\libs\ble\libbtstack.a(rf_mate.o)
 .text.bb.rf    0x000000001001173e       0x7a ..\..\..\libs\ble\libbtstack.a(rf_mate.o)
                0x000000001001173e                rfphy_sw_ctrl
                0x000000001001176e                rfphy_tx_pwr
 .text.bb.phy.tx
                0x00000000100117b8       0x8c ..\..\..\libs\ble\libbtstack.a(rf_mate.o)
                0x00000000100117b8                rfphy_tx_tone
 .text          0x0000000010011844        0x2 ..\..\..\libs\ble\libbtstack.a(ble_hook.o)
                0x0000000010011844                ble_hal_init_hook
 .text          0x0000000010011846      0x402 ..\..\..\libs\ble\libbtstack.a(hct_proc.o)
                0x0000000010011ba8                hct_register_handler_evt
                0x0000000010011bb0                hct_register_handler_acl
                0x0000000010011bb8                hct_acl_block_request
                0x0000000010011c08                hct_init_do
 *fill*         0x0000000010011c48       0x38 
 .text          0x0000000010011c80      0x2dc ..\..\..\libs\ble\libbtstack.a(hct.o)
                0x0000000010011c80                hct_init
                0x0000000010011c90                hci_send_2_host
                0x0000000010011cc4                hci_cmd_send_2_controller
                0x0000000010011d74                hci_acl_send_2_controller
                0x0000000010011e80                hci_malloc_for_cmd_tmpl
                0x0000000010011ed2                hci_malloc_for_acl_tx
                0x0000000010011ef0                hci_ble_conhdl_register
                0x0000000010011efe                hci_ble_conhdl_unregister
 .text          0x0000000010011f5c      0x17a ..\..\..\libs\ble\libbtstack.a(mgr_hci.o)
                0x00000000100120c2                hci_le_rd_buff_size
 .text.le.mgr   0x00000000100120d6       0x38 ..\..\..\libs\ble\libbtstack.a(mgr_hci.o)
                0x00000000100120d6                hci_command_mgr_func
 .text          0x000000001001210e      0x440 ..\..\..\libs\ble\libbtstack.a(mgr.o)
                0x000000001001210e                mgr_cmd_cmp_send
                0x0000000010012136                mgr_cmd_stat_send
                0x000000001001215e                mgr_is_dev_connected
                0x00000000100121c8                mgr_ral_is_empty
                0x00000000100121cc                mgr_ch_map_update
                0x00000000100122d8                mgr_init
                0x00000000100123d8                mgr_clk_acc_set
                0x0000000010012416                mgr_link_disc
                0x000000001001244a                mgr_le_evt_mask_check
                0x0000000010012464                mgr_le_get_features
                0x00000000100124c0                mgr_le_get_tbox_feat
                0x00000000100124ce                mgr_plan_elt_get
                0x00000000100124dc                mgr_act_get_free
                0x000000001001252c                mgr_act_set_free
 .text          0x000000001001254e      0x680 ..\..\..\libs\ble\libbtstack.a(ll_adv.o)
                0x00000000100125ee                ll_adv_hdl_to_idx
                0x000000001001263e                hci_le_set_adv_param_cmd_func
                0x0000000010012802                hci_le_set_adv_data_cmd_func
                0x00000000100128ce                hci_le_set_scan_rsp_data_cmd_func
                0x000000001001299a                hci_le_set_adv_en_cmd_func
 .text.le.ll_adv.con
                0x0000000010012bce      0x276 ..\..\..\libs\ble\libbtstack.a(ll_adv.o)
                0x0000000010012bce                ble_adv_end_con_ind
 .text.le.ll_adv
                0x0000000010012e44      0x2ea ..\..\..\libs\ble\libbtstack.a(ll_adv.o)
                0x0000000010012e44                ble_adv_end_ind_func
 .text          0x000000001001312e      0x28a ..\..\..\libs\ble\libbtstack.a(ll_tbox_freq_cal.o)
                0x0000000010013212                ll_op_tbox_freq_cal_ind_func
                0x0000000010013246                ll_op_tbox_freq_cal_end_ind_func
                0x0000000010013340                ll_tbox_freq_cal_proc_start
 .text.le.ll_cntl.pdu
                0x00000000100133b8      0x138 ..\..\..\libs\ble\libbtstack.a(ll_tbox_freq_cal.o)
                0x00000000100133b8                ll_tbox_freq_cal_req_func
                0x0000000010013468                ll_tbox_freq_cal_rsp_func
 *fill*         0x00000000100134f0        0x0 
 .text          0x00000000100134f0      0xd3e ..\..\..\libs\ble\libbtstack.a(ll_con_upd.o)
                0x0000000010013e3c                hci_le_con_upd_cmd_func
                0x0000000010013fc6                ll_op_con_upd_ind_func
                0x0000000010014068                ble_con_param_upd_cfm_func
                0x00000000100140e0                ble_con_offset_upd_ind_func
                0x0000000010014132                ll_con_move_cb
 .text.le.ll_cntl.pdu
                0x000000001001422e      0x332 ..\..\..\libs\ble\libbtstack.a(ll_con_upd.o)
                0x000000001001422e                ll_con_update_ind_func
                0x000000001001439e                ll_con_param_req_func
                0x00000000100144c2                ll_con_param_rsp_func
 .text          0x0000000010014560      0x198 ..\..\..\libs\ble\libbtstack.a(ll_cntl.o)
                0x0000000010014560                ble_cntl_rx_ind_func
 .text.le.ll_cntl.pdu
                0x00000000100146f8       0x1a ..\..\..\libs\ble\libbtstack.a(ll_cntl.o)
 .text.le.ll_cntl.send
                0x0000000010014712       0xa2 ..\..\..\libs\ble\libbtstack.a(ll_cntl.o)
                0x0000000010014712                ll_cntl_send
 .text.le.ll_cntl.pdu
                0x00000000100147b4      0x112 ..\..\..\libs\ble\libbtstack.a(ll_clk_acc.o)
                0x00000000100147b4                ll_clk_acc_req_func
                0x000000001001480e                ll_clk_acc_rsp_func
 .text          0x00000000100148c6      0x1b8 ..\..\..\libs\ble\libbtstack.a(ll_chmap_upd.o)
                0x00000000100149ee                ll_op_ch_map_upd_ind_func
                0x0000000010014a56                ble_ch_map_upd_cfm_func
 .text.le.ll_cntl.pdu
                0x0000000010014a7e      0x1da ..\..\..\libs\ble\libbtstack.a(ll_chmap_upd.o)
                0x0000000010014a7e                ll_channel_map_ind_func
                0x0000000010014bae                ll_min_used_channels_ind_func
 .text.le.ll_cntl
                0x0000000010014c58       0x68 ..\..\..\libs\ble\libbtstack.a(ll.o)
                0x0000000010014c58                ll_init
 .text.le.ll_cntl.start
                0x0000000010014cc0      0x238 ..\..\..\libs\ble\libbtstack.a(ll.o)
                0x0000000010014cc0                ll_start
 .text          0x0000000010014ef8       0x28 ..\..\..\libs\ble\libbtstack.a(ble_test.o)
                0x0000000010014ef8                ble_test_init
                0x0000000010014f18                ble_get_test_var
 .text.bb.ble.test.start
                0x0000000010014f20       0x2e ..\..\..\libs\ble\libbtstack.a(ble_test.o)
                0x0000000010014f20                ble_test_start
 .text          0x0000000010014f4e        0x4 ..\..\..\libs\ble\libbtstack.a(ble_sync.o)
                0x0000000010014f4e                ble_get_sync_var
 .text          0x0000000010014f52        0x8 ..\..\..\libs\ble\libbtstack.a(ble_scan.o)
                0x0000000010014f52                ble_get_scan_var
                0x0000000010014f56                ble_get_ssync_var
 .text          0x0000000010014f5a        0x4 ..\..\..\libs\ble\libbtstack.a(ble_init.o)
                0x0000000010014f5a                ble_get_init_var
 .text          0x0000000010014f5e      0x1d0 ..\..\..\libs\ble\libbtstack.a(ble_hal.o)
                0x0000000010014f5e                ble_get_rslv_var
                0x0000000010014f62                ble_hal_init
                0x0000000010015126                ble_ch_assess_data_get
 .text          0x000000001001512e       0x62 ..\..\..\libs\ble\libbtstack.a(ble_adv.o)
                0x000000001001512e                ble_get_adv_var
                0x0000000010015136                ble_adv_init
 .text.stack.l2cap_sig
                0x0000000010015190      0x126 ..\..\..\libs\ble\libbtstack.a(l2cap_signaling.o)
                0x0000000010015190                l2cap_create_signaling_le
 .text.stack.memory
                0x00000000100152b6       0x46 ..\..\..\libs\ble\libbtstack.a(btstack_memory_pool.o)
                0x00000000100152b6                btstack_memory_pool_get
                0x00000000100152c2                btstack_memory_pool_free
                0x00000000100152d6                btstack_memory_pool_create
 .text          0x00000000100152fc       0xb6 ..\..\..\libs\ble\libbtstack.a(vs_proc.o)
 .text.bb.vs.fcc_ble.do
                0x00000000100153b2       0x8a ..\..\..\libs\ble\libbtstack.a(vs_fcc.o)
                0x00000000100153b2                vs_ble_test_do
 .text.bb.vs.fcc
                0x000000001001543c       0xc2 ..\..\..\libs\ble\libbtstack.a(vs_fcc.o)
                0x000000001001543c                vs_ble_test
                0x0000000010015440                vs_fcc_test_cmd
 .text          0x00000000100154fe        0x4 ..\..\..\libs\ble\libbtstack.a(adv_hook.o)
                0x00000000100154fe                ble_adv_end_ind_hook
 .text          0x0000000010015502      0x128 ..\..\..\libs\ble\libbtstack.a(hct_msg.o)
                0x0000000010015502                hci_look_for_cmd_desc
                0x000000001001558c                hci_look_for_evt_desc
                0x00000000100155ce                hci_look_for_dbg_evt_desc
                0x00000000100155e8                hci_look_for_le_evt_desc
 .text          0x000000001001562a      0x220 ..\..\..\libs\ble\libbtstack.a(mgr_test.o)
                0x000000001001564c                ble_test_end_ind_func
                0x000000001001568e                hci_le_rx_test_v1_cmd_func
                0x00000000100156d4                hci_le_tx_test_v1_cmd_func
                0x0000000010015738                hci_le_rx_test_v2_cmd_func
                0x0000000010015798                hci_le_tx_test_v2_cmd_func
                0x000000001001580e                hci_le_test_end_cmd_func
 .text          0x000000001001584a       0x3c ..\..\..\libs\ble\libbtstack.a(mgr_proc.o)
 .text          0x0000000010015886       0x60 ..\..\..\libs\ble\libbtstack.a(ll_version.o)
                0x00000000100158b2                ble_ll_version_get
 .text.le.ll_cntl.pdu
                0x00000000100158e6      0x14e ..\..\..\libs\ble\libbtstack.a(ll_version.o)
                0x00000000100158e6                ll_version_ind_func
 .text          0x0000000010015a34      0x174 ..\..\..\libs\ble\libbtstack.a(ll_tbox_prod_test.o)
                0x0000000010015b00                ll_op_tbox_prod_test_ind_func
                0x0000000010015b34                ll_tbox_prod_test_proc_start
 .text.le.ll_cntl.pdu
                0x0000000010015ba8       0xae ..\..\..\libs\ble\libbtstack.a(ll_tbox_prod_test.o)
                0x0000000010015ba8                ll_tbox_prod_test_req_func
                0x0000000010015c22                ll_tbox_prod_test_rsp_func
 .text          0x0000000010015c56      0x156 ..\..\..\libs\ble\libbtstack.a(ll_tbox_feature.o)
                0x0000000010015cf8                ll_op_tbox_feat_exch_ind_func
                0x0000000010015d2c                ll_tbox_feat_proc_start
 .text.le.ll_cntl.pdu
                0x0000000010015dac      0x190 ..\..\..\libs\ble\libbtstack.a(ll_tbox_feature.o)
                0x0000000010015dac                ll_tbox_feat_req_func
                0x0000000010015eca                ll_tbox_feat_rsp_func
 .text          0x0000000010015f3c      0x2b6 ..\..\..\libs\ble\libbtstack.a(ll_proc.o)
                0x0000000010015f5c                hci_command_ll_func
                0x0000000010015f94                ble_acl_rx_ind_func
                0x0000000010016108                ble_acl_tx_cfm_func
                0x0000000010016118                ll_cmd_cmp_send
                0x000000001001614a                hci_vs_set_pref_slave_latency_cmd_func
                0x00000000100161a0                hci_vs_tbox_prod_test_req_cmd_func
                0x00000000100161ca                ll_cmd_stat_send
 *fill*         0x00000000100161f2        0x2 
 .text          0x00000000100161f4      0xa26 ..\..\..\libs\ble\libbtstack.a(ll_phy_upd.o)
                0x0000000010016aba                ll_op_phy_upd_ind_func
                0x0000000010016b56                ble_phy_upd_cfm_func
                0x0000000010016b96                ll_phy_upd_proc_start
 .text.le.ll_cntl.pdu
                0x0000000010016c1a      0x264 ..\..\..\libs\ble\libbtstack.a(ll_phy_upd.o)
                0x0000000010016c1a                ll_phy_req_func
                0x0000000010016cf0                ll_phy_rsp_func
                0x0000000010016d8a                ll_phy_update_ind_func
 .text          0x0000000010016e7e      0x3ae ..\..\..\libs\ble\libbtstack.a(ll_length.o)
                0x0000000010017122                ll_op_length_upd_ind_func
                0x0000000010017190                ll_length_proc_start_for_param
                0x00000000100171f8                ll_length_proc_start
 .text.le.ll_cntl.pdu
                0x000000001001722c      0x214 ..\..\..\libs\ble\libbtstack.a(ll_length.o)
                0x000000001001722c                ll_length_req_func
                0x000000001001739e                ll_length_rsp_func
 .text          0x0000000010017440      0x292 ..\..\..\libs\ble\libbtstack.a(ll_feature.o)
                0x0000000010017606                ll_op_feats_exch_ind_func
                0x0000000010017682                ll_feature_exchange_proc_start
 .text.le.ll_cntl.pdu
                0x00000000100176d2      0x168 ..\..\..\libs\ble\libbtstack.a(ll_feature.o)
                0x00000000100176d2                ll_feature_req_func
                0x0000000010017746                ll_slave_feature_req_func
                0x00000000100177ba                ll_feature_rsp_func
 *fill*         0x000000001001783a        0x2 
 .text          0x000000001001783c      0x850 ..\..\..\libs\ble\libbtstack.a(ll_encrypt.o)
                0x0000000010017e1e                hci_le_ltk_req_reply_cmd_func
                0x0000000010017e9c                hci_le_ltk_req_neg_reply_cmd_func
                0x0000000010017f36                ll_encrypt_ind_func
                0x0000000010018022                ll_op_encrypt_ind_func
 .text.le.ll_cntl.pdu
                0x000000001001808c      0x348 ..\..\..\libs\ble\libbtstack.a(ll_encrypt.o)
                0x000000001001808c                ll_pause_enc_req_func
                0x0000000010018112                ll_pause_enc_rsp_func
                0x000000001001817e                ll_enc_req_func
                0x0000000010018298                ll_enc_rsp_func
                0x000000001001831e                ll_start_enc_req_func
                0x000000001001837a                ll_start_enc_rsp_func
 .text          0x00000000100183d4      0x128 ..\..\..\libs\ble\libbtstack.a(ll_disconnect.o)
                0x00000000100183d4                ll_stopped_ind_func
                0x000000001001844c                hci_disconnect_cmd_func
 *(.rodata*)
 *fill*         0x00000000100184fc        0x0 
 .rodata.str1.4
                0x00000000100184fc       0x3b Output\obj\driver\driver_lowpwr.o
 *fill*         0x0000000010018537        0x1 
 .rodata.str1.4
                0x0000000010018538      0x142 Output\obj\project\solution\ble_hid_composite\app\app_hid_selfie.o
 *fill*         0x000000001001867a        0x2 
 .rodata.str1.4
                0x000000001001867c       0xef Output\obj\project\solution\ble_hid_composite\app\app_hid_tiktok.o
                                        0x13f (size before relaxing)
 *fill*         0x000000001001876b        0x1 
 .rodata        0x000000001001876c        0x9 Output\obj\project\solution\ble_hid_composite\app\func.o
 .rodata.str1.4
                0x0000000010018775       0xef Output\obj\project\solution\ble_hid_composite\app\func.o
                                          0x4 (size before relaxing)
 .rodata.str1.4
                0x0000000010018775        0x4 Output\obj\project\solution\ble_hid_composite\app\func_bt.o
 *fill*         0x0000000010018775        0x3 
 .rodata        0x0000000010018778        0xa Output\obj\project\solution\ble_hid_composite\app\func_idle.o
 .rodata.str1.4
                0x0000000010018782        0x4 Output\obj\project\solution\ble_hid_composite\app\func_idle.o
 *fill*         0x0000000010018782        0x2 
 .rodata        0x0000000010018784       0x2c Output\obj\project\solution\ble_hid_composite\app\func_lowpwr.o
 .rodata.str1.4
                0x00000000100187b0       0x38 Output\obj\project\solution\ble_hid_composite\app\func_lowpwr.o
                                         0x3c (size before relaxing)
 .rodata.adv    0x00000000100187e8        0xb Output\obj\project\solution\ble_hid_composite\ble\ble_adv.o
                0x00000000100187e8                adv_data_const
 *fill*         0x00000000100187f3        0x1 
 .rodata.str1.4
                0x00000000100187f4       0x54 Output\obj\project\solution\ble_hid_composite\ble\ble_adv.o
 .rodata        0x0000000010018848       0x19 Output\obj\project\solution\ble_hid_composite\ble\ble_battery_service.o
 .rodata.str1.4
                0x0000000010018861        0x4 Output\obj\project\solution\ble_hid_composite\ble\ble_battery_service.o
 *fill*         0x0000000010018861        0x3 
 .rodata        0x0000000010018864       0x10 Output\obj\project\solution\ble_hid_composite\ble\ble_client.o
 .rodata.str1.4
                0x0000000010018874      0x109 Output\obj\project\solution\ble_hid_composite\ble\ble_client.o
                                        0x110 (size before relaxing)
 *fill*         0x000000001001897d        0x3 
 .rodata.fot.auth
                0x0000000010018980        0x7 Output\obj\project\solution\ble_hid_composite\ble\ble_fota_service.o
 *fill*         0x0000000010018987        0x1 
 .rodata.str1.4
                0x0000000010018988       0x5f Output\obj\project\solution\ble_hid_composite\ble\ble_fota_service.o
 *fill*         0x00000000100189e7        0x1 
 .rodata        0x00000000100189e8      0x1a9 Output\obj\project\solution\ble_hid_composite\ble\ble_hid_service.o
                0x00000000100189e8                report_map_ios
                0x0000000010018aec                report_map_android
 *fill*         0x0000000010018b91        0x3 
 .rodata.str1.4
                0x0000000010018b94       0x38 Output\obj\project\solution\ble_hid_composite\ble\ble_hid_service.o
                                         0x3c (size before relaxing)
 .rodata        0x0000000010018bcc      0x208 Output\obj\project\solution\ble_hid_composite\ble\ble_profile.o
                0x0000000010018bcc                profile_data
 .rodata.str1.4
                0x0000000010018dd4       0x12 Output\obj\project\solution\ble_hid_composite\ble\ble_service.o
 *fill*         0x0000000010018de6        0x2 
 .rodata        0x0000000010018de8       0x16 Output\obj\project\solution\ble_hid_composite\ble\ble_user_service.o
 *fill*         0x0000000010018dfe        0x2 
 .rodata.str1.4
                0x0000000010018e00       0x4e Output\obj\project\solution\ble_hid_composite\ble\ble_user_service.o
                                         0x54 (size before relaxing)
 *fill*         0x0000000010018e4e        0x2 
 .rodata.str1.4
                0x0000000010018e50       0x28 Output\obj\project\solution\ble_hid_composite\bsp\bsp_saradc_vbat.o
 .rodata        0x0000000010018e78        0xd Output\obj\project\solution\ble_hid_composite\bsp\bsp_sys.o
 *fill*         0x0000000010018e85        0x3 
 .rodata.str1.4
                0x0000000010018e88       0x5d Output\obj\project\solution\ble_hid_composite\bsp\bsp_sys.o
                                         0x64 (size before relaxing)
 *fill*         0x0000000010018ee5        0x3 
 .rodata.str1.4
                0x0000000010018ee8       0x2c Output\obj\project\solution\ble_hid_composite\main.o
 .rodata        0x0000000010018f14       0x10 Output\obj\project\solution\ble_hid_composite\strong_symbol.o
 .rodata.str1.4
                0x0000000010018f24       0x1e Output\obj\project\solution\ble_hid_composite\strong_symbol.o
 *fill*         0x0000000010018f42        0x2 
 .rodata.str1.4
                0x0000000010018f44       0xfc ..\..\..\libs\cpu\libplatform.a(cm.o)
 .rodata.str1.4
                0x0000000010019040       0x10 ..\..\..\libs\cpu\libplatform.a(main.o)
 .rodata.str1.4
                0x0000000010019050       0x3f ..\..\..\libs\cpu\libplatform.a(startup.o)
 *fill*         0x000000001001908f        0x1 
 .rodata.str1.4
                0x0000000010019090       0x20 ..\..\..\libs\cpu\libplatform.a(pll.o)
 .rodata.str1.4
                0x00000000100190b0       0x45 ..\..\..\libs\cpu\libplatform.a(sys.o)
 *fill*         0x00000000100190f5        0x3 
 .rodata.str1.4
                0x00000000100190f8       0x50 ..\..\..\libs\ble\libbtstack.a(sm.o)
 .rodata        0x0000000010019148       0x64 ..\..\..\libs\ble\libbtstack.a(sm.o)
 .rodata.str1.4
                0x00000000100191ac        0x4 ..\..\..\libs\ble\libbtstack.a(le_device_db_memory.o)
 .rodata        0x00000000100191ac       0x14 ..\..\..\libs\ble\libbtstack.a(gatt_client.o)
 .rodata        0x00000000100191c0       0x10 ..\..\..\libs\ble\libbtstack.a(att_db.o)
 .rodata.stack.api
                0x00000000100191d0       0x90 ..\..\..\libs\ble\libbtstack.a(btstack_api.o)
                0x00000000100191d0                btstack_basic_tbl
                0x00000000100191e0                btstack_ctl_tbl
                0x0000000010019250                btstack_api_tbl
 .rodata.bb.tbl
                0x0000000010019260        0x8 ..\..\..\libs\ble\libbtstack.a(ble_con.o)
                0x0000000010019260                connect_req_dur_tab
 .rodata.bb.tbl
                0x0000000010019268       0x1c ..\..\..\libs\ble\libbtstack.a(ble.o)
                0x0000000010019268                ble_ctl
 .rodata.bb.tbl
                0x0000000010019284       0x10 ..\..\..\libs\ble\libbtstack.a(bb_utils.o)
                0x0000000010019284                null_array
 .rodata.str1.4
                0x0000000010019294       0x21 ..\..\..\libs\ble\libbtstack.a(bb.o)
 *fill*         0x00000000100192b5        0x3 
 .rodata        0x00000000100192b8       0x24 ..\..\..\libs\ble\libbtstack.a(bb.o)
                0x00000000100192b8                bb_hook
 .rodata.stack.l2cap
                0x00000000100192dc        0x2 ..\..\..\libs\ble\libbtstack.a(l2cap.o)
 *fill*         0x00000000100192de        0x2 
 .rodata.str1.4
                0x00000000100192e0       0x9d ..\..\..\libs\ble\libbtstack.a(hci_cmd.o)
                                         0xb5 (size before relaxing)
 *fill*         0x000000001001937d        0x3 
 .rodata.btstakc.hci
                0x0000000010019380        0x8 ..\..\..\libs\ble\libbtstack.a(hci_cmd.o)
                0x0000000010019380                hci_num_of_packet_complete
 .rodata.stack.hci_send
                0x0000000010019388      0x108 ..\..\..\libs\ble\libbtstack.a(hci_cmd.o)
                0x0000000010019388                hci_le_tbox_prod_test_request
                0x0000000010019390                hci_le_set_pref_slave_latency
                0x0000000010019398                hci_le_write_rf_path_compensation
                0x00000000100193a0                hci_le_read_rf_path_compensation
                0x00000000100193a8                hci_le_transmit_power
                0x00000000100193b0                hci_le_read_periodic_adv_list_size
                0x00000000100193b8                hci_le_set_default_phy
                0x00000000100193c0                hci_le_long_term_key_negative_reply
                0x00000000100193c8                hci_le_long_term_key_request_reply
                0x00000000100193d0                hci_le_rand
                0x00000000100193d8                hci_le_encrypt
                0x00000000100193e0                hci_le_connection_update
                0x00000000100193e8                hci_le_add_device_to_per_adv_list
                0x00000000100193f0                hci_le_per_advertising_terminate_sync
                0x00000000100193f8                hci_le_per_advertising_creat_sync_cancel
                0x0000000010019400                hci_le_per_advertising_creat_sync
                0x0000000010019408                hci_ext_creat_connection
                0x0000000010019410                hci_le_set_ext_scan_enable
                0x0000000010019418                hci_le_set_ext_scan_parameters
                0x0000000010019420                hci_le_set_per_advertise_enable
                0x0000000010019428                hci_le_set_per_advertising_data
                0x0000000010019430                hci_le_set_per_advertising_parameters
                0x0000000010019438                hci_le_set_ext_advertise_enable
                0x0000000010019440                hci_le_set_ext_scan_response_data
                0x0000000010019448                hci_le_set_ext_advertising_data
                0x0000000010019450                hci_le_set_ext_advertising_parameters
                0x0000000010019458                hci_le_set_advertise_enable
                0x0000000010019460                hci_le_set_scan_response_data
                0x0000000010019468                hci_le_set_advertising_data
                0x0000000010019470                hci_le_set_advertising_parameters
                0x0000000010019478                hci_le_set_random_address
                0x0000000010019480                hci_le_read_buffer_size
                0x0000000010019488                hci_disconnect
 .rodata.str1.4
                0x0000000010019490       0x57 ..\..\..\libs\ble\libbtstack.a(hci.o)
 *fill*         0x00000000100194e7        0x1 
 .rodata        0x00000000100194e8       0x20 ..\..\..\libs\ble\libbtstack.a(btstack_util.o)
                0x00000000100194f8                bluetooth_base_uuid
 .rodata        0x0000000010019508       0x20 ..\..\..\libs\ble\libbtstack.a(hci_transport_dummy.o)
 .rodata        0x0000000010019528       0x24 ..\..\..\libs\ble\libbtstack.a(bb_sche.o)
 .rodata.bb.tbl
                0x000000001001954c       0x51 ..\..\..\libs\ble\libbtstack.a(rf_mate.o)
 *fill*         0x000000001001959d        0x3 
 .rodata.str1.4
                0x00000000100195a0        0x9 ..\..\..\libs\ble\libbtstack.a(hct_proc.o)
 *fill*         0x00000000100195a9        0x3 
 .rodata        0x00000000100195ac       0x4c ..\..\..\libs\ble\libbtstack.a(hct_proc.o)
 .rodata.le.mgr_cntl.tbl
                0x00000000100195f8       0x68 ..\..\..\libs\ble\libbtstack.a(mgr_hci.o)
                0x00000000100195f8                mgr_hci_cmd_tbl
 .rodata.str1.4
                0x0000000010019660       0x5c ..\..\..\libs\ble\libbtstack.a(ll_cntl.o)
                                         0x60 (size before relaxing)
 .rodata.le.ll_cntl.tbl
                0x00000000100196bc      0x408 ..\..\..\libs\ble\libbtstack.a(ll_cntl.o)
                0x00000000100196bc                ll_cntl_pdu_tbl
 .rodata.str1.4
                0x0000000010019ac4       0x1c ..\..\..\libs\ble\libbtstack.a(l2cap_signaling.o)
                                         0x2a (size before relaxing)
 .rodata        0x0000000010019ae0       0x58 ..\..\..\libs\ble\libbtstack.a(l2cap_signaling.o)
 .rodata        0x0000000010019b38       0x20 ..\..\..\libs\ble\libbtstack.a(vs_proc.o)
 .rodata        0x0000000010019b58       0xdc ..\..\..\libs\ble\libbtstack.a(hct_msg.o)
                0x0000000010019b58                hci_cmd_desc_root_tab
                0x0000000010019b98                hci_evt_desc_tab
                0x0000000010019ba8                hci_evt_le_desc_tab
                0x0000000010019bb8                hci_cmd_desc_tab_vs
                0x0000000010019bc8                hci_cmd_desc_tab_le
                0x0000000010019c14                hci_cmd_desc_tab_stat_par
                0x0000000010019c14                hci_cmd_desc_tab_info_par
                0x0000000010019c20                hci_cmd_desc_tab_ctrl_bb
 .rodata        0x0000000010019c34       0x20 ..\..\..\libs\ble\libbtstack.a(mgr_proc.o)
 .rodata.le.ll_cntl.tbl
                0x0000000010019c54      0x118 ..\..\..\libs\ble\libbtstack.a(ll_proc.o)
                0x0000000010019c54                ll_msg_tbl
                0x0000000010019d3c                ll_hci_cmd_tbl
 *(.srodata*)
 .srodata       0x0000000010019d6c       0x18 ..\..\..\libs\ble\libbtstack.a(mgr.o)
 .srodata       0x0000000010019d84        0x5 ..\..\..\libs\ble\libbtstack.a(ll_adv.o)
 *fill*         0x0000000010019d89        0x3 
 .srodata       0x0000000010019d8c        0x8 ..\..\..\libs\ble\libbtstack.a(hct_msg.o)
                0x0000000010019d8c                hci_evt_dbg_desc_tab
                0x0000000010019d90                hci_cmd_desc_tab_lk_ctrl
 *(.rela*)
 .rela.text.clk_clk32k_rtc_get
                0x0000000010019d94        0x0 Output\obj\driver\driver_clk.o
 .rela.text.clk_saradc_clk_get
                0x0000000010019d94        0x0 Output\obj\driver\driver_clk.o
 .rela.text.clk_clk2m_ks_get
                0x0000000010019d94        0x0 Output\obj\driver\driver_clk.o
 .rela.text.wk0_edge_capture_config
                0x0000000010019d94        0x0 Output\obj\driver\driver_clk.o
 .rela.text.gpio_edge_capture_config
                0x0000000010019d94        0x0 Output\obj\driver\driver_clk.o
 .rela.text.gpio_edge_capture_config_custom
                0x0000000010019d94        0x0 Output\obj\driver\driver_clk.o
 .rela.text.gpio_set_reset_pin
                0x0000000010019d94        0x0 Output\obj\driver\driver_clk.o
 .rela.text.gpio_edge_pic_config
                0x0000000010019d94        0x0 Output\obj\driver\driver_clk.o
 .rela.text.hsuart_init
                0x0000000010019d94        0x0 Output\obj\driver\driver_clk.o
 .rela.text.hsuart_baud_config
                0x0000000010019d94        0x0 Output\obj\driver\driver_clk.o
 .rela.text.hsuart_pic_config
                0x0000000010019d94        0x0 Output\obj\driver\driver_clk.o
 .rela.text.irrx_init
                0x0000000010019d94        0x0 Output\obj\driver\driver_clk.o
 .rela.text.irrx_pic_config
                0x0000000010019d94        0x0 Output\obj\driver\driver_clk.o
 .rela.text.irtx_init
                0x0000000010019d94        0x0 Output\obj\driver\driver_clk.o
 .rela.text.irtx_pic_config
                0x0000000010019d94        0x0 Output\obj\driver\driver_clk.o
 .rela.text.irtx_kick
                0x0000000010019d94        0x0 Output\obj\driver\driver_clk.o
 .rela.text.keyscan_pic_config
                0x0000000010019d94        0x0 Output\obj\driver\driver_clk.o
 .rela.text.ledc_pic_config
                0x0000000010019d94        0x0 Output\obj\driver\driver_clk.o
 .rela.com_pwroff.mode2
                0x0000000010019d94        0x0 Output\obj\driver\driver_clk.o
 .rela.com_sleep.lp_wakeup
                0x0000000010019d94        0x0 Output\obj\driver\driver_clk.o
 .rela.text.lowpwr_get_wakeup_source
                0x0000000010019d94        0x0 Output\obj\driver\driver_clk.o
 .rela.text.lowpwr_wk0_wakeup_config
                0x0000000010019d94        0x0 Output\obj\driver\driver_clk.o
 .rela.text.lowpwr_gpio_wakeup_config
                0x0000000010019d94        0x0 Output\obj\driver\driver_clk.o
 .rela.text.lowpwr_gpio_wakeup_config_custom
                0x0000000010019d94        0x0 Output\obj\driver\driver_clk.o
 .rela.text.lowpwr_wakeup_config
                0x0000000010019d94        0x0 Output\obj\driver\driver_clk.o
 .rela.com_pwroff.mode1
                0x0000000010019d94        0x0 Output\obj\driver\driver_clk.o
 .rela.com_sleep.proc_do
                0x0000000010019d94        0x0 Output\obj\driver\driver_clk.o
 .rela.com_sleep.sleep
                0x0000000010019d94        0x0 Output\obj\driver\driver_clk.o
 .rela.text.tmrp_pic_config
                0x0000000010019d94        0x0 Output\obj\driver\driver_clk.o
 .rela.text.rtc_pic_config
                0x0000000010019d94        0x0 Output\obj\driver\driver_clk.o
 .rela.text.saradc_mic_init
                0x0000000010019d94        0x0 Output\obj\driver\driver_clk.o
 .rela.text.saradc_init
                0x0000000010019d94        0x0 Output\obj\driver\driver_clk.o
 .rela.text.saradc_deinit
                0x0000000010019d94        0x0 Output\obj\driver\driver_clk.o
 .rela.text.saradc_set_baud
                0x0000000010019d94        0x0 Output\obj\driver\driver_clk.o
 .rela.text.saradc_pic_config
                0x0000000010019d94        0x0 Output\obj\driver\driver_clk.o
 .rela.com_periph.saradc.get_data
                0x0000000010019d94        0x0 Output\obj\driver\driver_clk.o
 .rela.text.spi_init
                0x0000000010019d94        0x0 Output\obj\driver\driver_clk.o
 .rela.text.tmr_pic_config
                0x0000000010019d94        0x0 Output\obj\driver\driver_clk.o
 .rela.text.uart_init
                0x0000000010019d94        0x0 Output\obj\driver\driver_clk.o
 .rela.text.uart_pic_config
                0x0000000010019d94        0x0 Output\obj\driver\driver_clk.o
 .rela.text.uart_baud_config
                0x0000000010019d94        0x0 Output\obj\driver\driver_clk.o
 .rela.text.ble_hid_post_msg_by_key
                0x0000000010019d94        0x0 Output\obj\driver\driver_clk.o
 .rela.text.ble_hid_send_touch_cmd_android
                0x0000000010019d94        0x0 Output\obj\driver\driver_clk.o
 .rela.text.ble_hid_send_touch_cmd_ios
                0x0000000010019d94        0x0 Output\obj\driver\driver_clk.o
 .rela.text.ble_hid_send_mouse_cmd
                0x0000000010019d94        0x0 Output\obj\driver\driver_clk.o
 .rela.text.ble_hid_send_consumer_cmd
                0x0000000010019d94        0x0 Output\obj\driver\driver_clk.o
 .rela.text.ble_hid_send_keyboard_cmd
                0x0000000010019d94        0x0 Output\obj\driver\driver_clk.o
 .rela.text.func.msg.hid
                0x0000000010019d94        0x0 Output\obj\driver\driver_clk.o
 .rela.text.ble_hid_event_selfie
                0x0000000010019d94        0x0 Output\obj\driver\driver_clk.o
 .rela.text.ble_hid_event_tiktok
                0x0000000010019d94        0x0 Output\obj\driver\driver_clk.o
 .rela.text.app.proc.func
                0x0000000010019d94        0x0 Output\obj\driver\driver_clk.o
 .rela.text.func.msg
                0x0000000010019d94        0x0 Output\obj\driver\driver_clk.o
 .rela.text.func
                0x0000000010019d94        0x0 Output\obj\driver\driver_clk.o
 .rela.text.app.proc.bt
                0x0000000010019d94        0x0 Output\obj\driver\driver_clk.o
 .rela.text.func.bt
                0x0000000010019d94        0x0 Output\obj\driver\driver_clk.o
 .rela.text.func.idle
                0x0000000010019d94        0x0 Output\obj\driver\driver_clk.o
 .rela.com_text.gpio.isr
                0x0000000010019d94        0x0 Output\obj\driver\driver_clk.o
 .rela.com_sleep.lv2
                0x0000000010019d94        0x0 Output\obj\driver\driver_clk.o
 .rela.com_text.sleep_tick
                0x0000000010019d94        0x0 Output\obj\driver\driver_clk.o
 .rela.text.bsp_gpio_wakeup_config
                0x0000000010019d94        0x0 Output\obj\driver\driver_clk.o
 .rela.text.lowpwr_sleep_wakeup_config
                0x0000000010019d94        0x0 Output\obj\driver\driver_clk.o
 .rela.com_sleep.lowpwr.sleep
                0x0000000010019d94        0x0 Output\obj\driver\driver_clk.o
 .rela.text.lowpwr.deep_sleep_wk
                0x0000000010019d94        0x0 Output\obj\driver\driver_clk.o
 .rela.text.lowpwr.deep_sleep
                0x0000000010019d94        0x0 Output\obj\driver\driver_clk.o
 .rela.text.app.proc.sleep
                0x0000000010019d94        0x0 Output\obj\driver\driver_clk.o
 .rela.text.lowpwr_pwroff_wakeup_config
                0x0000000010019d94        0x0 Output\obj\driver\driver_clk.o
 .rela.text.lowpwr.pwroff
                0x0000000010019d94        0x0 Output\obj\driver\driver_clk.o
 .rela.text.ble_get_scan_data
                0x0000000010019d94        0x0 Output\obj\driver\driver_clk.o
 .rela.text.ble_get_adv_data
                0x0000000010019d94        0x0 Output\obj\driver\driver_clk.o
 .rela.text.ble_adv_param_init
                0x0000000010019d94        0x0 Output\obj\driver\driver_clk.o
 .rela.com_text.timer
                0x0000000010019d94        0x0 Output\obj\driver\driver_clk.o
 .rela.text.ble_alarm_enter_sleep_proc
                0x0000000010019d94        0x0 Output\obj\driver\driver_clk.o
 .rela.text.ble_alarm_exit_sleep_proc
                0x0000000010019d94        0x0 Output\obj\driver\driver_clk.o
 .rela.text.ble_alarm_init
                0x0000000010019d94        0x0 Output\obj\driver\driver_clk.o
 .rela.text.battery_service_read_callback
                0x0000000010019d94        0x0 Output\obj\driver\driver_clk.o
 .rela.text.ble_battery_service_init
                0x0000000010019d94        0x0 Output\obj\driver\driver_clk.o
 .rela.text.ble_battery_service_proc
                0x0000000010019d94        0x0 Output\obj\driver\driver_clk.o
 .rela.text.ble_client_event_callback
                0x0000000010019d94        0x0 Output\obj\driver\driver_clk.o
 .rela.text.ble_client_init
                0x0000000010019d94        0x0 Output\obj\driver\driver_clk.o
 .rela.text.fot.cache
                0x0000000010019d94        0x0 Output\obj\driver\driver_clk.o
 .rela.text.ab_fota_write
                0x0000000010019d94        0x0 Output\obj\driver\driver_clk.o
 .rela.text.ab_fota_get_err
                0x0000000010019d94        0x0 Output\obj\driver\driver_clk.o
 .rela.text.ab_fota_breakpoint_info_read
                0x0000000010019d94        0x0 Output\obj\driver\driver_clk.o
 .rela.text.ab_fota_init
                0x0000000010019d94        0x0 Output\obj\driver\driver_clk.o
 .rela.text.ab_fota_get_curaddr
                0x0000000010019d94        0x0 Output\obj\driver\driver_clk.o
 .rela.text.ab_fota_is_update_success
                0x0000000010019d94        0x0 Output\obj\driver\driver_clk.o
 .rela.text.fot.update
                0x0000000010019d94        0x0 Output\obj\driver\driver_clk.o
 .rela.text.ble_fota_exit
                0x0000000010019d94        0x0 Output\obj\driver\driver_clk.o
 .rela.com_text.fot.update
                0x0000000010019d94        0x0 Output\obj\driver\driver_clk.o
 .rela.text.fota_ble_disconnect_callback
                0x0000000010019d94        0x0 Output\obj\driver\driver_clk.o
 .rela.text.fota_event_callback
                0x0000000010019d94        0x0 Output\obj\driver\driver_clk.o
 .rela.text.fota_write_callback
                0x0000000010019d94        0x0 Output\obj\driver\driver_clk.o
 .rela.text.ble_fota_service_init
                0x0000000010019d94        0x0 Output\obj\driver\driver_clk.o
 .rela.text.app.proc.fot
                0x0000000010019d94        0x0 Output\obj\driver\driver_clk.o
 .rela.text.ble_service_event_callback
                0x0000000010019d94        0x0 Output\obj\driver\driver_clk.o
 .rela.text.ble_service_read_callback
                0x0000000010019d94        0x0 Output\obj\driver\driver_clk.o
 .rela.text.ble_service_write_callback
                0x0000000010019d94        0x0 Output\obj\driver\driver_clk.o
 .rela.text.ble_hid_report_for_handle_kick
                0x0000000010019d94        0x0 Output\obj\driver\driver_clk.o
 .rela.text.ble_hid_service_init
                0x0000000010019d94        0x0 Output\obj\driver\driver_clk.o
 .rela.text.ble_hid_task_enqueue
                0x0000000010019d94        0x0 Output\obj\driver\driver_clk.o
 .rela.text.ble_hid_service_proc
                0x0000000010019d94        0x0 Output\obj\driver\driver_clk.o
 .rela.text.ble_txpkt_init
                0x0000000010019d94        0x0 Output\obj\driver\driver_clk.o
 .rela.text.ble_sm_param_init
                0x0000000010019d94        0x0 Output\obj\driver\driver_clk.o
 .rela.text.ble_periph_init
                0x0000000010019d94        0x0 Output\obj\driver\driver_clk.o
 .rela.text.bsp_ble_init
                0x0000000010019d94        0x0 Output\obj\driver\driver_clk.o
 .rela.text.ble_enter_sleep_proc
                0x0000000010019d94        0x0 Output\obj\driver\driver_clk.o
 .rela.text.ble_exit_sleep_proc
                0x0000000010019d94        0x0 Output\obj\driver\driver_clk.o
 .rela.com_sleep.ble.sleep
                0x0000000010019d94        0x0 Output\obj\driver\driver_clk.o
 .rela.text.app.proc.ble
                0x0000000010019d94        0x0 Output\obj\driver\driver_clk.o
 .rela.text.ble_service_init
                0x0000000010019d94        0x0 Output\obj\driver\driver_clk.o
 .rela.text.user_service_event_callback
                0x0000000010019d94        0x0 Output\obj\driver\driver_clk.o
 .rela.text.user_service_write_callback
                0x0000000010019d94        0x0 Output\obj\driver\driver_clk.o
 .rela.text.user_service_read_callback
                0x0000000010019d94        0x0 Output\obj\driver\driver_clk.o
 .rela.text.ble_user_service_init
                0x0000000010019d94        0x0 Output\obj\driver\driver_clk.o
 .rela.text.bsp_io_key_init
                0x0000000010019d94        0x0 Output\obj\driver\driver_clk.o
 .rela.com_text.key.scan
                0x0000000010019d94        0x0 Output\obj\driver\driver_clk.o
 .rela.text.bsp_key_init
                0x0000000010019d94        0x0 Output\obj\driver\driver_clk.o
 .rela.text.bsp.param
                0x0000000010019d94        0x0 Output\obj\driver\driver_clk.o
 .rela.text.bsp.param.fota
                0x0000000010019d94        0x0 Output\obj\driver\driver_clk.o
 .rela.text.bsp_saradc_init
                0x0000000010019d94        0x0 Output\obj\driver\driver_clk.o
 .rela.com_text.saradc_scan
                0x0000000010019d94        0x0 Output\obj\driver\driver_clk.o
 .rela.text.bsp_vbat_detect_init
                0x0000000010019d94        0x0 Output\obj\driver\driver_clk.o
 .rela.text.vddio_adjust_for_vbat
                0x0000000010019d94        0x0 Output\obj\driver\driver_clk.o
 .rela.text.app.proc.vbat
                0x0000000010019d94        0x0 Output\obj\driver\driver_clk.o
 .rela.text.power_on_vbat_check
                0x0000000010019d94        0x0 Output\obj\driver\driver_clk.o
 .rela.text.sys_ram_info_dump
                0x0000000010019d94        0x0 Output\obj\driver\driver_clk.o
 .rela.text.bsp.sys.init
                0x0000000010019d94        0x0 Output\obj\driver\driver_clk.o
 .rela.text.bsp_periph_init
                0x0000000010019d94        0x0 Output\obj\driver\driver_clk.o
 .rela.text.bsp_uart_debug_init
                0x0000000010019d94        0x0 Output\obj\driver\driver_clk.o
 .rela.text.startup.main
                0x0000000010019d94        0x0 Output\obj\driver\driver_clk.o
 .rela.text.ble_get_local_bd_addr
                0x0000000010019d94        0x0 Output\obj\driver\driver_clk.o
 .rela.text.bt_rf_get_param
                0x0000000010019d94        0x0 Output\obj\driver\driver_clk.o
 .rela.com_sleep.rf.txpwr
                0x0000000010019d94        0x0 Output\obj\driver\driver_clk.o
 .rela.text.ble_get_link_info
                0x0000000010019d94        0x0 Output\obj\driver\driver_clk.o
 .rela.text.ble_put_link_info
                0x0000000010019d94        0x0 Output\obj\driver\driver_clk.o
 .rela.text.thread_create_callback
                0x0000000010019d94        0x0 Output\obj\driver\driver_clk.o
 .rela.text.xosc_get_xcfg
                0x0000000010019d94        0x0 Output\obj\driver\driver_clk.o
 .rela.text.param_xosc_write
                0x0000000010019d94        0x0 Output\obj\driver\driver_clk.o
 .rela.com_text.spiflash
                0x0000000010019d94        0x0 Output\obj\driver\driver_clk.o
 .rela.text.audio_mic_power
                0x0000000010019d94        0x0 Output\obj\driver\driver_clk.o
 .rela.text.audio_mic_analog_init
                0x0000000010019d94        0x0 Output\obj\driver\driver_clk.o
 .rela.text.audio_micdc_trim_step0_init
                0x0000000010019d94        0x0 Output\obj\driver\driver_clk.o
 .rela.text.audio_micdc_trim_step0_waiting
                0x0000000010019d94        0x0 Output\obj\driver\driver_clk.o
 .rela.text.audio_micdc_trim_step0_run
                0x0000000010019d94        0x0 Output\obj\driver\driver_clk.o
 .rela.text.audio_micdc_trim_step1_init
                0x0000000010019d94        0x0 Output\obj\driver\driver_clk.o
 .rela.text.audio_micdc_trim_step1_waiting
                0x0000000010019d94        0x0 Output\obj\driver\driver_clk.o
 .rela.text.audio_micdc_trim_step1_run
                0x0000000010019d94        0x0 Output\obj\driver\driver_clk.o
 .rela.text.micin_config
                0x0000000010019d94        0x0 Output\obj\driver\driver_clk.o
 .rela.text.audio_micin_trim_step0_init
                0x0000000010019d94        0x0 Output\obj\driver\driver_clk.o
 .rela.text.audio_micin_trim_step0_waiting
                0x0000000010019d94        0x0 Output\obj\driver\driver_clk.o
 .rela.text.audio_micin_trim_step1_init
                0x0000000010019d94        0x0 Output\obj\driver\driver_clk.o
 .rela.text.audio_micin_trim_step2_run
                0x0000000010019d94        0x0 Output\obj\driver\driver_clk.o
 .rela.text.audio_mic_trim_proc
                0x0000000010019d94        0x0 Output\obj\driver\driver_clk.o
 .rela.text.cm_loadpage
                0x0000000010019d94        0x0 Output\obj\driver\driver_clk.o
 .rela.text.cm_next_freepage
                0x0000000010019d94        0x0 Output\obj\driver\driver_clk.o
 .rela.text.cm_factory
                0x0000000010019d94        0x0 Output\obj\driver\driver_clk.o
 .rela.text.cm_writepage
                0x0000000010019d94        0x0 Output\obj\driver\driver_clk.o
 .rela.text.cm_movepage
                0x0000000010019d94        0x0 Output\obj\driver\driver_clk.o
 .rela.text.cm_erase
                0x0000000010019d94        0x0 Output\obj\driver\driver_clk.o
 .rela.text.cm_release
                0x0000000010019d94        0x0 Output\obj\driver\driver_clk.o
 .rela.text.cm_savepage
                0x0000000010019d94        0x0 Output\obj\driver\driver_clk.o
 .rela.text.cm_check_loadpage
                0x0000000010019d94        0x0 Output\obj\driver\driver_clk.o
 .rela.text.cm_move_allpages
                0x0000000010019d94        0x0 Output\obj\driver\driver_clk.o
 .rela.text.cm_sync
                0x0000000010019d94        0x0 Output\obj\driver\driver_clk.o
 .rela.text.cm_release_all
                0x0000000010019d94        0x0 Output\obj\driver\driver_clk.o
 .rela.text.cm_read
                0x0000000010019d94        0x0 Output\obj\driver\driver_clk.o
 .rela.text.cm_read8
                0x0000000010019d94        0x0 Output\obj\driver\driver_clk.o
 .rela.text.cm_read16
                0x0000000010019d94        0x0 Output\obj\driver\driver_clk.o
 .rela.text.cm_read32
                0x0000000010019d94        0x0 Output\obj\driver\driver_clk.o
 .rela.text.cm_write
                0x0000000010019d94        0x0 Output\obj\driver\driver_clk.o
 .rela.text.cm_write8
                0x0000000010019d94        0x0 Output\obj\driver\driver_clk.o
 .rela.text.cm_write16
                0x0000000010019d94        0x0 Output\obj\driver\driver_clk.o
 .rela.text.cm_write32
                0x0000000010019d94        0x0 Output\obj\driver\driver_clk.o
 .rela.text.cm_clear
                0x0000000010019d94        0x0 Output\obj\driver\driver_clk.o
 .rela.text.cm_init
                0x0000000010019d94        0x0 Output\obj\driver\driver_clk.o
 .rela.com_text.spiflash.id
                0x0000000010019d94        0x0 Output\obj\driver\driver_clk.o
 .rela.text.xcfg_init
                0x0000000010019d94        0x0 Output\obj\driver\driver_clk.o
 .rela.com_text.delay
                0x0000000010019d94        0x0 Output\obj\driver\driver_clk.o
 .rela.text.platform_main
                0x0000000010019d94        0x0 Output\obj\driver\driver_clk.o
 .rela.text.main_startup
                0x0000000010019d94        0x0 Output\obj\driver\driver_clk.o
 .rela.com_text.irq
                0x0000000010019d94        0x0 Output\obj\driver\driver_clk.o
 .rela.com_text.irq.wpt
                0x0000000010019d94        0x0 Output\obj\driver\driver_clk.o
 .rela.text.sys_irq_init
                0x0000000010019d94        0x0 Output\obj\driver\driver_clk.o
 .rela.text.soft_irq_init
                0x0000000010019d94        0x0 Output\obj\driver\driver_clk.o
 .rela.text.bthw_irq_init
                0x0000000010019d94        0x0 Output\obj\driver\driver_clk.o
 .rela.text.watch_point_set
                0x0000000010019d94        0x0 Output\obj\driver\driver_clk.o
 .rela.text.usb_irq_init
                0x0000000010019d94        0x0 Output\obj\driver\driver_clk.o
 .rela.text.sys_timer_init
                0x0000000010019d94        0x0 Output\obj\driver\driver_clk.o
 .rela.text.thread_timer_create
                0x0000000010019d94        0x0 Output\obj\driver\driver_clk.o
 .rela.text.thread_btstack_create
                0x0000000010019d94        0x0 Output\obj\driver\driver_clk.o
 .rela.text.thread_driver_create
                0x0000000010019d94        0x0 Output\obj\driver\driver_clk.o
 .rela.text.thread_main_entry
                0x0000000010019d94        0x0 Output\obj\driver\driver_clk.o
 .rela.text.startup.init
                0x0000000010019d94        0x0 Output\obj\driver\driver_clk.o
 .rela.com_text.thread.driver.usb
                0x0000000010019d94        0x0 Output\obj\driver\driver_clk.o
 .rela.com_text.thread.driver.vs
                0x0000000010019d94        0x0 Output\obj\driver\driver_clk.o
 .rela.com_text.thread.driver.enter
                0x0000000010019d94        0x0 Output\obj\driver\driver_clk.o
 .rela.text.pll0_vco_band_trimming
                0x0000000010019d94        0x0 Output\obj\driver\driver_clk.o
 .rela.text.pll0_init
                0x0000000010019d94        0x0 Output\obj\driver\driver_clk.o
 .rela.text.pll_ext_init
                0x0000000010019d94        0x0 Output\obj\driver\driver_clk.o
 .rela.com_text.trim.vddio_get
                0x0000000010019d94        0x0 Output\obj\driver\driver_clk.o
 .rela.com_text.trim.vddio_set
                0x0000000010019d94        0x0 Output\obj\driver\driver_clk.o
 .rela.com_text.trim.core_get
                0x0000000010019d94        0x0 Output\obj\driver\driver_clk.o
 .rela.com_text.trim.core_set
                0x0000000010019d94        0x0 Output\obj\driver\driver_clk.o
 .rela.com_text.trim.lvd_get
                0x0000000010019d94        0x0 Output\obj\driver\driver_clk.o
 .rela.com_text.trim.lvd_set
                0x0000000010019d94        0x0 Output\obj\driver\driver_clk.o
 .rela.text.pmu_voltage_configure
                0x0000000010019d94        0x0 Output\obj\driver\driver_clk.o
 .rela.text.pmu_init
                0x0000000010019d94        0x0 Output\obj\driver\driver_clk.o
 .rela.reset    0x0000000010019d94        0x0 Output\obj\driver\driver_clk.o
 .rela.vector   0x0000000010019d94        0x0 Output\obj\driver\driver_clk.o
 .rela.text.lock_code_usbdev
                0x0000000010019d94        0x0 Output\obj\driver\driver_clk.o
 .rela.text.patch_init
                0x0000000010019d94        0x0 Output\obj\driver\driver_clk.o
 .rela.com_sleep.lp.sleep
                0x0000000010019d94        0x0 Output\obj\driver\driver_clk.o
 .rela.text.sys_clk
                0x0000000010019d94        0x0 Output\obj\driver\driver_clk.o
 .rela.com_text.stack.api
                0x0000000010019d94        0x0 Output\obj\driver\driver_clk.o
 .rela.com_text.stack.run_loop
                0x0000000010019d94        0x0 Output\obj\driver\driver_clk.o
 .rela.text     0x0000000010019d94        0x0 Output\obj\driver\driver_clk.o
 .rela.com_text.bt.timer
                0x0000000010019d94        0x0 Output\obj\driver\driver_clk.o
 .rela.com_text.sleep
                0x0000000010019d94        0x0 Output\obj\driver\driver_clk.o
 .rela.com_text.bb.isr
                0x0000000010019d94        0x0 Output\obj\driver\driver_clk.o
 .rela.com_sleep.bb
                0x0000000010019d94        0x0 Output\obj\driver\driver_clk.o
 .rela.text.bb.aes
                0x0000000010019d94        0x0 Output\obj\driver\driver_clk.o
 .rela.text.stack.send.txpkt
                0x0000000010019d94        0x0 Output\obj\driver\driver_clk.o
 .rela.text.txpkt.flush
                0x0000000010019d94        0x0 Output\obj\driver\driver_clk.o
 .rela.text.sm.aes
                0x0000000010019d94        0x0 Output\obj\driver\driver_clk.o
 .rela.text.sm.get_handle
                0x0000000010019d94        0x0 Output\obj\driver\driver_clk.o
 .rela.text.sm.rau_run
                0x0000000010019d94        0x0 Output\obj\driver\driver_clk.o
 .rela.text.gap.rau.update
                0x0000000010019d94        0x0 Output\obj\driver\driver_clk.o
 .rela.text.sm.request
                0x0000000010019d94        0x0 Output\obj\driver\driver_clk.o
 .rela.text.stack.ble.sm
                0x0000000010019d94        0x0 Output\obj\driver\driver_clk.o
 .rela.text.sm.passkey.set
                0x0000000010019d94        0x0 Output\obj\driver\driver_clk.o
 .rela.text.sm.passkey.get
                0x0000000010019d94        0x0 Output\obj\driver\driver_clk.o
 .rela.text.sm.passkey.input
                0x0000000010019d94        0x0 Output\obj\driver\driver_clk.o
 .rela.text.gap.rau.mode
                0x0000000010019d94        0x0 Output\obj\driver\driver_clk.o
 .rela.text.sm.run
                0x0000000010019d94        0x0 Output\obj\driver\driver_clk.o
 .rela.text.sm.pdu
                0x0000000010019d94        0x0 Output\obj\driver\driver_clk.o
 .rela.text.sm.event
                0x0000000010019d94        0x0 Output\obj\driver\driver_clk.o
 .rela.text.gap.rau_set
                0x0000000010019d94        0x0 Output\obj\driver\driver_clk.o
 .rela.text.gap.adv
                0x0000000010019d94        0x0 Output\obj\driver\driver_clk.o
 .rela.text.sm.delete_bonding
                0x0000000010019d94        0x0 Output\obj\driver\driver_clk.o
 .rela.text.le.db.get
                0x0000000010019d94        0x0 Output\obj\driver\driver_clk.o
 .rela.text.le.db.set
                0x0000000010019d94        0x0 Output\obj\driver\driver_clk.o
 .rela.text.le.db.read
                0x0000000010019d94        0x0 Output\obj\driver\driver_clk.o
 .rela.text.le.db.init
                0x0000000010019d94        0x0 Output\obj\driver\driver_clk.o
 .rela.text.le.db.remove
                0x0000000010019d94        0x0 Output\obj\driver\driver_clk.o
 .rela.text.le.db.remove_all
                0x0000000010019d94        0x0 Output\obj\driver\driver_clk.o
 .rela.text.le.db.add
                0x0000000010019d94        0x0 Output\obj\driver\driver_clk.o
 .rela.text.le.db
                0x0000000010019d94        0x0 Output\obj\driver\driver_clk.o
 .rela.text.le.db.dump
                0x0000000010019d94        0x0 Output\obj\driver\driver_clk.o
 .rela.text.stack.send.ntf_do
                0x0000000010019d94        0x0 Output\obj\driver\driver_clk.o
 .rela.text.stack.send.ntf
                0x0000000010019d94        0x0 Output\obj\driver\driver_clk.o
 .rela.text.ble.indicate
                0x0000000010019d94        0x0 Output\obj\driver\driver_clk.o
 .rela.text.stack.send.server
                0x0000000010019d94        0x0 Output\obj\driver\driver_clk.o
 .rela.text.client.request_can_send
                0x0000000010019d94        0x0 Output\obj\driver\driver_clk.o
 .rela.text.client.write_req
                0x0000000010019d94        0x0 Output\obj\driver\driver_clk.o
 .rela.text.sm.client
                0x0000000010019d94        0x0 Output\obj\driver\driver_clk.o
 .rela.text.client.deserialize_service
                0x0000000010019d94        0x0 Output\obj\driver\driver_clk.o
 .rela.text.client.deserialize_characteristic
                0x0000000010019d94        0x0 Output\obj\driver\driver_clk.o
 .rela.text.client.deserialize_characteristic_descriptor
                0x0000000010019d94        0x0 Output\obj\driver\driver_clk.o
 .rela.text.stack.send.client
                0x0000000010019d94        0x0 Output\obj\driver\driver_clk.o
 .rela.text.client.find_services_uuid16
                0x0000000010019d94        0x0 Output\obj\driver\driver_clk.o
 .rela.text.client.find_character_uuid16
                0x0000000010019d94        0x0 Output\obj\driver\driver_clk.o
 .rela.text.client.read_value_uuid16
                0x0000000010019d94        0x0 Output\obj\driver\driver_clk.o
 .rela.text.sm.server
                0x0000000010019d94        0x0 Output\obj\driver\driver_clk.o
 .rela.text.server.init
                0x0000000010019d94        0x0 Output\obj\driver\driver_clk.o
 .rela.text.server.packet_handler
                0x0000000010019d94        0x0 Output\obj\driver\driver_clk.o
 .rela.text.att.event_handler
                0x0000000010019d94        0x0 Output\obj\driver\driver_clk.o
 .rela.text.server.indicate
                0x0000000010019d94        0x0 Output\obj\driver\driver_clk.o
 .rela.text.server.mtu_get
                0x0000000010019d94        0x0 Output\obj\driver\driver_clk.o
 .rela.text.att.register_client
                0x0000000010019d94        0x0 Output\obj\driver\driver_clk.o
 .rela.text.att.register_server
                0x0000000010019d94        0x0 Output\obj\driver\driver_clk.o
 .rela.text.att.dispatch_server
                0x0000000010019d94        0x0 Output\obj\driver\driver_clk.o
 .rela.text.att.dispatch_client
                0x0000000010019d94        0x0 Output\obj\driver\driver_clk.o
 .rela.text.stack.send.dispatch_server
                0x0000000010019d94        0x0 Output\obj\driver\driver_clk.o
 .rela.text.att.dump
                0x0000000010019d94        0x0 Output\obj\driver\driver_clk.o
 .rela.text.att.mtu_request
                0x0000000010019d94        0x0 Output\obj\driver\driver_clk.o
 .rela.text.att_server.mtu_rsp
                0x0000000010019d94        0x0 Output\obj\driver\driver_clk.o
 .rela.text.gatt.get_client_config
                0x0000000010019d94        0x0 Output\obj\driver\driver_clk.o
 .rela.text.ble.hci
                0x0000000010019d94        0x0 Output\obj\driver\driver_clk.o
 .rela.text.stack.setup
                0x0000000010019d94        0x0 Output\obj\driver\driver_clk.o
 .rela.text.stack.api
                0x0000000010019d94        0x0 Output\obj\driver\driver_clk.o
 .rela.text.ble.api.conn.update
                0x0000000010019d94        0x0 Output\obj\driver\driver_clk.o
 .rela.text.ble.api.max_mtu
                0x0000000010019d94        0x0 Output\obj\driver\driver_clk.o
 .rela.text.ble.api.adv_is_en
                0x0000000010019d94        0x0 Output\obj\driver\driver_clk.o
 .rela.text.ble.api.adv_data.set
                0x0000000010019d94        0x0 Output\obj\driver\driver_clk.o
 .rela.text.ble.api.scan
                0x0000000010019d94        0x0 Output\obj\driver\driver_clk.o
 .rela.text.ble.api.adv_interval.set
                0x0000000010019d94        0x0 Output\obj\driver\driver_clk.o
 .rela.text.ble.api.adv.adv_interval.get
                0x0000000010019d94        0x0 Output\obj\driver\driver_clk.o
 .rela.text.ble.api.conn_param.get
                0x0000000010019d94        0x0 Output\obj\driver\driver_clk.o
 .rela.text.ble.api.latency.dis
                0x0000000010019d94        0x0 Output\obj\driver\driver_clk.o
 .rela.text.ble.api.latency.en
                0x0000000010019d94        0x0 Output\obj\driver\driver_clk.o
 .rela.text.ble.api.adv_param.set
                0x0000000010019d94        0x0 Output\obj\driver\driver_clk.o
 .rela.text.ble.api.regist
                0x0000000010019d94        0x0 Output\obj\driver\driver_clk.o
 .rela.text.ble.set_static_addr
                0x0000000010019d94        0x0 Output\obj\driver\driver_clk.o
 .rela.text.ble.single_mode
                0x0000000010019d94        0x0 Output\obj\driver\driver_clk.o
 .rela.text.bb.aes.ecpy
                0x0000000010019d94        0x0 Output\obj\driver\driver_clk.o
 .rela.text.rf.tx_tone
                0x0000000010019d94        0x0 Output\obj\driver\driver_clk.o
 .rela.com_text.ble.isr.con.end
                0x0000000010019d94        0x0 Output\obj\driver\driver_clk.o
 .rela.com_text.ble.isr.con.rx_desc
                0x0000000010019d94        0x0 Output\obj\driver\driver_clk.o
 .rela.com_text.bb.buf
                0x0000000010019d94        0x0 Output\obj\driver\driver_clk.o
 .rela.text.le.stack
                0x0000000010019d94        0x0 Output\obj\driver\driver_clk.o
 .rela.text.ble.var.init
                0x0000000010019d94        0x0 Output\obj\driver\driver_clk.o
 .rela.rodata   0x0000000010019d94        0x0 Output\obj\driver\driver_clk.o
 .rela.text.stk.l2cap.txreq
                0x0000000010019d94        0x0 Output\obj\driver\driver_clk.o
 .rela.text.stack.l2cap
                0x0000000010019d94        0x0 Output\obj\driver\driver_clk.o
 .rela.text.stack.handler.l2cap
                0x0000000010019d94        0x0 Output\obj\driver\driver_clk.o
 .rela.text.stack.l2cap.gap
                0x0000000010019d94        0x0 Output\obj\driver\driver_clk.o
 .rela.text.stack.send.l2cap
                0x0000000010019d94        0x0 Output\obj\driver\driver_clk.o
 .rela.text.stack.l2cap.connectionless
                0x0000000010019d94        0x0 Output\obj\driver\driver_clk.o
 .rela.text.stack.hci_send
                0x0000000010019d94        0x0 Output\obj\driver\driver_clk.o
 .rela.text.stack.hci_init
                0x0000000010019d94        0x0 Output\obj\driver\driver_clk.o
 .rela.text.stack.hci
                0x0000000010019d94        0x0 Output\obj\driver\driver_clk.o
 .rela.text.stack.hci.conn
                0x0000000010019d94        0x0 Output\obj\driver\driver_clk.o
 .rela.text.stack.send.hci
                0x0000000010019d94        0x0 Output\obj\driver\driver_clk.o
 .rela.com_text.stack.hci_recv
                0x0000000010019d94        0x0 Output\obj\driver\driver_clk.o
 .rela.text.stack.h3c
                0x0000000010019d94        0x0 Output\obj\driver\driver_clk.o
 .rela.com_text.stack.h3c
                0x0000000010019d94        0x0 Output\obj\driver\driver_clk.o
 .rela.com_text.stack.util
                0x0000000010019d94        0x0 Output\obj\driver\driver_clk.o
 .rela.text.btstack.hci.h3c.init
                0x0000000010019d94        0x0 Output\obj\driver\driver_clk.o
 .rela.text.stack.ble.setup
                0x0000000010019d94        0x0 Output\obj\driver\driver_clk.o
 .rela.com_text.stack.uart_isr
                0x0000000010019d94        0x0 Output\obj\driver\driver_clk.o
 .rela.text.stack.hal
                0x0000000010019d94        0x0 Output\obj\driver\driver_clk.o
 .rela.com_text.bb.prog
                0x0000000010019d94        0x0 Output\obj\driver\driver_clk.o
 .rela.text.rfphy.other
                0x0000000010019d94        0x0 Output\obj\driver\driver_clk.o
 .rela.com_sleep.rfphy.init
                0x0000000010019d94        0x0 Output\obj\driver\driver_clk.o
 .rela.com_text.ble.isr
                0x0000000010019d94        0x0 Output\obj\driver\driver_clk.o
 .rela.text.le.mgr
                0x0000000010019d94        0x0 Output\obj\driver\driver_clk.o
 .rela.rodata.le.mgr_cntl.tbl
                0x0000000010019d94        0x0 Output\obj\driver\driver_clk.o
 .rela.text.le.ll_adv.con
                0x0000000010019d94        0x0 Output\obj\driver\driver_clk.o
 .rela.text.le.ll_adv
                0x0000000010019d94        0x0 Output\obj\driver\driver_clk.o
 .rela.text.le.ll_cntl.pdu
                0x0000000010019d94        0x0 Output\obj\driver\driver_clk.o
 .rela.com_text.ble.isr.con
                0x0000000010019d94        0x0 Output\obj\driver\driver_clk.o
 .rela.text.le.ll_cntl.send
                0x0000000010019d94        0x0 Output\obj\driver\driver_clk.o
 .rela.rodata.le.ll_cntl.tbl
                0x0000000010019d94        0x0 Output\obj\driver\driver_clk.o
 .rela.text.le.ll_cntl
                0x0000000010019d94        0x0 Output\obj\driver\driver_clk.o
 .rela.text.le.ll_cntl.start
                0x0000000010019d94        0x0 Output\obj\driver\driver_clk.o
 .rela.text.bb.ble.test.start
                0x0000000010019d94        0x0 Output\obj\driver\driver_clk.o
 .rela.text.bb.vs.fcc
                0x0000000010019d94        0x0 Output\obj\driver\driver_clk.o
 .rela.com_rodata.bb.tbl
                0x0000000010019d94        0x0 Output\obj\driver\driver_clk.o
                0x0000000010019d94        0x4 LONG 0x0
                0x0000000010019e00                . = ALIGN (0x200)
 *fill*         0x0000000010019d98       0x68 

.stack          0x0000000000010800      0x400
                0x0000000000010800                __irq_stack_start = .
                0x0000000000000400                . = 0x400
 *fill*         0x0000000000010800      0x400 
                0x0000000000010c00                __irq_stack = .
                0x0000000000000400                __irq_stack_size = (__irq_stack - __irq_stack_start)
                0x0000000000018000                __bank_size = SIZEOF (.flash)
                0x0000000010000200                __comm_lma = LOADADDR (.comm)
                0x0000000000001a00                __comm_size = SIZEOF (.comm)
                0x0000000010001c00                __pdn_comm_lma = LOADADDR (.pdn_comm)
                0x0000000000000200                __pdn_comm_size = SIZEOF (.pdn_comm)
LOAD ..\..\..\libs\cpu\libplatform.a
LOAD ..\..\..\libs\cpu\libm.a
LOAD ..\..\..\libs\cpu\libc.a
LOAD ..\..\..\libs\cpu\libgcc.a
LOAD ..\..\..\libs\ble\libbtstack.a
OUTPUT(Output\bin\app.rv32 elf32-littleriscv)

.comment        0x0000000000000000       0x23
 .comment       0x0000000000000000       0x11 Output\obj\driver\driver_clk.o
                                         0x12 (size before relaxing)
 .comment       0x0000000000000011       0x12 Output\obj\driver\driver_gpio.o
 .comment       0x0000000000000011       0x12 Output\obj\driver\driver_lowpwr.o
 .comment       0x0000000000000011       0x12 Output\obj\driver\driver_saradc.o
 .comment       0x0000000000000011       0x12 Output\obj\driver\driver_uart.o
 .comment       0x0000000000000011       0x12 Output\obj\project\solution\ble_hid_composite\app\app_hid_event.o
 .comment       0x0000000000000011       0x12 Output\obj\project\solution\ble_hid_composite\app\app_hid_selfie.o
 .comment       0x0000000000000011       0x12 Output\obj\project\solution\ble_hid_composite\app\app_hid_tiktok.o
 .comment       0x0000000000000011       0x12 Output\obj\project\solution\ble_hid_composite\app\func.o
 .comment       0x0000000000000011       0x12 Output\obj\project\solution\ble_hid_composite\app\func_bt.o
 .comment       0x0000000000000011       0x12 Output\obj\project\solution\ble_hid_composite\app\func_idle.o
 .comment       0x0000000000000011       0x12 Output\obj\project\solution\ble_hid_composite\app\func_lowpwr.o
 .comment       0x0000000000000011       0x12 Output\obj\project\solution\ble_hid_composite\ble\ble_adv.o
 .comment       0x0000000000000011       0x12 Output\obj\project\solution\ble_hid_composite\ble\ble_alarm.o
 .comment       0x0000000000000011       0x12 Output\obj\project\solution\ble_hid_composite\ble\ble_battery_service.o
 .comment       0x0000000000000011       0x12 Output\obj\project\solution\ble_hid_composite\ble\ble_client.o
 .comment       0x0000000000000011       0x12 Output\obj\project\solution\ble_hid_composite\ble\ble_fota_service.o
 .comment       0x0000000000000011       0x12 Output\obj\project\solution\ble_hid_composite\ble\ble_hid_service.o
 .comment       0x0000000000000011       0x12 Output\obj\project\solution\ble_hid_composite\ble\ble_init.o
 .comment       0x0000000000000011       0x12 Output\obj\project\solution\ble_hid_composite\ble\ble_proc.o
 .comment       0x0000000000000011       0x12 Output\obj\project\solution\ble_hid_composite\ble\ble_profile.o
 .comment       0x0000000000000011       0x12 Output\obj\project\solution\ble_hid_composite\ble\ble_service.o
 .comment       0x0000000000000011       0x12 Output\obj\project\solution\ble_hid_composite\ble\ble_user_service.o
 .comment       0x0000000000000011       0x12 Output\obj\project\solution\ble_hid_composite\bsp\bsp_io_key.o
 .comment       0x0000000000000011       0x12 Output\obj\project\solution\ble_hid_composite\bsp\bsp_key.o
 .comment       0x0000000000000011       0x12 Output\obj\project\solution\ble_hid_composite\bsp\bsp_param.o
 .comment       0x0000000000000011       0x12 Output\obj\project\solution\ble_hid_composite\bsp\bsp_saradc.o
 .comment       0x0000000000000011       0x12 Output\obj\project\solution\ble_hid_composite\bsp\bsp_saradc_vbat.o
 .comment       0x0000000000000011       0x12 Output\obj\project\solution\ble_hid_composite\bsp\bsp_sys.o
 .comment       0x0000000000000011       0x12 Output\obj\project\solution\ble_hid_composite\bsp\bsp_uart_debug.o
 .comment       0x0000000000000011       0x12 Output\obj\project\solution\ble_hid_composite\main.o
 .comment       0x0000000000000011       0x12 Output\obj\project\solution\ble_hid_composite\prod_test\prod_test.o
 .comment       0x0000000000000011       0x12 Output\obj\project\solution\ble_hid_composite\strong_ble.o
 .comment       0x0000000000000011       0x12 Output\obj\project\solution\ble_hid_composite\strong_symbol.o
 .comment       0x0000000000000011       0x12 ..\..\..\libs\cpu\libplatform.a(cm.o)
                                         0x13 (size before relaxing)
 .comment       0x0000000000000023       0x13 ..\..\..\libs\cpu\libplatform.a(os_flash.o)
 .comment       0x0000000000000023       0x13 ..\..\..\libs\cpu\libplatform.a(xcfg.o)
 .comment       0x0000000000000023       0x13 ..\..\..\libs\cpu\libplatform.a(main.o)
 .comment       0x0000000000000023       0x13 ..\..\..\libs\cpu\libplatform.a(interrupt.o)
 .comment       0x0000000000000023       0x13 ..\..\..\libs\cpu\libplatform.a(startup.o)
 .comment       0x0000000000000023       0x13 ..\..\..\libs\cpu\libplatform.a(sys_hook.o)
 .comment       0x0000000000000023       0x13 ..\..\..\libs\cpu\libplatform.a(pll.o)
 .comment       0x0000000000000023       0x13 ..\..\..\libs\cpu\libplatform.a(pmu.o)
 .comment       0x0000000000000023       0x13 ..\..\..\libs\cpu\libplatform.a(debug.o)
 .comment       0x0000000000000023       0x13 ..\..\..\libs\cpu\libplatform.a(fot_pack.o)
 .comment       0x0000000000000023       0x13 ..\..\..\libs\cpu\libplatform.a(key.o)
 .comment       0x0000000000000023       0x13 ..\..\..\libs\cpu\libplatform.a(lock.o)
 .comment       0x0000000000000023       0x13 ..\..\..\libs\cpu\libplatform.a(patch.o)
 .comment       0x0000000000000023       0x13 ..\..\..\libs\cpu\libplatform.a(sleep.o)
 .comment       0x0000000000000023       0x13 ..\..\..\libs\cpu\libplatform.a(sys.o)
 .comment       0x0000000000000023       0x13 ..\..\..\libs\cpu\libplatform.a(sys_clk.o)
 .comment       0x0000000000000023       0x13 ..\..\..\libs\cpu\libplatform.a(voltage_trim.o)
 .comment       0x0000000000000023       0x13 ..\..\..\libs\cpu\libplatform.a(weak_symbol.o)
 .comment       0x0000000000000023       0x13 ..\..\..\libs\cpu\libplatform.a(bt.o)
 .comment       0x0000000000000023       0x13 ..\..\..\libs\cpu\libplatform.a(freq_det.o)
 .comment       0x0000000000000023       0x13 ..\..\..\libs\ble\libbtstack.a(bb_api.o)
 .comment       0x0000000000000023       0x13 ..\..\..\libs\ble\libbtstack.a(bb_int.o)
 .comment       0x0000000000000023       0x13 ..\..\..\libs\ble\libbtstack.a(bb_alarm.o)
 .comment       0x0000000000000023       0x13 ..\..\..\libs\ble\libbtstack.a(txpkt.o)
 .comment       0x0000000000000023       0x13 ..\..\..\libs\ble\libbtstack.a(sm.o)
 .comment       0x0000000000000023       0x13 ..\..\..\libs\ble\libbtstack.a(le_device_db_memory.o)
 .comment       0x0000000000000023       0x13 ..\..\..\libs\ble\libbtstack.a(gatt_server.o)
 .comment       0x0000000000000023       0x13 ..\..\..\libs\ble\libbtstack.a(gatt_client.o)
 .comment       0x0000000000000023       0x13 ..\..\..\libs\ble\libbtstack.a(att_server.o)
 .comment       0x0000000000000023       0x13 ..\..\..\libs\ble\libbtstack.a(att_dispatch.o)
 .comment       0x0000000000000023       0x13 ..\..\..\libs\ble\libbtstack.a(att_db.o)
 .comment       0x0000000000000023       0x13 ..\..\..\libs\ble\libbtstack.a(btstack_api.o)
 .comment       0x0000000000000023       0x13 ..\..\..\libs\ble\libbtstack.a(ble_api.o)
 .comment       0x0000000000000023       0x13 ..\..\..\libs\ble\libbtstack.a(txpkt.o)
 .comment       0x0000000000000023       0x13 ..\..\..\libs\ble\libbtstack.a(aes.o)
 .comment       0x0000000000000023       0x13 ..\..\..\libs\ble\libbtstack.a(extern.o)
 .comment       0x0000000000000023       0x13 ..\..\..\libs\ble\libbtstack.a(rf.o)
 .comment       0x0000000000000023       0x13 ..\..\..\libs\ble\libbtstack.a(hct_tl.o)
 .comment       0x0000000000000023       0x13 ..\..\..\libs\ble\libbtstack.a(ble_con.o)
 .comment       0x0000000000000023       0x13 ..\..\..\libs\ble\libbtstack.a(ble_buf.o)
 .comment       0x0000000000000023       0x13 ..\..\..\libs\ble\libbtstack.a(ble.o)
 .comment       0x0000000000000023       0x13 ..\..\..\libs\ble\libbtstack.a(bb_utils.o)
 .comment       0x0000000000000023       0x13 ..\..\..\libs\ble\libbtstack.a(bb_sleep.o)
 .comment       0x0000000000000023       0x13 ..\..\..\libs\ble\libbtstack.a(bb.o)
 .comment       0x0000000000000023       0x13 ..\..\..\libs\ble\libbtstack.a(platform.o)
 .comment       0x0000000000000023       0x13 ..\..\..\libs\ble\libbtstack.a(extern_ble.o)
 .comment       0x0000000000000023       0x13 ..\..\..\libs\ble\libbtstack.a(l2cap.o)
 .comment       0x0000000000000023       0x13 ..\..\..\libs\ble\libbtstack.a(hci_dump.o)
 .comment       0x0000000000000023       0x13 ..\..\..\libs\ble\libbtstack.a(hci_cmd.o)
 .comment       0x0000000000000023       0x13 ..\..\..\libs\ble\libbtstack.a(hci.o)
 .comment       0x0000000000000023       0x13 ..\..\..\libs\ble\libbtstack.a(btstack_util.o)
 .comment       0x0000000000000023       0x13 ..\..\..\libs\ble\libbtstack.a(btstack_run_loop.o)
 .comment       0x0000000000000023       0x13 ..\..\..\libs\ble\libbtstack.a(btstack_memory.o)
 .comment       0x0000000000000023       0x13 ..\..\..\libs\ble\libbtstack.a(hci_transport_h3_controller.o)
 .comment       0x0000000000000023       0x13 ..\..\..\libs\ble\libbtstack.a(hci_transport_dummy.o)
 .comment       0x0000000000000023       0x13 ..\..\..\libs\ble\libbtstack.a(btstack_main.o)
 .comment       0x0000000000000023       0x13 ..\..\..\libs\ble\libbtstack.a(btstack_hal.o)
 .comment       0x0000000000000023       0x13 ..\..\..\libs\ble\libbtstack.a(nanos.o)
 .comment       0x0000000000000023       0x13 ..\..\..\libs\ble\libbtstack.a(bb_sche.o)
 .comment       0x0000000000000023       0x13 ..\..\..\libs\ble\libbtstack.a(patch.o)
 .comment       0x0000000000000023       0x13 ..\..\..\libs\ble\libbtstack.a(bb_dbg.o)
 .comment       0x0000000000000023       0x13 ..\..\..\libs\ble\libbtstack.a(bb_clk.o)
 .comment       0x0000000000000023       0x13 ..\..\..\libs\ble\libbtstack.a(vs.o)
 .comment       0x0000000000000023       0x13 ..\..\..\libs\ble\libbtstack.a(rf_mate.o)
 .comment       0x0000000000000023       0x13 ..\..\..\libs\ble\libbtstack.a(ble_hook.o)
 .comment       0x0000000000000023       0x13 ..\..\..\libs\ble\libbtstack.a(hct_proc.o)
 .comment       0x0000000000000023       0x13 ..\..\..\libs\ble\libbtstack.a(hct.o)
 .comment       0x0000000000000023       0x13 ..\..\..\libs\ble\libbtstack.a(mgr_hci.o)
 .comment       0x0000000000000023       0x13 ..\..\..\libs\ble\libbtstack.a(mgr.o)
 .comment       0x0000000000000023       0x13 ..\..\..\libs\ble\libbtstack.a(ll_adv.o)
 .comment       0x0000000000000023       0x13 ..\..\..\libs\ble\libbtstack.a(ll_tbox_freq_cal.o)
 .comment       0x0000000000000023       0x13 ..\..\..\libs\ble\libbtstack.a(ll_con_upd.o)
 .comment       0x0000000000000023       0x13 ..\..\..\libs\ble\libbtstack.a(ll_cntl.o)
 .comment       0x0000000000000023       0x13 ..\..\..\libs\ble\libbtstack.a(ll_clk_acc.o)
 .comment       0x0000000000000023       0x13 ..\..\..\libs\ble\libbtstack.a(ll_chmap_upd.o)
 .comment       0x0000000000000023       0x13 ..\..\..\libs\ble\libbtstack.a(ll.o)
 .comment       0x0000000000000023       0x13 ..\..\..\libs\ble\libbtstack.a(ble_test.o)
 .comment       0x0000000000000023       0x13 ..\..\..\libs\ble\libbtstack.a(ble_sync.o)
 .comment       0x0000000000000023       0x13 ..\..\..\libs\ble\libbtstack.a(ble_scan.o)
 .comment       0x0000000000000023       0x13 ..\..\..\libs\ble\libbtstack.a(ble_init.o)
 .comment       0x0000000000000023       0x13 ..\..\..\libs\ble\libbtstack.a(ble_hal.o)
 .comment       0x0000000000000023       0x13 ..\..\..\libs\ble\libbtstack.a(ble_adv.o)
 .comment       0x0000000000000023       0x13 ..\..\..\libs\ble\libbtstack.a(l2cap_signaling.o)
 .comment       0x0000000000000023       0x13 ..\..\..\libs\ble\libbtstack.a(btstack_memory_pool.o)
 .comment       0x0000000000000023       0x13 ..\..\..\libs\ble\libbtstack.a(platform.o)
 .comment       0x0000000000000023       0x13 ..\..\..\libs\ble\libbtstack.a(vs_proc.o)
 .comment       0x0000000000000023       0x13 ..\..\..\libs\ble\libbtstack.a(vs_fcc.o)
 .comment       0x0000000000000023       0x13 ..\..\..\libs\ble\libbtstack.a(adv_hook.o)
 .comment       0x0000000000000023       0x13 ..\..\..\libs\ble\libbtstack.a(hct_msg.o)
 .comment       0x0000000000000023       0x13 ..\..\..\libs\ble\libbtstack.a(mgr_test.o)
 .comment       0x0000000000000023       0x13 ..\..\..\libs\ble\libbtstack.a(mgr_proc.o)
 .comment       0x0000000000000023       0x13 ..\..\..\libs\ble\libbtstack.a(ll_version.o)
 .comment       0x0000000000000023       0x13 ..\..\..\libs\ble\libbtstack.a(ll_tbox_prod_test.o)
 .comment       0x0000000000000023       0x13 ..\..\..\libs\ble\libbtstack.a(ll_tbox_feature.o)
 .comment       0x0000000000000023       0x13 ..\..\..\libs\ble\libbtstack.a(ll_proc.o)
 .comment       0x0000000000000023       0x13 ..\..\..\libs\ble\libbtstack.a(ll_phy_upd.o)
 .comment       0x0000000000000023       0x13 ..\..\..\libs\ble\libbtstack.a(ll_length.o)
 .comment       0x0000000000000023       0x13 ..\..\..\libs\ble\libbtstack.a(ll_feature.o)
 .comment       0x0000000000000023       0x13 ..\..\..\libs\ble\libbtstack.a(ll_encrypt.o)
 .comment       0x0000000000000023       0x13 ..\..\..\libs\ble\libbtstack.a(ll_disconnect.o)

.riscv.attributes
                0x0000000000000000     0x144e
 .riscv.attributes
                0x0000000000000000       0x32 ..\..\..\libs\cpu\libplatform.a(cm.o)
 .riscv.attributes
                0x0000000000000032       0x32 ..\..\..\libs\cpu\libplatform.a(os_flash.o)
 .riscv.attributes
                0x0000000000000064       0x32 ..\..\..\libs\cpu\libplatform.a(xcfg.o)
 .riscv.attributes
                0x0000000000000096       0x32 ..\..\..\libs\cpu\libplatform.a(main.o)
 .riscv.attributes
                0x00000000000000c8       0x32 ..\..\..\libs\cpu\libplatform.a(interrupt.o)
 .riscv.attributes
                0x00000000000000fa       0x32 ..\..\..\libs\cpu\libplatform.a(startup.o)
 .riscv.attributes
                0x000000000000012c       0x32 ..\..\..\libs\cpu\libplatform.a(sys_hook.o)
 .riscv.attributes
                0x000000000000015e       0x32 ..\..\..\libs\cpu\libplatform.a(pll.o)
 .riscv.attributes
                0x0000000000000190       0x32 ..\..\..\libs\cpu\libplatform.a(pmu.o)
 .riscv.attributes
                0x00000000000001c2       0x34 ..\..\..\libs\cpu\libplatform.a(reset.o)
 .riscv.attributes
                0x00000000000001f6       0x32 ..\..\..\libs\cpu\libplatform.a(debug.o)
 .riscv.attributes
                0x0000000000000228       0x32 ..\..\..\libs\cpu\libplatform.a(fot_pack.o)
 .riscv.attributes
                0x000000000000025a       0x32 ..\..\..\libs\cpu\libplatform.a(key.o)
 .riscv.attributes
                0x000000000000028c       0x32 ..\..\..\libs\cpu\libplatform.a(lock.o)
 .riscv.attributes
                0x00000000000002be       0x32 ..\..\..\libs\cpu\libplatform.a(patch.o)
 .riscv.attributes
                0x00000000000002f0       0x30 ..\..\..\libs\cpu\libplatform.a(s_sys.o)
 .riscv.attributes
                0x0000000000000320       0x32 ..\..\..\libs\cpu\libplatform.a(sleep.o)
 .riscv.attributes
                0x0000000000000352       0x32 ..\..\..\libs\cpu\libplatform.a(sys.o)
 .riscv.attributes
                0x0000000000000384       0x32 ..\..\..\libs\cpu\libplatform.a(sys_clk.o)
 .riscv.attributes
                0x00000000000003b6       0x32 ..\..\..\libs\cpu\libplatform.a(voltage_trim.o)
 .riscv.attributes
                0x00000000000003e8       0x32 ..\..\..\libs\cpu\libplatform.a(weak_symbol.o)
 .riscv.attributes
                0x000000000000041a       0x32 ..\..\..\libs\cpu\libplatform.a(bt.o)
 .riscv.attributes
                0x000000000000044c       0x32 ..\..\..\libs\cpu\libplatform.a(freq_det.o)
 .riscv.attributes
                0x000000000000047e       0x32 ..\..\..\libs\ble\libbtstack.a(bb_api.o)
 .riscv.attributes
                0x00000000000004b0       0x32 ..\..\..\libs\ble\libbtstack.a(bb_int.o)
 .riscv.attributes
                0x00000000000004e2       0x32 ..\..\..\libs\ble\libbtstack.a(bb_alarm.o)
 .riscv.attributes
                0x0000000000000514       0x32 ..\..\..\libs\ble\libbtstack.a(txpkt.o)
 .riscv.attributes
                0x0000000000000546       0x32 ..\..\..\libs\ble\libbtstack.a(sm.o)
 .riscv.attributes
                0x0000000000000578       0x32 ..\..\..\libs\ble\libbtstack.a(le_device_db_memory.o)
 .riscv.attributes
                0x00000000000005aa       0x32 ..\..\..\libs\ble\libbtstack.a(gatt_server.o)
 .riscv.attributes
                0x00000000000005dc       0x32 ..\..\..\libs\ble\libbtstack.a(gatt_client.o)
 .riscv.attributes
                0x000000000000060e       0x32 ..\..\..\libs\ble\libbtstack.a(att_server.o)
 .riscv.attributes
                0x0000000000000640       0x32 ..\..\..\libs\ble\libbtstack.a(att_dispatch.o)
 .riscv.attributes
                0x0000000000000672       0x32 ..\..\..\libs\ble\libbtstack.a(att_db.o)
 .riscv.attributes
                0x00000000000006a4       0x32 ..\..\..\libs\ble\libbtstack.a(btstack_api.o)
 .riscv.attributes
                0x00000000000006d6       0x32 ..\..\..\libs\ble\libbtstack.a(ble_api.o)
 .riscv.attributes
                0x0000000000000708       0x32 ..\..\..\libs\ble\libbtstack.a(txpkt.o)
 .riscv.attributes
                0x000000000000073a       0x32 ..\..\..\libs\ble\libbtstack.a(aes.o)
 .riscv.attributes
                0x000000000000076c       0x32 ..\..\..\libs\ble\libbtstack.a(extern.o)
 .riscv.attributes
                0x000000000000079e       0x32 ..\..\..\libs\ble\libbtstack.a(rf.o)
 .riscv.attributes
                0x00000000000007d0       0x32 ..\..\..\libs\ble\libbtstack.a(hct_tl.o)
 .riscv.attributes
                0x0000000000000802       0x32 ..\..\..\libs\ble\libbtstack.a(ble_con.o)
 .riscv.attributes
                0x0000000000000834       0x32 ..\..\..\libs\ble\libbtstack.a(ble_buf.o)
 .riscv.attributes
                0x0000000000000866       0x32 ..\..\..\libs\ble\libbtstack.a(ble.o)
 .riscv.attributes
                0x0000000000000898       0x32 ..\..\..\libs\ble\libbtstack.a(bb_utils.o)
 .riscv.attributes
                0x00000000000008ca       0x32 ..\..\..\libs\ble\libbtstack.a(bb_sleep.o)
 .riscv.attributes
                0x00000000000008fc       0x32 ..\..\..\libs\ble\libbtstack.a(bb.o)
 .riscv.attributes
                0x000000000000092e       0x32 ..\..\..\libs\ble\libbtstack.a(platform.o)
 .riscv.attributes
                0x0000000000000960       0x32 ..\..\..\libs\ble\libbtstack.a(extern_ble.o)
 .riscv.attributes
                0x0000000000000992       0x32 ..\..\..\libs\ble\libbtstack.a(l2cap.o)
 .riscv.attributes
                0x00000000000009c4       0x32 ..\..\..\libs\ble\libbtstack.a(hci_dump.o)
 .riscv.attributes
                0x00000000000009f6       0x32 ..\..\..\libs\ble\libbtstack.a(hci_cmd.o)
 .riscv.attributes
                0x0000000000000a28       0x32 ..\..\..\libs\ble\libbtstack.a(hci.o)
 .riscv.attributes
                0x0000000000000a5a       0x32 ..\..\..\libs\ble\libbtstack.a(btstack_util.o)
 .riscv.attributes
                0x0000000000000a8c       0x32 ..\..\..\libs\ble\libbtstack.a(btstack_run_loop.o)
 .riscv.attributes
                0x0000000000000abe       0x32 ..\..\..\libs\ble\libbtstack.a(btstack_memory.o)
 .riscv.attributes
                0x0000000000000af0       0x32 ..\..\..\libs\ble\libbtstack.a(hci_transport_h3_controller.o)
 .riscv.attributes
                0x0000000000000b22       0x32 ..\..\..\libs\ble\libbtstack.a(hci_transport_dummy.o)
 .riscv.attributes
                0x0000000000000b54       0x32 ..\..\..\libs\ble\libbtstack.a(btstack_main.o)
 .riscv.attributes
                0x0000000000000b86       0x32 ..\..\..\libs\ble\libbtstack.a(btstack_hal.o)
 .riscv.attributes
                0x0000000000000bb8       0x32 ..\..\..\libs\ble\libbtstack.a(nanos.o)
 .riscv.attributes
                0x0000000000000bea       0x32 ..\..\..\libs\ble\libbtstack.a(bb_sche.o)
 .riscv.attributes
                0x0000000000000c1c       0x32 ..\..\..\libs\ble\libbtstack.a(patch.o)
 .riscv.attributes
                0x0000000000000c4e       0x32 ..\..\..\libs\ble\libbtstack.a(bb_dbg.o)
 .riscv.attributes
                0x0000000000000c80       0x32 ..\..\..\libs\ble\libbtstack.a(bb_clk.o)
 .riscv.attributes
                0x0000000000000cb2       0x32 ..\..\..\libs\ble\libbtstack.a(vs.o)
 .riscv.attributes
                0x0000000000000ce4       0x32 ..\..\..\libs\ble\libbtstack.a(rf_mate.o)
 .riscv.attributes
                0x0000000000000d16       0x32 ..\..\..\libs\ble\libbtstack.a(ble_hook.o)
 .riscv.attributes
                0x0000000000000d48       0x32 ..\..\..\libs\ble\libbtstack.a(hct_proc.o)
 .riscv.attributes
                0x0000000000000d7a       0x32 ..\..\..\libs\ble\libbtstack.a(hct.o)
 .riscv.attributes
                0x0000000000000dac       0x32 ..\..\..\libs\ble\libbtstack.a(mgr_hci.o)
 .riscv.attributes
                0x0000000000000dde       0x32 ..\..\..\libs\ble\libbtstack.a(mgr.o)
 .riscv.attributes
                0x0000000000000e10       0x32 ..\..\..\libs\ble\libbtstack.a(ll_adv.o)
 .riscv.attributes
                0x0000000000000e42       0x32 ..\..\..\libs\ble\libbtstack.a(ll_tbox_freq_cal.o)
 .riscv.attributes
                0x0000000000000e74       0x32 ..\..\..\libs\ble\libbtstack.a(ll_con_upd.o)
 .riscv.attributes
                0x0000000000000ea6       0x32 ..\..\..\libs\ble\libbtstack.a(ll_cntl.o)
 .riscv.attributes
                0x0000000000000ed8       0x32 ..\..\..\libs\ble\libbtstack.a(ll_clk_acc.o)
 .riscv.attributes
                0x0000000000000f0a       0x32 ..\..\..\libs\ble\libbtstack.a(ll_chmap_upd.o)
 .riscv.attributes
                0x0000000000000f3c       0x32 ..\..\..\libs\ble\libbtstack.a(ll.o)
 .riscv.attributes
                0x0000000000000f6e       0x32 ..\..\..\libs\ble\libbtstack.a(ble_test.o)
 .riscv.attributes
                0x0000000000000fa0       0x32 ..\..\..\libs\ble\libbtstack.a(ble_sync.o)
 .riscv.attributes
                0x0000000000000fd2       0x32 ..\..\..\libs\ble\libbtstack.a(ble_scan.o)
 .riscv.attributes
                0x0000000000001004       0x32 ..\..\..\libs\ble\libbtstack.a(ble_init.o)
 .riscv.attributes
                0x0000000000001036       0x32 ..\..\..\libs\ble\libbtstack.a(ble_hal.o)
 .riscv.attributes
                0x0000000000001068       0x32 ..\..\..\libs\ble\libbtstack.a(ble_adv.o)
 .riscv.attributes
                0x000000000000109a       0x32 ..\..\..\libs\ble\libbtstack.a(l2cap_signaling.o)
 .riscv.attributes
                0x00000000000010cc       0x32 ..\..\..\libs\ble\libbtstack.a(btstack_memory_pool.o)
 .riscv.attributes
                0x00000000000010fe       0x30 ..\..\..\libs\ble\libbtstack.a(patch_asm.o)
 .riscv.attributes
                0x000000000000112e       0x32 ..\..\..\libs\ble\libbtstack.a(platform.o)
 .riscv.attributes
                0x0000000000001160       0x32 ..\..\..\libs\ble\libbtstack.a(vs_proc.o)
 .riscv.attributes
                0x0000000000001192       0x32 ..\..\..\libs\ble\libbtstack.a(vs_fcc.o)
 .riscv.attributes
                0x00000000000011c4       0x32 ..\..\..\libs\ble\libbtstack.a(adv_hook.o)
 .riscv.attributes
                0x00000000000011f6       0x32 ..\..\..\libs\ble\libbtstack.a(hct_msg.o)
 .riscv.attributes
                0x0000000000001228       0x32 ..\..\..\libs\ble\libbtstack.a(mgr_test.o)
 .riscv.attributes
                0x000000000000125a       0x32 ..\..\..\libs\ble\libbtstack.a(mgr_proc.o)
 .riscv.attributes
                0x000000000000128c       0x32 ..\..\..\libs\ble\libbtstack.a(ll_version.o)
 .riscv.attributes
                0x00000000000012be       0x32 ..\..\..\libs\ble\libbtstack.a(ll_tbox_prod_test.o)
 .riscv.attributes
                0x00000000000012f0       0x32 ..\..\..\libs\ble\libbtstack.a(ll_tbox_feature.o)
 .riscv.attributes
                0x0000000000001322       0x32 ..\..\..\libs\ble\libbtstack.a(ll_proc.o)
 .riscv.attributes
                0x0000000000001354       0x32 ..\..\..\libs\ble\libbtstack.a(ll_phy_upd.o)
 .riscv.attributes
                0x0000000000001386       0x32 ..\..\..\libs\ble\libbtstack.a(ll_length.o)
 .riscv.attributes
                0x00000000000013b8       0x32 ..\..\..\libs\ble\libbtstack.a(ll_feature.o)
 .riscv.attributes
                0x00000000000013ea       0x32 ..\..\..\libs\ble\libbtstack.a(ll_encrypt.o)
 .riscv.attributes
                0x000000000000141c       0x32 ..\..\..\libs\ble\libbtstack.a(ll_disconnect.o)
