Archive member included to satisfy reference by file (symbol)

..\..\libs\cpu\libplatform.a(audio_mic.o)
                              Output\obj\driver\driver_saradc.o (audio_mic_analog_init)
..\..\libs\cpu\libplatform.a(audio_mic_trim.o)
                              ..\..\libs\cpu\libplatform.a(audio_mic.o) (audio_mic_trim_sta_set)
..\..\libs\cpu\libplatform.a(cm.o)
                              Output\obj\project\ble_peripheral\bsp\bsp_param.o (cm_sync)
..\..\libs\cpu\libplatform.a(os_flash.o)
                              ..\..\libs\cpu\libplatform.a(cm.o) (os_spiflash_program)
..\..\libs\cpu\libplatform.a(xcfg.o)
                              Output\obj\project\ble_peripheral\bsp\bsp_sys.o (xcfg_init)
..\..\libs\cpu\libplatform.a(main.o)
                              Output\obj\driver\driver_lowpwr.o (delay_us)
..\..\libs\cpu\libplatform.a(interrupt.o)
                              Output\obj\driver\driver_gpio.o (sys_irq_init)
..\..\libs\cpu\libplatform.a(startup.o)
                              ..\..\libs\cpu\libplatform.a(interrupt.o) (soft_timer_isr_en)
..\..\libs\cpu\libplatform.a(sys_hook.o)
                              ..\..\libs\cpu\libplatform.a(startup.o) (sys_hook_init)
..\..\libs\cpu\libplatform.a(thread_driver.o)
                              ..\..\libs\cpu\libplatform.a(startup.o) (thread_driver_entry)
..\..\libs\cpu\libplatform.a(pll.o)
                              ..\..\libs\cpu\libplatform.a(main.o) (pll0_disable)
..\..\libs\cpu\libplatform.a(pmu.o)
                              Output\obj\driver\driver_lowpwr.o (pmu_get_vddcore)
..\..\libs\cpu\libplatform.a(reset.o)
                              (_start)
..\..\libs\cpu\libplatform.a(context.o)
                              Output\obj\driver\driver_lowpwr.o (lp_sleep)
..\..\libs\cpu\libplatform.a(debug.o)
                              ..\..\libs\cpu\libplatform.a(reset.o) (exception_isr)
..\..\libs\cpu\libplatform.a(fot_pack.o)
                              Output\obj\project\ble_peripheral\ble\ble_fota_service.o (ota_pack_init)
..\..\libs\cpu\libplatform.a(lock.o)
                              ..\..\libs\cpu\libplatform.a(main.o) (lock_init)
..\..\libs\cpu\libplatform.a(patch.o)
                              ..\..\libs\cpu\libplatform.a(main.o) (patch_init)
..\..\libs\cpu\libplatform.a(s_sys.o)
                              ..\..\libs\cpu\libplatform.a(startup.o) (dummy_func)
..\..\libs\cpu\libplatform.a(sleep.o)
                              Output\obj\driver\driver_lowpwr.o (lowpwr_sleep_sfr_save)
..\..\libs\cpu\libplatform.a(sys.o)
                              Output\obj\project\ble_peripheral\main.o (sys_rst_init)
..\..\libs\cpu\libplatform.a(sys_clk.o)
                              Output\obj\project\ble_peripheral\ble\ble_fota_service.o (sys_clk_get_cur)
..\..\libs\cpu\libplatform.a(voltage_trim.o)
                              ..\..\libs\cpu\libplatform.a(pll.o) (sys_trim)
..\..\libs\cpu\libplatform.a(weak_symbol.o)
                              ..\..\libs\cpu\libplatform.a(main.o) (xosc_24m_div_get)
..\..\libs\cpu\libplatform.a(bt.o)
                              ..\..\libs\cpu\libplatform.a(startup.o) (thread_btstack_entry)
..\..\libs\cpu\libplatform.a(freq_det.o)
                              ..\..\libs\cpu\libplatform.a(sleep.o) (freq_det_kick)
..\..\libs\ble\libbtstack.a(bb_api.o)
                              Output\obj\project\ble_peripheral\ble\ble_alarm.o (ble_alarm_timer_init)
..\..\libs\ble\libbtstack.a(bb_int.o)
                              ..\..\libs\ble\libbtstack.a(bb_api.o) (bb_sleep)
..\..\libs\ble\libbtstack.a(bb_alarm.o)
                              ..\..\libs\ble\libbtstack.a(bb_api.o) (bb_timer_queue_check)
..\..\libs\ble\libbtstack.a(txpkt.o)
                              Output\obj\project\ble_peripheral\ble\ble_init.o (txpkt_init)
..\..\libs\ble\libbtstack.a(sm.o)
                              Output\obj\project\ble_peripheral\ble\ble_init.o (ble_sm_init)
..\..\libs\ble\libbtstack.a(le_device_db_memory.o)
                              ..\..\libs\ble\libbtstack.a(sm.o) (le_device_db_count)
..\..\libs\ble\libbtstack.a(gatt_server.o)
                              Output\obj\project\ble_peripheral\ble\ble_fota_service.o (ble_notify_for_handle)
..\..\libs\ble\libbtstack.a(gatt_client.o)
                              ..\..\libs\ble\libbtstack.a(gatt_server.o) (att_client_request_can_send_now_event)
..\..\libs\ble\libbtstack.a(att_server.o)
                              Output\obj\project\ble_peripheral\ble\ble_fota_service.o (att_server_register_service_handler)
..\..\libs\ble\libbtstack.a(att_dispatch.o)
                              ..\..\libs\ble\libbtstack.a(gatt_client.o) (att_dispatch_register_client)
..\..\libs\ble\libbtstack.a(att_db.o)
                              ..\..\libs\ble\libbtstack.a(att_server.o) (att_set_db)
..\..\libs\ble\libbtstack.a(btstack_api.o)
                              Output\obj\project\ble_peripheral\ble\ble_init.o (btstack_init)
..\..\libs\ble\libbtstack.a(ble_api.o)
                              ..\..\libs\ble\libbtstack.a(btstack_api.o) (ble_msg_free_prepare)
..\..\libs\ble\libbtstack.a(txpkt.o)
                              ..\..\libs\ble\libbtstack.a(txpkt.o) (txpkt_mem_init)
..\..\libs\ble\libbtstack.a(aes.o)
                              ..\..\libs\ble\libbtstack.a(bb_int.o) (aes_result_handler)
..\..\libs\ble\libbtstack.a(extern.o)
                              ..\..\libs\ble\libbtstack.a(bb_int.o) (sys_sleep_cb)
..\..\libs\ble\libbtstack.a(rf.o)
                              ..\..\libs\ble\libbtstack.a(bb_int.o) (rf_sleep)
..\..\libs\ble\libbtstack.a(hct_tl.o)
                              ..\..\libs\ble\libbtstack.a(bb_int.o) (hct_queue_is_empty)
..\..\libs\ble\libbtstack.a(ble_con.o)
                              ..\..\libs\ble\libbtstack.a(btstack_api.o) (ble_get_con_rssi)
..\..\libs\ble\libbtstack.a(ble_buf.o)
                              ..\..\libs\ble\libbtstack.a(ble_api.o) (ble_msg_malloc)
..\..\libs\ble\libbtstack.a(ble.o)
                              ..\..\libs\ble\libbtstack.a(bb_int.o) (ble_isr)
..\..\libs\ble\libbtstack.a(bb_utils.o)
                              ..\..\libs\ble\libbtstack.a(ble_con.o) (bb_sca2ppm)
..\..\libs\ble\libbtstack.a(bb_sleep.o)
                              ..\..\libs\ble\libbtstack.a(bb_int.o) (bb_sleep_suspend)
..\..\libs\ble\libbtstack.a(bb.o)
                              ..\..\libs\ble\libbtstack.a(ble.o) (bb_rand_init)
..\..\libs\ble\libbtstack.a(platform.o)
                              ..\..\libs\ble\libbtstack.a(bb.o) (dummy_void)
..\..\libs\ble\libbtstack.a(extern_ble.o)
                              ..\..\libs\ble\libbtstack.a(le_device_db_memory.o) (ble_sync_link_info)
..\..\libs\ble\libbtstack.a(l2cap.o)
                              ..\..\libs\ble\libbtstack.a(btstack_api.o) (gap_request_connection_parameter_update)
..\..\libs\ble\libbtstack.a(hci_dump.o)
                              ..\..\libs\ble\libbtstack.a(btstack_api.o) (hci_dump_open)
..\..\libs\ble\libbtstack.a(hci_cmd.o)
                              ..\..\libs\ble\libbtstack.a(sm.o) (hci_le_long_term_key_negative_reply)
..\..\libs\ble\libbtstack.a(hci.o)
                              ..\..\libs\ble\libbtstack.a(sm.o) (hci_get_state)
..\..\libs\ble\libbtstack.a(btstack_util.o)
                              ..\..\libs\ble\libbtstack.a(hci.o) (bd_addr_copy)
..\..\libs\ble\libbtstack.a(btstack_run_loop.o)
                              ..\..\libs\ble\libbtstack.a(sm.o) (btstack_run_loop_set_timer_handler)
..\..\libs\ble\libbtstack.a(btstack_memory.o)
                              ..\..\libs\ble\libbtstack.a(gatt_client.o) (btstack_memory_gatt_client_get)
..\..\libs\ble\libbtstack.a(hci_transport_h3_controller.o)
                              ..\..\libs\ble\libbtstack.a(btstack_run_loop.o) (hci_is_sleep)
..\..\libs\ble\libbtstack.a(hci_transport_dummy.o)
                              ..\..\libs\ble\libbtstack.a(btstack_api.o) (hci_iodm_init)
..\..\libs\ble\libbtstack.a(btstack_main.o)
                              ..\..\libs\ble\libbtstack.a(ble_api.o) (btstack_ble_set_init_callback)
..\..\libs\ble\libbtstack.a(btstack_hal.o)
                              ..\..\libs\ble\libbtstack.a(btstack_run_loop.o) (hal_tick_init)
..\..\libs\ble\libbtstack.a(nanos.o)
                              ..\..\libs\ble\libbtstack.a(bb.o) (nanos_init)
..\..\libs\ble\libbtstack.a(bb_sche.o)
                              ..\..\libs\ble\libbtstack.a(bb.o) (bb_sche_init)
..\..\libs\ble\libbtstack.a(patch.o)
                              ..\..\libs\ble\libbtstack.a(bb.o) (bb_patch_dummy)
..\..\libs\ble\libbtstack.a(bb_dbg.o)
                              ..\..\libs\ble\libbtstack.a(bb.o) (bb_dbg_init)
..\..\libs\ble\libbtstack.a(bb_clk.o)
                              ..\..\libs\ble\libbtstack.a(bb.o) (bb_lpcycles_2_hus_hook)
..\..\libs\ble\libbtstack.a(vs.o)
                              ..\..\libs\ble\libbtstack.a(bb.o) (vs_init)
..\..\libs\ble\libbtstack.a(rf_mate.o)
                              ..\..\libs\ble\libbtstack.a(rf.o) (rfphy_sw_ctrl)
..\..\libs\ble\libbtstack.a(ble_hook.o)
                              ..\..\libs\ble\libbtstack.a(bb.o) (ble_isr_hook)
..\..\libs\ble\libbtstack.a(hct_proc.o)
                              ..\..\libs\ble\libbtstack.a(hci.o) (hct_register_handler_evt)
..\..\libs\ble\libbtstack.a(hct.o)
                              ..\..\libs\ble\libbtstack.a(bb.o) (hct_init)
..\..\libs\ble\libbtstack.a(mgr_hci.o)
                              ..\..\libs\ble\libbtstack.a(hci.o) (hci_le_rd_buff_size)
..\..\libs\ble\libbtstack.a(mgr.o)
                              ..\..\libs\ble\libbtstack.a(mgr_hci.o) (mgr_cmd_cmp_send)
..\..\libs\ble\libbtstack.a(ll_adv.o)
                              ..\..\libs\ble\libbtstack.a(mgr_hci.o) (hci_le_set_adv_param_cmd_func)
..\..\libs\ble\libbtstack.a(ll_tbox_freq_cal.o)
                              ..\..\libs\ble\libbtstack.a(ble_con.o) (ll_tbox_freq_cal)
..\..\libs\ble\libbtstack.a(ll_con_upd.o)
                              ..\..\libs\ble\libbtstack.a(ll_adv.o) (ll_con_move_cb)
..\..\libs\ble\libbtstack.a(ll_cntl.o)
                              ..\..\libs\ble\libbtstack.a(ll_tbox_freq_cal.o) (ll_cntl_send)
..\..\libs\ble\libbtstack.a(ll_clk_acc.o)
                              ..\..\libs\ble\libbtstack.a(ll_cntl.o) (ll_clk_acc_req_func)
..\..\libs\ble\libbtstack.a(ll_chmap_upd.o)
                              ..\..\libs\ble\libbtstack.a(ll_cntl.o) (ll_channel_map_ind_func)
..\..\libs\ble\libbtstack.a(ll.o)
                              ..\..\libs\ble\libbtstack.a(ble.o) (ll_init)
..\..\libs\ble\libbtstack.a(ble_test.o)
                              ..\..\libs\ble\libbtstack.a(ble.o) (ble_get_test_var)
..\..\libs\ble\libbtstack.a(ble_sync.o)
                              ..\..\libs\ble\libbtstack.a(ble.o) (ble_get_sync_var)
..\..\libs\ble\libbtstack.a(ble_scan.o)
                              ..\..\libs\ble\libbtstack.a(ble.o) (ble_get_scan_var)
..\..\libs\ble\libbtstack.a(ble_init.o)
                              ..\..\libs\ble\libbtstack.a(ble.o) (ble_get_init_var)
..\..\libs\ble\libbtstack.a(ble_hal.o)
                              ..\..\libs\ble\libbtstack.a(ble.o) (ble_get_rslv_var)
..\..\libs\ble\libbtstack.a(ble_adv.o)
                              ..\..\libs\ble\libbtstack.a(ble.o) (ble_get_adv_var)
..\..\libs\ble\libbtstack.a(periph.o)
                              ..\..\libs\ble\libbtstack.a(btstack_hal.o) (bt_uart_init)
..\..\libs\ble\libbtstack.a(l2cap_signaling.o)
                              ..\..\libs\ble\libbtstack.a(l2cap.o) (l2cap_create_signaling_le)
..\..\libs\ble\libbtstack.a(btstack_memory_pool.o)
                              ..\..\libs\ble\libbtstack.a(btstack_memory.o) (btstack_memory_pool_get)
..\..\libs\ble\libbtstack.a(patch_asm.o)
                              ..\..\libs\ble\libbtstack.a(patch.o) (bb_patch2)
..\..\libs\ble\libbtstack.a(platform.o)
                              ..\..\libs\ble\libbtstack.a(ble_hook.o) (bb_ll_tx_cb)
..\..\libs\ble\libbtstack.a(vs_proc.o)
                              ..\..\libs\ble\libbtstack.a(vs.o) (vs_env)
..\..\libs\ble\libbtstack.a(vs_fcc.o)
                              ..\..\libs\ble\libbtstack.a(vs_proc.o) (vs_fcc_test_cmd)
..\..\libs\ble\libbtstack.a(adv_hook.o)
                              ..\..\libs\ble\libbtstack.a(ll_adv.o) (ble_adv_end_ind_hook)
..\..\libs\ble\libbtstack.a(hct_msg.o)
                              ..\..\libs\ble\libbtstack.a(hct.o) (hci_look_for_cmd_desc)
..\..\libs\ble\libbtstack.a(mgr_test.o)
                              ..\..\libs\ble\libbtstack.a(mgr_hci.o) (hci_le_rx_test_v1_cmd_func)
..\..\libs\ble\libbtstack.a(mgr_proc.o)
                              ..\..\libs\ble\libbtstack.a(mgr.o) (mgr_msg_env)
..\..\libs\ble\libbtstack.a(ll_version.o)
                              ..\..\libs\ble\libbtstack.a(ll_cntl.o) (ll_version_ind_func)
..\..\libs\ble\libbtstack.a(ll_tbox_prod_test.o)
                              ..\..\libs\ble\libbtstack.a(ll_cntl.o) (ll_tbox_prod_test_req_func)
..\..\libs\ble\libbtstack.a(ll_tbox_feature.o)
                              ..\..\libs\ble\libbtstack.a(ll_cntl.o) (ll_tbox_feat_req_func)
..\..\libs\ble\libbtstack.a(ll_proc.o)
                              ..\..\libs\ble\libbtstack.a(ll_con_upd.o) (ll_cmd_stat_send)
..\..\libs\ble\libbtstack.a(ll_phy_upd.o)
                              ..\..\libs\ble\libbtstack.a(ll_cntl.o) (ll_phy_req_func)
..\..\libs\ble\libbtstack.a(ll_length.o)
                              ..\..\libs\ble\libbtstack.a(ll_cntl.o) (ll_length_req_func)
..\..\libs\ble\libbtstack.a(ll_feature.o)
                              ..\..\libs\ble\libbtstack.a(ll_cntl.o) (ll_feature_req_func)
..\..\libs\ble\libbtstack.a(ll_encrypt.o)
                              ..\..\libs\ble\libbtstack.a(ll_cntl.o) (ll_pause_enc_req_func)
..\..\libs\ble\libbtstack.a(ll_disconnect.o)
                              ..\..\libs\ble\libbtstack.a(ll_proc.o) (ll_stopped_ind_func)

Allocating common symbols
Common symbol       size              file

tmr5ms_cnt          0x2               Output\obj\project\ble_peripheral\bsp\bsp_sys.o
fot_var             0x22              Output\obj\project\ble_peripheral\ble\ble_fota_service.o
ble_user_cb         0xc4              Output\obj\project\ble_peripheral\ble\ble_user_service.o
alarm_handle        0x4               Output\obj\project\ble_peripheral\ble\ble_alarm.o
xcfg_cb             0x33              Output\obj\project\ble_peripheral\bsp\bsp_sys.o

Discarded input sections

 .text          0x0000000000000000        0x0 Output\obj\driver\driver_clk.o
 .data          0x0000000000000000        0x0 Output\obj\driver\driver_clk.o
 .bss           0x0000000000000000        0x0 Output\obj\driver\driver_clk.o
 .text.clk_gate1_cmd
                0x0000000000000000       0x16 Output\obj\driver\driver_clk.o
 .text.clk_clkout_set
                0x0000000000000000       0x4e Output\obj\driver\driver_clk.o
 .text.clk_clk32k_rtc_set
                0x0000000000000000       0x28 Output\obj\driver\driver_clk.o
 .text.clk_clk32k_rtc_get
                0x0000000000000000       0x46 Output\obj\driver\driver_clk.o
 .text.clk_hsut0_clk_set
                0x0000000000000000       0x18 Output\obj\driver\driver_clk.o
 .text.clk_hsut0_clk_get
                0x0000000000000000       0x1e Output\obj\driver\driver_clk.o
 .text.clk_saradc_clk_set
                0x0000000000000000       0x18 Output\obj\driver\driver_clk.o
 .text.clk_saradc_clk_get
                0x0000000000000000       0x3e Output\obj\driver\driver_clk.o
 .text.clk_uart_clk_set
                0x0000000000000000       0x16 Output\obj\driver\driver_clk.o
 .text.clk_uart_clk_get
                0x0000000000000000       0x32 Output\obj\driver\driver_clk.o
 .text.clk_clk2m_ks_set
                0x0000000000000000       0x2e Output\obj\driver\driver_clk.o
 .text.clk_clk2m_ks_get
                0x0000000000000000       0x3e Output\obj\driver\driver_clk.o
 .text.clk_ledc_clk_set
                0x0000000000000000       0x18 Output\obj\driver\driver_clk.o
 .text.clk_ledc_clk_get
                0x0000000000000000       0x24 Output\obj\driver\driver_clk.o
 .text.clk_irtx_mod_clk_set
                0x0000000000000000       0x16 Output\obj\driver\driver_clk.o
 .text.clk_irtx_mod_clk_get
                0x0000000000000000       0x24 Output\obj\driver\driver_clk.o
 .text.clk_irrx_clk_set
                0x0000000000000000       0x16 Output\obj\driver\driver_clk.o
 .text.clk_irtx_clk_set
                0x0000000000000000        0x8 Output\obj\driver\driver_clk.o
 .text.clk_irrx_clk_get
                0x0000000000000000       0x34 Output\obj\driver\driver_clk.o
 .text.clk_irtx_clk_get
                0x0000000000000000        0x8 Output\obj\driver\driver_clk.o
 .rodata        0x0000000000000000       0x20 Output\obj\driver\driver_clk.o
 .text          0x0000000000000000        0x0 Output\obj\driver\driver_gpio.o
 .data          0x0000000000000000        0x0 Output\obj\driver\driver_gpio.o
 .bss           0x0000000000000000        0x0 Output\obj\driver\driver_gpio.o
 .text.gpio_deinit
                0x0000000000000000       0x10 Output\obj\driver\driver_gpio.o
 .com_periph.gpio.dir
                0x0000000000000000       0x12 Output\obj\driver\driver_gpio.o
 .com_periph.gpio.set
                0x0000000000000000        0x4 Output\obj\driver\driver_gpio.o
 .com_periph.gpio.write
                0x0000000000000000        0x4 Output\obj\driver\driver_gpio.o
 .com_periph.gpio.toggle
                0x0000000000000000        0x8 Output\obj\driver\driver_gpio.o
 .com_periph.gpio.read_data
                0x0000000000000000        0x8 Output\obj\driver\driver_gpio.o
 .com_periph.gpio.read_bit
                0x0000000000000000        0xa Output\obj\driver\driver_gpio.o
 .text.gpio_func_mapping_clear
                0x0000000000000000       0x7e Output\obj\driver\driver_gpio.o
 .com_periph.wk0.read_bit
                0x0000000000000000        0xa Output\obj\driver\driver_gpio.o
 .text.gpio_edge_capture_config_custom
                0x0000000000000000      0x116 Output\obj\driver\driver_gpio.o
 .text.gpio_set_reset_pin
                0x0000000000000000       0x4c Output\obj\driver\driver_gpio.o
 .text.gpio_get_edge_pin
                0x0000000000000000        0x8 Output\obj\driver\driver_gpio.o
 .com_periph.gpio.rise.src
                0x0000000000000000        0x8 Output\obj\driver\driver_gpio.o
 .com_periph.gpio.fall.src
                0x0000000000000000        0xc Output\obj\driver\driver_gpio.o
 .com_periph.gpio.pending_clr
                0x0000000000000000        0xc Output\obj\driver\driver_gpio.o
 .com_periph.gpio.pending_is
                0x0000000000000000       0x12 Output\obj\driver\driver_gpio.o
 .text.gpio_edge_pic_config
                0x0000000000000000       0x54 Output\obj\driver\driver_gpio.o
 .text          0x0000000000000000        0x0 Output\obj\driver\driver_hsuart.o
 .data          0x0000000000000000        0x0 Output\obj\driver\driver_hsuart.o
 .bss           0x0000000000000000        0x0 Output\obj\driver\driver_hsuart.o
 .text.hsuart_init
                0x0000000000000000       0xa0 Output\obj\driver\driver_hsuart.o
 .text.hsuart_deinit
                0x0000000000000000       0x14 Output\obj\driver\driver_hsuart.o
 .text.hsuart_cmd
                0x0000000000000000       0x16 Output\obj\driver\driver_hsuart.o
 .com_periph.hsuart.send
                0x0000000000000000       0x1a Output\obj\driver\driver_hsuart.o
 .com_periph.hsuart.recv
                0x0000000000000000        0xa Output\obj\driver\driver_hsuart.o
 .com_periph.hsuart.receive_data
                0x0000000000000000       0x44 Output\obj\driver\driver_hsuart.o
 .com_periph.hsuart.fifo_get
                0x0000000000000000        0xa Output\obj\driver\driver_hsuart.o
 .text.hsuart_clear_fifo_counter
                0x0000000000000000        0xe Output\obj\driver\driver_hsuart.o
 .text.hsuart_baud_config
                0x0000000000000000       0x2c Output\obj\driver\driver_hsuart.o
 .text.hsuart_pic_config
                0x0000000000000000       0x92 Output\obj\driver\driver_hsuart.o
 .com_periph.hsuart.get_flag
                0x0000000000000000       0x3e Output\obj\driver\driver_hsuart.o
 .com_periph.hsuart.clear
                0x0000000000000000       0x38 Output\obj\driver\driver_hsuart.o
 .text.hsuart_rx_idle_config
                0x0000000000000000       0x1e Output\obj\driver\driver_hsuart.o
 .com_periph.hsuart.dma
                0x0000000000000000       0x20 Output\obj\driver\driver_hsuart.o
 .com_periph.hsuart.stop
                0x0000000000000000       0x18 Output\obj\driver\driver_hsuart.o
 .com_periph.hsuart.hfc
                0x0000000000000000       0x32 Output\obj\driver\driver_hsuart.o
 .comment       0x0000000000000000       0x12 Output\obj\driver\driver_hsuart.o
 .text          0x0000000000000000        0x0 Output\obj\driver\driver_keyscan.o
 .data          0x0000000000000000        0x0 Output\obj\driver\driver_keyscan.o
 .bss           0x0000000000000000        0x0 Output\obj\driver\driver_keyscan.o
 .text.keyscan_init
                0x0000000000000000       0xde Output\obj\driver\driver_keyscan.o
 .text.keyscan_deinit
                0x0000000000000000        0xc Output\obj\driver\driver_keyscan.o
 .com_periph.keyscan.en_ctrl
                0x0000000000000000       0x16 Output\obj\driver\driver_keyscan.o
 .text.keyscan_pic_config
                0x0000000000000000       0x3a Output\obj\driver\driver_keyscan.o
 .com_periph.keyscan.flag
                0x0000000000000000       0x44 Output\obj\driver\driver_keyscan.o
 .com_periph.keyscan.query
                0x0000000000000000       0xca Output\obj\driver\driver_keyscan.o
 .com_periph.keyscan.lowpwr_mode
                0x0000000000000000        0xc Output\obj\driver\driver_keyscan.o
 .comment       0x0000000000000000       0x12 Output\obj\driver\driver_keyscan.o
 .text          0x0000000000000000        0x0 Output\obj\driver\driver_ledc.o
 .data          0x0000000000000000        0x0 Output\obj\driver\driver_ledc.o
 .bss           0x0000000000000000        0x0 Output\obj\driver\driver_ledc.o
 .text.ledc_init
                0x0000000000000000       0x3c Output\obj\driver\driver_ledc.o
 .text.ledc_timing_init
                0x0000000000000000       0x5c Output\obj\driver\driver_ledc.o
 .text.ledc_deinit
                0x0000000000000000       0x20 Output\obj\driver\driver_ledc.o
 .text.ledc_cmd
                0x0000000000000000       0x16 Output\obj\driver\driver_ledc.o
 .com_periph.ledc.transport
                0x0000000000000000       0x20 Output\obj\driver\driver_ledc.o
 .text.ledc_pic_config
                0x0000000000000000       0x44 Output\obj\driver\driver_ledc.o
 .com_periph.ledc.flag
                0x0000000000000000       0x42 Output\obj\driver\driver_ledc.o
 .text.ledc_set_frame_length
                0x0000000000000000        0xe Output\obj\driver\driver_ledc.o
 .text.ledc_set_loop_number
                0x0000000000000000        0xc Output\obj\driver\driver_ledc.o
 .text.ledc_get_frame_length
                0x0000000000000000       0x10 Output\obj\driver\driver_ledc.o
 .text.ledc_get_loop_number
                0x0000000000000000        0xc Output\obj\driver\driver_ledc.o
 .comment       0x0000000000000000       0x12 Output\obj\driver\driver_ledc.o
 .text          0x0000000000000000        0x0 Output\obj\driver\driver_lowpwr.o
 .data          0x0000000000000000        0x0 Output\obj\driver\driver_lowpwr.o
 .bss           0x0000000000000000       0x5c Output\obj\driver\driver_lowpwr.o
 .com_sleep.sys
                0x0000000000000000       0x8e Output\obj\driver\driver_lowpwr.o
 .com_sleep.lp_proc
                0x0000000000000000       0xc6 Output\obj\driver\driver_lowpwr.o
 .com_sleep.lp_wakeup
                0x0000000000000000      0x146 Output\obj\driver\driver_lowpwr.o
 .text.lowpwr_clr_wakeup_pending
                0x0000000000000000       0x1c Output\obj\driver\driver_lowpwr.o
 .text.lowpwr_gpio_wakeup_config_custom
                0x0000000000000000       0x4a Output\obj\driver\driver_lowpwr.o
 .text.lowpwr_wakeup_source_enable
                0x0000000000000000       0x7c Output\obj\driver\driver_lowpwr.o
 .text.lowpwr_wakeup_source_disable
                0x0000000000000000       0x92 Output\obj\driver\driver_lowpwr.o
 .com_pwroff.mode1
                0x0000000000000000       0xba Output\obj\driver\driver_lowpwr.o
 .com_sleep.sfr_save
                0x0000000000000000        0x2 Output\obj\driver\driver_lowpwr.o
 .com_sleep.sfr_resume
                0x0000000000000000        0x2 Output\obj\driver\driver_lowpwr.o
 .com_sleep.proc_do
                0x0000000000000000       0xb4 Output\obj\driver\driver_lowpwr.o
 .com_sleep.sleep
                0x0000000000000000        0x8 Output\obj\driver\driver_lowpwr.o
 .text          0x0000000000000000        0x0 Output\obj\driver\driver_pwm.o
 .data          0x0000000000000000        0x0 Output\obj\driver\driver_pwm.o
 .bss           0x0000000000000000        0x0 Output\obj\driver\driver_pwm.o
 .text.tmrp_deinit
                0x0000000000000000       0x10 Output\obj\driver\driver_pwm.o
 .text.tmrp_close_pwm
                0x0000000000000000       0x12 Output\obj\driver\driver_pwm.o
 .text.tmrp_set_counter
                0x0000000000000000        0x4 Output\obj\driver\driver_pwm.o
 .text.tmrp_get_counter
                0x0000000000000000        0x4 Output\obj\driver\driver_pwm.o
 .text.tmrp_get_period
                0x0000000000000000        0x4 Output\obj\driver\driver_pwm.o
 .text.tmrp_get_g2period
                0x0000000000000000        0x4 Output\obj\driver\driver_pwm.o
 .text.tmrp_pic_config
                0x0000000000000000       0x32 Output\obj\driver\driver_pwm.o
 .text          0x0000000000000000        0x0 Output\obj\driver\driver_rtc.o
 .data          0x0000000000000000        0x0 Output\obj\driver\driver_rtc.o
 .bss           0x0000000000000000        0x0 Output\obj\driver\driver_rtc.o
 .com_periph.rtc.cnt_set
                0x0000000000000000        0x8 Output\obj\driver\driver_rtc.o
 .com_periph.rtc.cnt_get
                0x0000000000000000        0x8 Output\obj\driver\driver_rtc.o
 .com_periph.rtc.alarm_set
                0x0000000000000000        0x8 Output\obj\driver\driver_rtc.o
 .com_periph.rtc.alarm_get
                0x0000000000000000        0x8 Output\obj\driver\driver_rtc.o
 .text.rtc_prescale_set
                0x0000000000000000       0x16 Output\obj\driver\driver_rtc.o
 .text.rtc_prescale_get
                0x0000000000000000        0xc Output\obj\driver\driver_rtc.o
 .text.rtc_pic_config
                0x0000000000000000       0x90 Output\obj\driver\driver_rtc.o
 .com_periph.rct.get
                0x0000000000000000       0x36 Output\obj\driver\driver_rtc.o
 .com_periph.rct.clear
                0x0000000000000000       0x1a Output\obj\driver\driver_rtc.o
 .comment       0x0000000000000000       0x12 Output\obj\driver\driver_rtc.o
 .text          0x0000000000000000        0x0 Output\obj\driver\driver_saradc.o
 .data          0x0000000000000000        0x0 Output\obj\driver\driver_saradc.o
 .bss           0x0000000000000000        0x0 Output\obj\driver\driver_saradc.o
 .text.saradc_mic_init
                0x0000000000000000       0x64 Output\obj\driver\driver_saradc.o
 .text.saradc_mic_cmd
                0x0000000000000000       0x1a Output\obj\driver\driver_saradc.o
 .text.saradc_mic_dma_cmd
                0x0000000000000000       0x38 Output\obj\driver\driver_saradc.o
 .text.saradc_init
                0x0000000000000000       0x88 Output\obj\driver\driver_saradc.o
 .text.saradc_add_channel
                0x0000000000000000      0x12a Output\obj\driver\driver_saradc.o
 .text.saradc_remove_channel
                0x0000000000000000       0xac Output\obj\driver\driver_saradc.o
 .text.saradc_cmd
                0x0000000000000000       0x16 Output\obj\driver\driver_saradc.o
 .com_periph.saradc.kick
                0x0000000000000000       0x2e Output\obj\driver\driver_saradc.o
 .text.saradc_set_baud
                0x0000000000000000       0x2e Output\obj\driver\driver_saradc.o
 .text.saradc_pic_config
                0x0000000000000000       0x70 Output\obj\driver\driver_saradc.o
 .com_periph.saradc.get
                0x0000000000000000       0x3a Output\obj\driver\driver_saradc.o
 .com_periph.saradc.clear
                0x0000000000000000       0x2e Output\obj\driver\driver_saradc.o
 .com_text.saradc.done
                0x0000000000000000       0x34 Output\obj\driver\driver_saradc.o
 .com_periph.saradc.get_data
                0x0000000000000000       0xa0 Output\obj\driver\driver_saradc.o
 .text          0x0000000000000000        0x0 Output\obj\driver\driver_spi.o
 .data          0x0000000000000000        0x0 Output\obj\driver\driver_spi.o
 .bss           0x0000000000000000        0x0 Output\obj\driver\driver_spi.o
 .text.spi_init
                0x0000000000000000       0x50 Output\obj\driver\driver_spi.o
 .text.spi_deinit
                0x0000000000000000       0x1c Output\obj\driver\driver_spi.o
 .text.spi_cmd  0x0000000000000000       0x10 Output\obj\driver\driver_spi.o
 .text.spi_dir_sel
                0x0000000000000000       0x16 Output\obj\driver\driver_spi.o
 .text.spi_it_cmd
                0x0000000000000000       0x12 Output\obj\driver\driver_spi.o
 .text.spi_lfsr_cmd
                0x0000000000000000       0x12 Output\obj\driver\driver_spi.o
 .text.spi_multi_bit_bus_cmd
                0x0000000000000000       0x12 Output\obj\driver\driver_spi.o
 .text.spi_hold_rx_cmd
                0x0000000000000000       0x12 Output\obj\driver\driver_spi.o
 .text.spi_hold_tx_cmd
                0x0000000000000000       0x12 Output\obj\driver\driver_spi.o
 .text.spi_soft_hold_cmd
                0x0000000000000000       0x12 Output\obj\driver\driver_spi.o
 .com_periph.spi.get
                0x0000000000000000        0xa Output\obj\driver\driver_spi.o
 .com_periph.spi.clear
                0x0000000000000000        0x8 Output\obj\driver\driver_spi.o
 .text.spi_set_dma_cnt
                0x0000000000000000        0x4 Output\obj\driver\driver_spi.o
 .text.spi_set_dma_addr
                0x0000000000000000        0x4 Output\obj\driver\driver_spi.o
 .text.spi_receive_data
                0x0000000000000000        0x8 Output\obj\driver\driver_spi.o
 .text.spi_send_data
                0x0000000000000000        0x4 Output\obj\driver\driver_spi.o
 .comment       0x0000000000000000       0x12 Output\obj\driver\driver_spi.o
 .text          0x0000000000000000        0x0 Output\obj\driver\driver_tmr.o
 .data          0x0000000000000000        0x0 Output\obj\driver\driver_tmr.o
 .bss           0x0000000000000000        0x0 Output\obj\driver\driver_tmr.o
 .text.tmr_base_init
                0x0000000000000000       0x50 Output\obj\driver\driver_tmr.o
 .text.tmr_deinit
                0x0000000000000000       0x54 Output\obj\driver\driver_tmr.o
 .text.tmr_set_counter
                0x0000000000000000        0x4 Output\obj\driver\driver_tmr.o
 .text.tmr_set_period
                0x0000000000000000        0x4 Output\obj\driver\driver_tmr.o
 .text.tmr_get_counter
                0x0000000000000000        0x4 Output\obj\driver\driver_tmr.o
 .text.tmr_get_period
                0x0000000000000000        0x4 Output\obj\driver\driver_tmr.o
 .text.tmr_cmd  0x0000000000000000       0x10 Output\obj\driver\driver_tmr.o
 .text.tmr_get_capture
                0x0000000000000000       0x1c Output\obj\driver\driver_tmr.o
 .text.tmr_pic_config
                0x0000000000000000       0x78 Output\obj\driver\driver_tmr.o
 .com_periph.tmr.get
                0x0000000000000000       0x52 Output\obj\driver\driver_tmr.o
 .com_periph.tmr.clear
                0x0000000000000000       0x3a Output\obj\driver\driver_tmr.o
 .comment       0x0000000000000000       0x12 Output\obj\driver\driver_tmr.o
 .text          0x0000000000000000        0x0 Output\obj\driver\driver_uart.o
 .data          0x0000000000000000        0x0 Output\obj\driver\driver_uart.o
 .bss           0x0000000000000000        0x0 Output\obj\driver\driver_uart.o
 .text.uart_init
                0x0000000000000000       0x52 Output\obj\driver\driver_uart.o
 .text.uart_deinit
                0x0000000000000000        0xe Output\obj\driver\driver_uart.o
 .text.uart_cmd
                0x0000000000000000       0x10 Output\obj\driver\driver_uart.o
 .com_periph.uart.send
                0x0000000000000000        0x8 Output\obj\driver\driver_uart.o
 .com_periph.uart.recv
                0x0000000000000000       0x14 Output\obj\driver\driver_uart.o
 .text.uart_pic_config
                0x0000000000000000       0x5c Output\obj\driver\driver_uart.o
 .com_periph.uart.get_flag
                0x0000000000000000       0x18 Output\obj\driver\driver_uart.o
 .com_periph.uart.clear_flag
                0x0000000000000000       0x2a Output\obj\driver\driver_uart.o
 .text.uart_baud_config
                0x0000000000000000       0x42 Output\obj\driver\driver_uart.o
 .comment       0x0000000000000000       0x12 Output\obj\driver\driver_uart.o
 .text          0x0000000000000000        0x0 Output\obj\driver\driver_wdt.o
 .data          0x0000000000000000        0x0 Output\obj\driver\driver_wdt.o
 .bss           0x0000000000000000        0x0 Output\obj\driver\driver_wdt.o
 .text.wdt_cmd  0x0000000000000000       0x18 Output\obj\driver\driver_wdt.o
 .text.wdt_reset_cmd
                0x0000000000000000       0x1e Output\obj\driver\driver_wdt.o
 .text.wdt_it_cmd
                0x0000000000000000       0x16 Output\obj\driver\driver_wdt.o
 .text.wdt_clk_select
                0x0000000000000000       0x1a Output\obj\driver\driver_wdt.o
 .text.wdt_time_select
                0x0000000000000000       0x1a Output\obj\driver\driver_wdt.o
 .text.wdt_get_flag
                0x0000000000000000        0x8 Output\obj\driver\driver_wdt.o
 .text.wdt_clear
                0x0000000000000000        0xe Output\obj\driver\driver_wdt.o
 .comment       0x0000000000000000       0x12 Output\obj\driver\driver_wdt.o
 .text          0x0000000000000000        0x0 Output\obj\project\ble_peripheral\app\func.o
 .data          0x0000000000000000        0x0 Output\obj\project\ble_peripheral\app\func.o
 .bss           0x0000000000000000        0x0 Output\obj\project\ble_peripheral\app\func.o
 .text          0x0000000000000000        0x0 Output\obj\project\ble_peripheral\app\func_bt.o
 .data          0x0000000000000000        0x0 Output\obj\project\ble_peripheral\app\func_bt.o
 .bss           0x0000000000000000        0x0 Output\obj\project\ble_peripheral\app\func_bt.o
 .text          0x0000000000000000        0x0 Output\obj\project\ble_peripheral\app\func_idle.o
 .data          0x0000000000000000        0x0 Output\obj\project\ble_peripheral\app\func_idle.o
 .bss           0x0000000000000000        0x0 Output\obj\project\ble_peripheral\app\func_idle.o
 .text          0x0000000000000000        0x0 Output\obj\project\ble_peripheral\app\func_iodm.o
 .data          0x0000000000000000        0x0 Output\obj\project\ble_peripheral\app\func_iodm.o
 .bss           0x0000000000000000        0x0 Output\obj\project\ble_peripheral\app\func_iodm.o
 .comment       0x0000000000000000       0x12 Output\obj\project\ble_peripheral\app\func_iodm.o
 .text          0x0000000000000000        0x0 Output\obj\project\ble_peripheral\app\func_le_bqb_rf.o
 .data          0x0000000000000000        0x0 Output\obj\project\ble_peripheral\app\func_le_bqb_rf.o
 .bss           0x0000000000000000        0x0 Output\obj\project\ble_peripheral\app\func_le_bqb_rf.o
 .comment       0x0000000000000000       0x12 Output\obj\project\ble_peripheral\app\func_le_bqb_rf.o
 .text          0x0000000000000000        0x0 Output\obj\project\ble_peripheral\app\func_le_fcc.o
 .data          0x0000000000000000        0x0 Output\obj\project\ble_peripheral\app\func_le_fcc.o
 .bss           0x0000000000000000        0x0 Output\obj\project\ble_peripheral\app\func_le_fcc.o
 .comment       0x0000000000000000       0x12 Output\obj\project\ble_peripheral\app\func_le_fcc.o
 .text          0x0000000000000000        0x0 Output\obj\project\ble_peripheral\app\func_lowpwr.o
 .data          0x0000000000000000        0x0 Output\obj\project\ble_peripheral\app\func_lowpwr.o
 .bss           0x0000000000000000        0x0 Output\obj\project\ble_peripheral\app\func_lowpwr.o
 .text          0x0000000000000000        0x0 Output\obj\project\ble_peripheral\app\func_tbox.o
 .data          0x0000000000000000        0x0 Output\obj\project\ble_peripheral\app\func_tbox.o
 .bss           0x0000000000000000        0x0 Output\obj\project\ble_peripheral\app\func_tbox.o
 .comment       0x0000000000000000       0x12 Output\obj\project\ble_peripheral\app\func_tbox.o
 .text          0x0000000000000000        0x0 Output\obj\project\ble_peripheral\ble\ble_adv.o
 .data          0x0000000000000000        0x0 Output\obj\project\ble_peripheral\ble\ble_adv.o
 .bss           0x0000000000000000        0x0 Output\obj\project\ble_peripheral\ble\ble_adv.o
 .rodata.scan   0x0000000000000000        0x0 Output\obj\project\ble_peripheral\ble\ble_adv.o
 .text          0x0000000000000000        0x0 Output\obj\project\ble_peripheral\ble\ble_alarm.o
 .data          0x0000000000000000        0x0 Output\obj\project\ble_peripheral\ble\ble_alarm.o
 .bss           0x0000000000000000        0x0 Output\obj\project\ble_peripheral\ble\ble_alarm.o
 .text.ble_alarm_enter_sleep_proc
                0x0000000000000000       0x10 Output\obj\project\ble_peripheral\ble\ble_alarm.o
 .text.ble_alarm_exit_sleep_proc
                0x0000000000000000       0x38 Output\obj\project\ble_peripheral\ble\ble_alarm.o
 .text          0x0000000000000000        0x0 Output\obj\project\ble_peripheral\ble\ble_fota_service.o
 .data          0x0000000000000000        0x0 Output\obj\project\ble_peripheral\ble\ble_fota_service.o
 .text.ab_fota_write
                0x0000000000000000        0x8 Output\obj\project\ble_peripheral\ble\ble_fota_service.o
 .text.ab_fota_get_err
                0x0000000000000000        0x8 Output\obj\project\ble_peripheral\ble\ble_fota_service.o
 .text.ab_fota_breakpoint_info_read
                0x0000000000000000        0x8 Output\obj\project\ble_peripheral\ble\ble_fota_service.o
 .text.ab_fota_init
                0x0000000000000000        0x8 Output\obj\project\ble_peripheral\ble\ble_fota_service.o
 .text.ab_fota_get_curaddr
                0x0000000000000000        0x8 Output\obj\project\ble_peripheral\ble\ble_fota_service.o
 .text.ab_fota_is_update_success
                0x0000000000000000        0x8 Output\obj\project\ble_peripheral\ble\ble_fota_service.o
 .com_text.fot.update
                0x0000000000000000        0xe Output\obj\project\ble_peripheral\ble\ble_fota_service.o
 .text.fota_ble_connect_callback
                0x0000000000000000        0x2 Output\obj\project\ble_peripheral\ble\ble_fota_service.o
 .text          0x0000000000000000        0x0 Output\obj\project\ble_peripheral\ble\ble_init.o
 .data          0x0000000000000000        0x0 Output\obj\project\ble_peripheral\ble\ble_init.o
 .bss           0x0000000000000000        0x0 Output\obj\project\ble_peripheral\ble\ble_init.o
 .text.ble_get_work_mode
                0x0000000000000000        0xa Output\obj\project\ble_peripheral\ble\ble_init.o
 .text.ble_sm_param_init
                0x0000000000000000        0xe Output\obj\project\ble_peripheral\ble\ble_init.o
 .text          0x0000000000000000        0x0 Output\obj\project\ble_peripheral\ble\ble_proc.o
 .data          0x0000000000000000        0x0 Output\obj\project\ble_peripheral\ble\ble_proc.o
 .bss           0x0000000000000000        0x0 Output\obj\project\ble_peripheral\ble\ble_proc.o
 .text.ble_enter_sleep_proc
                0x0000000000000000       0x82 Output\obj\project\ble_peripheral\ble\ble_proc.o
 .text.ble_exit_sleep_proc
                0x0000000000000000       0x5a Output\obj\project\ble_peripheral\ble\ble_proc.o
 .com_sleep.ble.sleep
                0x0000000000000000       0x28 Output\obj\project\ble_peripheral\ble\ble_proc.o
 .sbss          0x0000000000000000        0x8 Output\obj\project\ble_peripheral\ble\ble_proc.o
 .text          0x0000000000000000        0x0 Output\obj\project\ble_peripheral\ble\ble_profile.o
 .data          0x0000000000000000        0x0 Output\obj\project\ble_peripheral\ble\ble_profile.o
 .bss           0x0000000000000000        0x0 Output\obj\project\ble_peripheral\ble\ble_profile.o
 .text          0x0000000000000000        0x0 Output\obj\project\ble_peripheral\ble\ble_service.o
 .data          0x0000000000000000        0x0 Output\obj\project\ble_peripheral\ble\ble_service.o
 .bss           0x0000000000000000        0x0 Output\obj\project\ble_peripheral\ble\ble_service.o
 .text          0x0000000000000000        0x0 Output\obj\project\ble_peripheral\ble\ble_user_service.o
 .data          0x0000000000000000        0x0 Output\obj\project\ble_peripheral\ble\ble_user_service.o
 .com_sleep.ble.sleep
                0x0000000000000000        0xa Output\obj\project\ble_peripheral\ble\ble_user_service.o
 .text          0x0000000000000000        0x0 Output\obj\project\ble_peripheral\bsp\bsp_huart.o
 .data          0x0000000000000000        0x0 Output\obj\project\ble_peripheral\bsp\bsp_huart.o
 .bss           0x0000000000000000        0x0 Output\obj\project\ble_peripheral\bsp\bsp_huart.o
 .comment       0x0000000000000000       0x12 Output\obj\project\ble_peripheral\bsp\bsp_huart.o
 .text          0x0000000000000000        0x0 Output\obj\project\ble_peripheral\bsp\bsp_huart_iodm.o
 .data          0x0000000000000000        0x0 Output\obj\project\ble_peripheral\bsp\bsp_huart_iodm.o
 .bss           0x0000000000000000        0x0 Output\obj\project\ble_peripheral\bsp\bsp_huart_iodm.o
 .comment       0x0000000000000000       0x12 Output\obj\project\ble_peripheral\bsp\bsp_huart_iodm.o
 .text          0x0000000000000000        0x0 Output\obj\project\ble_peripheral\bsp\bsp_io_key.o
 .data          0x0000000000000000        0x0 Output\obj\project\ble_peripheral\bsp\bsp_io_key.o
 .bss           0x0000000000000000        0x0 Output\obj\project\ble_peripheral\bsp\bsp_io_key.o
 .comment       0x0000000000000000       0x12 Output\obj\project\ble_peripheral\bsp\bsp_io_key.o
 .text          0x0000000000000000        0x0 Output\obj\project\ble_peripheral\bsp\bsp_key.o
 .data          0x0000000000000000        0x0 Output\obj\project\ble_peripheral\bsp\bsp_key.o
 .bss           0x0000000000000000        0x0 Output\obj\project\ble_peripheral\bsp\bsp_key.o
 .comment       0x0000000000000000       0x12 Output\obj\project\ble_peripheral\bsp\bsp_key.o
 .text          0x0000000000000000        0x0 Output\obj\project\ble_peripheral\bsp\bsp_param.o
 .data          0x0000000000000000        0x0 Output\obj\project\ble_peripheral\bsp\bsp_param.o
 .bss           0x0000000000000000        0x0 Output\obj\project\ble_peripheral\bsp\bsp_param.o
 .text          0x0000000000000000        0x0 Output\obj\project\ble_peripheral\bsp\bsp_saradc.o
 .data          0x0000000000000000        0x0 Output\obj\project\ble_peripheral\bsp\bsp_saradc.o
 .bss           0x0000000000000000        0x0 Output\obj\project\ble_peripheral\bsp\bsp_saradc.o
 .comment       0x0000000000000000       0x12 Output\obj\project\ble_peripheral\bsp\bsp_saradc.o
 .text          0x0000000000000000        0x0 Output\obj\project\ble_peripheral\bsp\bsp_saradc_key.o
 .data          0x0000000000000000        0x0 Output\obj\project\ble_peripheral\bsp\bsp_saradc_key.o
 .bss           0x0000000000000000        0x0 Output\obj\project\ble_peripheral\bsp\bsp_saradc_key.o
 .comment       0x0000000000000000       0x12 Output\obj\project\ble_peripheral\bsp\bsp_saradc_key.o
 .text          0x0000000000000000        0x0 Output\obj\project\ble_peripheral\bsp\bsp_saradc_tsen.o
 .data          0x0000000000000000        0x0 Output\obj\project\ble_peripheral\bsp\bsp_saradc_tsen.o
 .bss           0x0000000000000000        0x0 Output\obj\project\ble_peripheral\bsp\bsp_saradc_tsen.o
 .comment       0x0000000000000000       0x12 Output\obj\project\ble_peripheral\bsp\bsp_saradc_tsen.o
 .text          0x0000000000000000        0x0 Output\obj\project\ble_peripheral\bsp\bsp_saradc_vbat.o
 .data          0x0000000000000000        0x0 Output\obj\project\ble_peripheral\bsp\bsp_saradc_vbat.o
 .bss           0x0000000000000000        0x0 Output\obj\project\ble_peripheral\bsp\bsp_saradc_vbat.o
 .comment       0x0000000000000000       0x12 Output\obj\project\ble_peripheral\bsp\bsp_saradc_vbat.o
 .text          0x0000000000000000        0x0 Output\obj\project\ble_peripheral\bsp\bsp_sys.o
 .data          0x0000000000000000        0x0 Output\obj\project\ble_peripheral\bsp\bsp_sys.o
 .bss           0x0000000000000000        0x0 Output\obj\project\ble_peripheral\bsp\bsp_sys.o
 .text.power_on_check
                0x0000000000000000        0x2 Output\obj\project\ble_peripheral\bsp\bsp_sys.o
 .text.bsp_periph_init
                0x0000000000000000        0x2 Output\obj\project\ble_peripheral\bsp\bsp_sys.o
 .text          0x0000000000000000        0x0 Output\obj\project\ble_peripheral\bsp\bsp_uart_debug.o
 .data          0x0000000000000000        0x0 Output\obj\project\ble_peripheral\bsp\bsp_uart_debug.o
 .bss           0x0000000000000000        0x0 Output\obj\project\ble_peripheral\bsp\bsp_uart_debug.o
 .comment       0x0000000000000000       0x12 Output\obj\project\ble_peripheral\bsp\bsp_uart_debug.o
 .text          0x0000000000000000        0x0 Output\obj\project\ble_peripheral\bsp\pwm.o
 .data          0x0000000000000000        0x0 Output\obj\project\ble_peripheral\bsp\pwm.o
 .bss           0x0000000000000000        0x0 Output\obj\project\ble_peripheral\bsp\pwm.o
 .text          0x0000000000000000        0x0 Output\obj\project\ble_peripheral\main.o
 .data          0x0000000000000000        0x0 Output\obj\project\ble_peripheral\main.o
 .bss           0x0000000000000000        0x0 Output\obj\project\ble_peripheral\main.o
 .text          0x0000000000000000        0x0 Output\obj\project\ble_peripheral\prod_test\iodm\prod_test_iodm.o
 .data          0x0000000000000000        0x0 Output\obj\project\ble_peripheral\prod_test\iodm\prod_test_iodm.o
 .bss           0x0000000000000000        0x0 Output\obj\project\ble_peripheral\prod_test\iodm\prod_test_iodm.o
 .comment       0x0000000000000000       0x12 Output\obj\project\ble_peripheral\prod_test\iodm\prod_test_iodm.o
 .text          0x0000000000000000        0x0 Output\obj\project\ble_peripheral\prod_test\prod_test.o
 .data          0x0000000000000000        0x0 Output\obj\project\ble_peripheral\prod_test\prod_test.o
 .bss           0x0000000000000000        0x0 Output\obj\project\ble_peripheral\prod_test\prod_test.o
 .text          0x0000000000000000        0x0 Output\obj\project\ble_peripheral\prod_test\tbox\prod_test_tbox.o
 .data          0x0000000000000000        0x0 Output\obj\project\ble_peripheral\prod_test\tbox\prod_test_tbox.o
 .bss           0x0000000000000000        0x0 Output\obj\project\ble_peripheral\prod_test\tbox\prod_test_tbox.o
 .comment       0x0000000000000000       0x12 Output\obj\project\ble_peripheral\prod_test\tbox\prod_test_tbox.o
 .text          0x0000000000000000        0x0 Output\obj\project\ble_peripheral\prod_test\tbox\tbox_key.o
 .data          0x0000000000000000        0x0 Output\obj\project\ble_peripheral\prod_test\tbox\tbox_key.o
 .bss           0x0000000000000000        0x0 Output\obj\project\ble_peripheral\prod_test\tbox\tbox_key.o
 .comment       0x0000000000000000       0x12 Output\obj\project\ble_peripheral\prod_test\tbox\tbox_key.o
 .text          0x0000000000000000        0x0 Output\obj\project\ble_peripheral\strong_ble.o
 .data          0x0000000000000000        0x0 Output\obj\project\ble_peripheral\strong_ble.o
 .bss           0x0000000000000000        0x0 Output\obj\project\ble_peripheral\strong_ble.o
 .text.ble_sm_client_event_do
                0x0000000000000000        0x2 Output\obj\project\ble_peripheral\strong_ble.o
 .text.ble_sm_send_security_req_time_get
                0x0000000000000000        0x6 Output\obj\project\ble_peripheral\strong_ble.o
 .text.ble_sm_always_accept_ltk_req
                0x0000000000000000        0x4 Output\obj\project\ble_peripheral\strong_ble.o
 .text.ble_sm_pairing_support
                0x0000000000000000        0x4 Output\obj\project\ble_peripheral\strong_ble.o
 .text          0x0000000000000000        0x0 Output\obj\project\ble_peripheral\strong_symbol.o
 .data          0x0000000000000000        0x0 Output\obj\project\ble_peripheral\strong_symbol.o
 .bss           0x0000000000000000        0x0 Output\obj\project\ble_peripheral\strong_symbol.o
 .com_text.timer
                0x0000000000000000        0x8 Output\obj\project\ble_peripheral\strong_symbol.o
 .text          0x0000000000000000        0x0 ..\..\libs\cpu\libplatform.a(audio_mic.o)
 .data          0x0000000000000000        0x0 ..\..\libs\cpu\libplatform.a(audio_mic.o)
 .bss           0x0000000000000000       0x18 ..\..\libs\cpu\libplatform.a(audio_mic.o)
 .text.audio_mic_get_mic_type
                0x0000000000000000        0xa ..\..\libs\cpu\libplatform.a(audio_mic.o)
 .text.audio_mic_get_mic_gain
                0x0000000000000000        0xa ..\..\libs\cpu\libplatform.a(audio_mic.o)
 .text.audio_mic_get_mic_trim
                0x0000000000000000        0xa ..\..\libs\cpu\libplatform.a(audio_mic.o)
 .text.audio_mic_pb10_pdpu
                0x0000000000000000       0x2e ..\..\libs\cpu\libplatform.a(audio_mic.o)
 .text.audio_mic_power
                0x0000000000000000      0x102 ..\..\libs\cpu\libplatform.a(audio_mic.o)
 .text.audio_mic_analog_init
                0x0000000000000000      0x2cc ..\..\libs\cpu\libplatform.a(audio_mic.o)
 .comment       0x0000000000000000       0x13 ..\..\libs\cpu\libplatform.a(audio_mic.o)
 .riscv.attributes
                0x0000000000000000       0x32 ..\..\libs\cpu\libplatform.a(audio_mic.o)
 .text          0x0000000000000000        0x0 ..\..\libs\cpu\libplatform.a(audio_mic_trim.o)
 .data          0x0000000000000000        0x0 ..\..\libs\cpu\libplatform.a(audio_mic_trim.o)
 .bss           0x0000000000000000       0x18 ..\..\libs\cpu\libplatform.a(audio_mic_trim.o)
 .text.audio_mic_trim_sta_set
                0x0000000000000000        0xa ..\..\libs\cpu\libplatform.a(audio_mic_trim.o)
 .text.audio_mic_trim_sta_get
                0x0000000000000000        0xa ..\..\libs\cpu\libplatform.a(audio_mic_trim.o)
 .text.audio_mic_dbg
                0x0000000000000000       0x9e ..\..\libs\cpu\libplatform.a(audio_mic_trim.o)
 .text.audio_micdc_trim_step0_init
                0x0000000000000000       0x42 ..\..\libs\cpu\libplatform.a(audio_mic_trim.o)
 .text.audio_micdc_trim_step0_waiting
                0x0000000000000000       0x14 ..\..\libs\cpu\libplatform.a(audio_mic_trim.o)
 .rodata.str1.4
                0x0000000000000000       0x40 ..\..\libs\cpu\libplatform.a(audio_mic_trim.o)
 .text.audio_micdc_trim_step0_run
                0x0000000000000000      0x146 ..\..\libs\cpu\libplatform.a(audio_mic_trim.o)
 .text.audio_micdc_trim_step1_init
                0x0000000000000000       0x20 ..\..\libs\cpu\libplatform.a(audio_mic_trim.o)
 .text.audio_micdc_trim_step1_waiting
                0x0000000000000000       0x12 ..\..\libs\cpu\libplatform.a(audio_mic_trim.o)
 .text.audio_micdc_trim_step1_run
                0x0000000000000000       0x26 ..\..\libs\cpu\libplatform.a(audio_mic_trim.o)
 .text.audio_micdc_trim_step2_init
                0x0000000000000000        0x8 ..\..\libs\cpu\libplatform.a(audio_mic_trim.o)
 .text.audio_micdc_trim_step2_waiting
                0x0000000000000000        0x8 ..\..\libs\cpu\libplatform.a(audio_mic_trim.o)
 .text.audio_micdc_trim_step2_run
                0x0000000000000000        0xe ..\..\libs\cpu\libplatform.a(audio_mic_trim.o)
 .text.micin_config
                0x0000000000000000       0x64 ..\..\libs\cpu\libplatform.a(audio_mic_trim.o)
 .text.audio_micin_trim_step0_init
                0x0000000000000000       0x3a ..\..\libs\cpu\libplatform.a(audio_mic_trim.o)
 .text.audio_micin_trim_step0_waiting
                0x0000000000000000       0x14 ..\..\libs\cpu\libplatform.a(audio_mic_trim.o)
 .text.audio_micin_trim_step0_run
                0x0000000000000000       0x60 ..\..\libs\cpu\libplatform.a(audio_mic_trim.o)
 .text.audio_micin_trim_step1_init
                0x0000000000000000       0x2e ..\..\libs\cpu\libplatform.a(audio_mic_trim.o)
 .text.audio_micin_trim_step1_waiting
                0x0000000000000000        0x8 ..\..\libs\cpu\libplatform.a(audio_mic_trim.o)
 .text.audio_micin_trim_step1_run
                0x0000000000000000       0x4c ..\..\libs\cpu\libplatform.a(audio_mic_trim.o)
 .text.audio_micin_trim_step2_run
                0x0000000000000000       0x64 ..\..\libs\cpu\libplatform.a(audio_mic_trim.o)
 .text.audio_mic_trim_proc
                0x0000000000000000      0x180 ..\..\libs\cpu\libplatform.a(audio_mic_trim.o)
 .text.audio_mic_trim_is_finish
                0x0000000000000000       0x10 ..\..\libs\cpu\libplatform.a(audio_mic_trim.o)
 .rodata        0x0000000000000000       0x98 ..\..\libs\cpu\libplatform.a(audio_mic_trim.o)
 .comment       0x0000000000000000       0x13 ..\..\libs\cpu\libplatform.a(audio_mic_trim.o)
 .riscv.attributes
                0x0000000000000000       0x32 ..\..\libs\cpu\libplatform.a(audio_mic_trim.o)
 .text          0x0000000000000000        0x0 ..\..\libs\cpu\libplatform.a(cm.o)
 .data          0x0000000000000000        0x0 ..\..\libs\cpu\libplatform.a(cm.o)
 .text.cm_move_allpages
                0x0000000000000000      0x13e ..\..\libs\cpu\libplatform.a(cm.o)
 .text.cm_get_startaddr
                0x0000000000000000        0xa ..\..\libs\cpu\libplatform.a(cm.o)
 .text.cm_get_area
                0x0000000000000000       0x14 ..\..\libs\cpu\libplatform.a(cm.o)
 .text.cm_release_all
                0x0000000000000000       0x8c ..\..\libs\cpu\libplatform.a(cm.o)
 .text.cm_read8
                0x0000000000000000       0x28 ..\..\libs\cpu\libplatform.a(cm.o)
 .text.cm_read16
                0x0000000000000000       0x28 ..\..\libs\cpu\libplatform.a(cm.o)
 .text.cm_read32
                0x0000000000000000       0x24 ..\..\libs\cpu\libplatform.a(cm.o)
 .text.cm_write8
                0x0000000000000000       0x28 ..\..\libs\cpu\libplatform.a(cm.o)
 .text.cm_write16
                0x0000000000000000       0x28 ..\..\libs\cpu\libplatform.a(cm.o)
 .text.cm_write32
                0x0000000000000000       0x24 ..\..\libs\cpu\libplatform.a(cm.o)
 .text.cm_clear
                0x0000000000000000       0x60 ..\..\libs\cpu\libplatform.a(cm.o)
 .text          0x0000000000000000        0x0 ..\..\libs\cpu\libplatform.a(os_flash.o)
 .data          0x0000000000000000        0x0 ..\..\libs\cpu\libplatform.a(os_flash.o)
 .bss           0x0000000000000000        0x0 ..\..\libs\cpu\libplatform.a(os_flash.o)
 .com_text.spiflash.id
                0x0000000000000000        0x8 ..\..\libs\cpu\libplatform.a(os_flash.o)
 .text          0x0000000000000000        0x0 ..\..\libs\cpu\libplatform.a(xcfg.o)
 .data          0x0000000000000000        0x0 ..\..\libs\cpu\libplatform.a(xcfg.o)
 .bss           0x0000000000000000        0x0 ..\..\libs\cpu\libplatform.a(xcfg.o)
 .text          0x0000000000000000        0x0 ..\..\libs\cpu\libplatform.a(main.o)
 .data          0x0000000000000000        0x0 ..\..\libs\cpu\libplatform.a(main.o)
 .text          0x0000000000000000        0x0 ..\..\libs\cpu\libplatform.a(interrupt.o)
 .data          0x0000000000000000        0x0 ..\..\libs\cpu\libplatform.a(interrupt.o)
 .bss           0x0000000000000000        0x0 ..\..\libs\cpu\libplatform.a(interrupt.o)
 .com_text.irq.wpt
                0x0000000000000000       0x3e ..\..\libs\cpu\libplatform.a(interrupt.o)
 .text.sys_irq_init
                0x0000000000000000       0x96 ..\..\libs\cpu\libplatform.a(interrupt.o)
 .rodata.str1.4
                0x0000000000000000       0x28 ..\..\libs\cpu\libplatform.a(interrupt.o)
 .text.watch_point_set
                0x0000000000000000       0x5c ..\..\libs\cpu\libplatform.a(interrupt.o)
 .text.wdt_init
                0x0000000000000000       0x3a ..\..\libs\cpu\libplatform.a(interrupt.o)
 .text.usb_irq_init
                0x0000000000000000       0x2e ..\..\libs\cpu\libplatform.a(interrupt.o)
 .com_rodata.irq.wpt
                0x0000000000000000       0x1b ..\..\libs\cpu\libplatform.a(interrupt.o)
 .text          0x0000000000000000        0x0 ..\..\libs\cpu\libplatform.a(startup.o)
 .data          0x0000000000000000        0x0 ..\..\libs\cpu\libplatform.a(startup.o)
 .bss           0x0000000000000000        0x0 ..\..\libs\cpu\libplatform.a(startup.o)
 .com_text.timer
                0x0000000000000000       0x16 ..\..\libs\cpu\libplatform.a(startup.o)
 .text.mem_heap_size_get
                0x0000000000000000        0x6 ..\..\libs\cpu\libplatform.a(startup.o)
 .text.thread_cfg_get
                0x0000000000000000        0x4 ..\..\libs\cpu\libplatform.a(startup.o)
 .text.thread_timer_create
                0x0000000000000000       0x76 ..\..\libs\cpu\libplatform.a(startup.o)
 .text.thread_driver_create
                0x0000000000000000       0x70 ..\..\libs\cpu\libplatform.a(startup.o)
 .text.thread_create_callback
                0x0000000000000000       0x28 ..\..\libs\cpu\libplatform.a(startup.o)
 .bss.driver    0x0000000000000000        0x4 ..\..\libs\cpu\libplatform.a(startup.o)
 .bss.timer     0x0000000000000000       0x28 ..\..\libs\cpu\libplatform.a(startup.o)
 .osmem         0x0000000000000000      0x600 ..\..\libs\cpu\libplatform.a(startup.o)
 .text          0x0000000000000000        0x0 ..\..\libs\cpu\libplatform.a(sys_hook.o)
 .data          0x0000000000000000        0x0 ..\..\libs\cpu\libplatform.a(sys_hook.o)
 .bss           0x0000000000000000        0x0 ..\..\libs\cpu\libplatform.a(sys_hook.o)
 .text          0x0000000000000000        0x0 ..\..\libs\cpu\libplatform.a(thread_driver.o)
 .data          0x0000000000000000        0x0 ..\..\libs\cpu\libplatform.a(thread_driver.o)
 .bss           0x0000000000000000        0x0 ..\..\libs\cpu\libplatform.a(thread_driver.o)
 .com_text.thread.driver.usb
                0x0000000000000000       0x4e ..\..\libs\cpu\libplatform.a(thread_driver.o)
 .com_text.thread.driver.vs
                0x0000000000000000       0x4e ..\..\libs\cpu\libplatform.a(thread_driver.o)
 .text.thread.driver.usb
                0x0000000000000000       0x1a ..\..\libs\cpu\libplatform.a(thread_driver.o)
 .text.thread.driver.vs
                0x0000000000000000       0x1a ..\..\libs\cpu\libplatform.a(thread_driver.o)
 .com_text.thread.driver.enter
                0x0000000000000000       0x5c ..\..\libs\cpu\libplatform.a(thread_driver.o)
 .sbss          0x0000000000000000        0x8 ..\..\libs\cpu\libplatform.a(thread_driver.o)
 .comment       0x0000000000000000       0x13 ..\..\libs\cpu\libplatform.a(thread_driver.o)
 .riscv.attributes
                0x0000000000000000       0x32 ..\..\libs\cpu\libplatform.a(thread_driver.o)
 .text          0x0000000000000000        0x0 ..\..\libs\cpu\libplatform.a(pll.o)
 .data          0x0000000000000000        0x0 ..\..\libs\cpu\libplatform.a(pll.o)
 .bss           0x0000000000000000        0x0 ..\..\libs\cpu\libplatform.a(pll.o)
 .text.pll_clk_nhz_get
                0x0000000000000000        0xa ..\..\libs\cpu\libplatform.a(pll.o)
 .text.pll_ext_init
                0x0000000000000000      0x204 ..\..\libs\cpu\libplatform.a(pll.o)
 .text          0x0000000000000000        0x0 ..\..\libs\cpu\libplatform.a(pmu.o)
 .data          0x0000000000000000        0x0 ..\..\libs\cpu\libplatform.a(pmu.o)
 .bss           0x0000000000000000        0x0 ..\..\libs\cpu\libplatform.a(pmu.o)
 .com_text.trim.vddio_get
                0x0000000000000000        0xa ..\..\libs\cpu\libplatform.a(pmu.o)
 .com_text.trim.vddio_set
                0x0000000000000000       0x2c ..\..\libs\cpu\libplatform.a(pmu.o)
 .com_text.trim.core_get
                0x0000000000000000        0xa ..\..\libs\cpu\libplatform.a(pmu.o)
 .com_text.trim.core_set
                0x0000000000000000       0x16 ..\..\libs\cpu\libplatform.a(pmu.o)
 .com_text.trim.lvd_get
                0x0000000000000000        0xa ..\..\libs\cpu\libplatform.a(pmu.o)
 .com_text.pmu.vddbt_set
                0x0000000000000000        0xe ..\..\libs\cpu\libplatform.a(pmu.o)
 .com_text.pmu.vddbt_get
                0x0000000000000000        0x8 ..\..\libs\cpu\libplatform.a(pmu.o)
 .text          0x0000000000000000        0x0 ..\..\libs\cpu\libplatform.a(reset.o)
 .data          0x0000000000000000        0x0 ..\..\libs\cpu\libplatform.a(reset.o)
 .bss           0x0000000000000000        0x0 ..\..\libs\cpu\libplatform.a(reset.o)
 .com_text.irq  0x0000000000000000        0xe ..\..\libs\cpu\libplatform.a(reset.o)
 .text          0x0000000000000000        0x0 ..\..\libs\cpu\libplatform.a(context.o)
 .data          0x0000000000000000        0x0 ..\..\libs\cpu\libplatform.a(context.o)
 .bss           0x0000000000000000        0x0 ..\..\libs\cpu\libplatform.a(context.o)
 .riscv.attributes
                0x0000000000000000       0x30 ..\..\libs\cpu\libplatform.a(context.o)
 .text          0x0000000000000000        0x0 ..\..\libs\cpu\libplatform.a(debug.o)
 .data          0x0000000000000000        0x0 ..\..\libs\cpu\libplatform.a(debug.o)
 .bss           0x0000000000000000        0x0 ..\..\libs\cpu\libplatform.a(debug.o)
 .text.debug_dump_info_nanos_schedule
                0x0000000000000000        0x2 ..\..\libs\cpu\libplatform.a(debug.o)
 .text.debug_dump_info_nanos_timer
                0x0000000000000000        0x2 ..\..\libs\cpu\libplatform.a(debug.o)
 .text          0x0000000000000000        0x0 ..\..\libs\cpu\libplatform.a(fot_pack.o)
 .data          0x0000000000000000        0x0 ..\..\libs\cpu\libplatform.a(fot_pack.o)
 .bss           0x0000000000000000        0x0 ..\..\libs\cpu\libplatform.a(fot_pack.o)
 .text.ota_pack_get_dst_start
                0x0000000000000000        0xa ..\..\libs\cpu\libplatform.a(fot_pack.o)
 .text          0x0000000000000000        0x0 ..\..\libs\cpu\libplatform.a(lock.o)
 .data          0x0000000000000000        0x0 ..\..\libs\cpu\libplatform.a(lock.o)
 .bss           0x0000000000000000        0x0 ..\..\libs\cpu\libplatform.a(lock.o)
 .rodata.str1.4
                0x0000000000000000       0x16 ..\..\libs\cpu\libplatform.a(lock.o)
 .text.lock_code_usbdev
                0x0000000000000000       0x58 ..\..\libs\cpu\libplatform.a(lock.o)
 .text.unlock_code_usbdev
                0x0000000000000000       0x2c ..\..\libs\cpu\libplatform.a(lock.o)
 .text          0x0000000000000000        0x0 ..\..\libs\cpu\libplatform.a(patch.o)
 .data          0x0000000000000000        0x0 ..\..\libs\cpu\libplatform.a(patch.o)
 .bss           0x0000000000000000        0x0 ..\..\libs\cpu\libplatform.a(patch.o)
 .text          0x0000000000000000        0x0 ..\..\libs\cpu\libplatform.a(s_sys.o)
 .data          0x0000000000000000        0x0 ..\..\libs\cpu\libplatform.a(s_sys.o)
 .bss           0x0000000000000000        0x0 ..\..\libs\cpu\libplatform.a(s_sys.o)
 .com_text.sys.alu
                0x0000000000000000       0x66 ..\..\libs\cpu\libplatform.a(s_sys.o)
 .text          0x0000000000000000        0x0 ..\..\libs\cpu\libplatform.a(sleep.o)
 .data          0x0000000000000000        0x0 ..\..\libs\cpu\libplatform.a(sleep.o)
 .bss           0x0000000000000000        0x0 ..\..\libs\cpu\libplatform.a(sleep.o)
 .com_sleep.lp.sleep
                0x0000000000000000       0x7e ..\..\libs\cpu\libplatform.a(sleep.o)
 .comment       0x0000000000000000       0x13 ..\..\libs\cpu\libplatform.a(sleep.o)
 .riscv.attributes
                0x0000000000000000       0x32 ..\..\libs\cpu\libplatform.a(sleep.o)
 .text          0x0000000000000000        0x0 ..\..\libs\cpu\libplatform.a(sys.o)
 .data          0x0000000000000000        0x0 ..\..\libs\cpu\libplatform.a(sys.o)
 .bss           0x0000000000000000        0x0 ..\..\libs\cpu\libplatform.a(sys.o)
 .text.dbg_clk_out
                0x0000000000000000       0x46 ..\..\libs\cpu\libplatform.a(sys.o)
 .text.rc2m_clk_nhz_get
                0x0000000000000000       0x30 ..\..\libs\cpu\libplatform.a(sys.o)
 .com_text.sys  0x0000000000000000       0x1e ..\..\libs\cpu\libplatform.a(sys.o)
 .text.sw_reset_source_get
                0x0000000000000000       0x2a ..\..\libs\cpu\libplatform.a(sys.o)
 .text.random_init
                0x0000000000000000        0xa ..\..\libs\cpu\libplatform.a(sys.o)
 .text.sys_get_rand_key
                0x0000000000000000       0x6c ..\..\libs\cpu\libplatform.a(sys.o)
 .text.get_random
                0x0000000000000000       0x26 ..\..\libs\cpu\libplatform.a(sys.o)
 .text.bt_restore_xosc_cap
                0x0000000000000000        0x8 ..\..\libs\cpu\libplatform.a(sys.o)
 .text.__divdi3
                0x0000000000000000       0x5c ..\..\libs\cpu\libplatform.a(sys.o)
 .text.__umoddi3
                0x0000000000000000       0x30 ..\..\libs\cpu\libplatform.a(sys.o)
 .text          0x0000000000000000        0x0 ..\..\libs\cpu\libplatform.a(sys_clk.o)
 .data          0x0000000000000000        0x0 ..\..\libs\cpu\libplatform.a(sys_clk.o)
 .bss           0x0000000000000000        0x0 ..\..\libs\cpu\libplatform.a(sys_clk.o)
 .text.periph_cacl_clkdiv
                0x0000000000000000        0x2 ..\..\libs\cpu\libplatform.a(sys_clk.o)
 .text.sys_clk_nhz_get
                0x0000000000000000       0x5e ..\..\libs\cpu\libplatform.a(sys_clk.o)
 .text.sys_clk_get
                0x0000000000000000        0xa ..\..\libs\cpu\libplatform.a(sys_clk.o)
 .text.sys_clk_lower_limit_lock
                0x0000000000000000       0x84 ..\..\libs\cpu\libplatform.a(sys_clk.o)
 .text.sys_clk_lower_limit_unlock
                0x0000000000000000       0x6c ..\..\libs\cpu\libplatform.a(sys_clk.o)
 .text.sys_clk_lower_limit_all_unlock
                0x0000000000000000       0x50 ..\..\libs\cpu\libplatform.a(sys_clk.o)
 .sbss          0x0000000000000000        0x1 ..\..\libs\cpu\libplatform.a(sys_clk.o)
 .srodata       0x0000000000000000        0x4 ..\..\libs\cpu\libplatform.a(sys_clk.o)
 .text          0x0000000000000000        0x0 ..\..\libs\cpu\libplatform.a(voltage_trim.o)
 .data          0x0000000000000000        0x0 ..\..\libs\cpu\libplatform.a(voltage_trim.o)
 .bss           0x0000000000000000        0x0 ..\..\libs\cpu\libplatform.a(voltage_trim.o)
 .text.pmu_get_vbg_mv
                0x0000000000000000        0xe ..\..\libs\cpu\libplatform.a(voltage_trim.o)
 .text.pmu_get_vbatdet
                0x0000000000000000       0x46 ..\..\libs\cpu\libplatform.a(voltage_trim.o)
 .rodata.str1.4
                0x0000000000000000       0x63 ..\..\libs\cpu\libplatform.a(voltage_trim.o)
 .text.voltage_trim_value_dump
                0x0000000000000000       0x8c ..\..\libs\cpu\libplatform.a(voltage_trim.o)
 .text          0x0000000000000000        0x0 ..\..\libs\cpu\libplatform.a(weak_symbol.o)
 .data          0x0000000000000000        0x0 ..\..\libs\cpu\libplatform.a(weak_symbol.o)
 .bss           0x0000000000000000       0x20 ..\..\libs\cpu\libplatform.a(weak_symbol.o)
 .text.xosc_get_xcfg
                0x0000000000000000        0x2 ..\..\libs\cpu\libplatform.a(weak_symbol.o)
 .text.param_xosc_read
                0x0000000000000000        0x2 ..\..\libs\cpu\libplatform.a(weak_symbol.o)
 .text.param_xosc_write
                0x0000000000000000        0x2 ..\..\libs\cpu\libplatform.a(weak_symbol.o)
 .text.sys_clk_change_callback
                0x0000000000000000        0x2 ..\..\libs\cpu\libplatform.a(weak_symbol.o)
 .text.uart_debug_init_callback
                0x0000000000000000        0x2 ..\..\libs\cpu\libplatform.a(weak_symbol.o)
 .text.nanos_var_init
                0x0000000000000000       0x1a ..\..\libs\cpu\libplatform.a(weak_symbol.o)
 .text.btstack_message
                0x0000000000000000        0x4 ..\..\libs\cpu\libplatform.a(weak_symbol.o)
 .com_text.stack.api
                0x0000000000000000        0x4 ..\..\libs\cpu\libplatform.a(weak_symbol.o)
 .com_text.ret.stack.thread
                0x0000000000000000        0x2 ..\..\libs\cpu\libplatform.a(weak_symbol.o)
 .com_text.bb.isr
                0x0000000000000000        0x6 ..\..\libs\cpu\libplatform.a(weak_symbol.o)
 .com_text.isr  0x0000000000000000        0x2 ..\..\libs\cpu\libplatform.a(weak_symbol.o)
 .text.btstack_var_init
                0x0000000000000000        0x2 ..\..\libs\cpu\libplatform.a(weak_symbol.o)
 .com_text.stack.run_loop
                0x0000000000000000        0x2 ..\..\libs\cpu\libplatform.a(weak_symbol.o)
 .text.bb_patch_init
                0x0000000000000000        0x4 ..\..\libs\cpu\libplatform.a(weak_symbol.o)
 .text.bb_nanos_mem_init
                0x0000000000000000        0x2 ..\..\libs\cpu\libplatform.a(weak_symbol.o)
 .text          0x0000000000000000        0x0 ..\..\libs\cpu\libplatform.a(bt.o)
 .data          0x0000000000000000        0x0 ..\..\libs\cpu\libplatform.a(bt.o)
 .bss           0x0000000000000000        0x0 ..\..\libs\cpu\libplatform.a(bt.o)
 .text          0x0000000000000000        0x0 ..\..\libs\cpu\libplatform.a(freq_det.o)
 .data          0x0000000000000000        0x0 ..\..\libs\cpu\libplatform.a(freq_det.o)
 .bss           0x0000000000000000        0x0 ..\..\libs\cpu\libplatform.a(freq_det.o)
 .com_sleep.sleep.rc
                0x0000000000000000       0x44 ..\..\libs\cpu\libplatform.a(freq_det.o)
 .data          0x0000000000000000        0x0 ..\..\libs\ble\libbtstack.a(bb_api.o)
 .bss           0x0000000000000000        0x0 ..\..\libs\ble\libbtstack.a(bb_api.o)
 .com_text.bt.timer
                0x0000000000000000       0xc0 ..\..\libs\ble\libbtstack.a(bb_api.o)
 .com_text.sleep
                0x0000000000000000        0x8 ..\..\libs\ble\libbtstack.a(bb_api.o)
 .com_sleep.sleep
                0x0000000000000000        0x8 ..\..\libs\ble\libbtstack.a(bb_api.o)
 .data          0x0000000000000000        0x0 ..\..\libs\ble\libbtstack.a(bb_int.o)
 .bss           0x0000000000000000        0x0 ..\..\libs\ble\libbtstack.a(bb_int.o)
 .com_text.bb.hs_get
                0x0000000000000000       0x22 ..\..\libs\ble\libbtstack.a(bb_int.o)
 .com_sleep.bb  0x0000000000000000      0x1c0 ..\..\libs\ble\libbtstack.a(bb_int.o)
 .text          0x0000000000000000        0x0 ..\..\libs\ble\libbtstack.a(bb_alarm.o)
 .data          0x0000000000000000        0x0 ..\..\libs\ble\libbtstack.a(bb_alarm.o)
 .bss           0x0000000000000000        0x0 ..\..\libs\ble\libbtstack.a(bb_alarm.o)
 .com_text.bb.isr.nest
                0x0000000000000000        0xa ..\..\libs\ble\libbtstack.a(bb_alarm.o)
 .data          0x0000000000000000        0x0 ..\..\libs\ble\libbtstack.a(txpkt.o)
 .bss           0x0000000000000000        0x0 ..\..\libs\ble\libbtstack.a(txpkt.o)
 .text          0x0000000000000000      0x990 ..\..\libs\ble\libbtstack.a(sm.o)
 .data          0x0000000000000000        0x0 ..\..\libs\ble\libbtstack.a(sm.o)
 .rodata.str1.4
                0x0000000000000000       0x50 ..\..\libs\ble\libbtstack.a(sm.o)
 .text.sm.request
                0x0000000000000000       0xb4 ..\..\libs\ble\libbtstack.a(sm.o)
 .text.sm.er.get
                0x0000000000000000       0x4a ..\..\libs\ble\libbtstack.a(sm.o)
 .text.sm.ir    0x0000000000000000       0x4a ..\..\libs\ble\libbtstack.a(sm.o)
 .text.sm.cmac  0x0000000000000000       0x82 ..\..\libs\ble\libbtstack.a(sm.o)
 .text.sm.irk.set
                0x0000000000000000       0x2e ..\..\libs\ble\libbtstack.a(sm.o)
 .text.stack.ble.sm
                0x0000000000000000      0x110 ..\..\libs\ble\libbtstack.a(sm.o)
 .text.sm.key_size
                0x0000000000000000       0x2c ..\..\libs\ble\libbtstack.a(sm.o)
 .text.sm.auth  0x0000000000000000       0x2c ..\..\libs\ble\libbtstack.a(sm.o)
 .text.sm.pairing
                0x0000000000000000       0x30 ..\..\libs\ble\libbtstack.a(sm.o)
 .text.sm.bonding_decline
                0x0000000000000000       0x60 ..\..\libs\ble\libbtstack.a(sm.o)
 .text.sm.confirm
                0x0000000000000000       0x38 ..\..\libs\ble\libbtstack.a(sm.o)
 .text.sm.passkey.set
                0x0000000000000000       0x3e ..\..\libs\ble\libbtstack.a(sm.o)
 .text.sm.passkey.get
                0x0000000000000000       0x2e ..\..\libs\ble\libbtstack.a(sm.o)
 .text.sm.passkey.input
                0x0000000000000000       0x58 ..\..\libs\ble\libbtstack.a(sm.o)
 .text.sm.identity_resolving_state
                0x0000000000000000       0x20 ..\..\libs\ble\libbtstack.a(sm.o)
 .text.gap.addr
                0x0000000000000000        0xa ..\..\libs\ble\libbtstack.a(sm.o)
 .text.sm.run   0x0000000000000000      0xca8 ..\..\libs\ble\libbtstack.a(sm.o)
 .text.sm.pdu   0x0000000000000000      0x2cc ..\..\libs\ble\libbtstack.a(sm.o)
 .text.sm.event
                0x0000000000000000      0xae8 ..\..\libs\ble\libbtstack.a(sm.o)
 .text.sm.reconnect
                0x0000000000000000       0x52 ..\..\libs\ble\libbtstack.a(sm.o)
 .text.sm.irk_get
                0x0000000000000000        0xa ..\..\libs\ble\libbtstack.a(sm.o)
 .text.sm.delete_bonding
                0x0000000000000000       0x6e ..\..\libs\ble\libbtstack.a(sm.o)
 .rodata        0x0000000000000000       0x64 ..\..\libs\ble\libbtstack.a(sm.o)
 .ble_cache.sm  0x0000000000000000        0x8 ..\..\libs\ble\libbtstack.a(sm.o)
 .ble_cache.sm.auth
                0x0000000000000000        0x1 ..\..\libs\ble\libbtstack.a(sm.o)
 .ble_cache.sm.cmac
                0x0000000000000000       0x45 ..\..\libs\ble\libbtstack.a(sm.o)
 .ble_cache.sm.dhk
                0x0000000000000000       0x10 ..\..\libs\ble\libbtstack.a(sm.o)
 .ble_cache.sm.io
                0x0000000000000000        0x1 ..\..\libs\ble\libbtstack.a(sm.o)
 .ble_cache.sm.req
                0x0000000000000000        0x1 ..\..\libs\ble\libbtstack.a(sm.o)
 .ble_cache.sm.resolution
                0x0000000000000000       0x18 ..\..\libs\ble\libbtstack.a(sm.o)
 .ble_cache.sm.setup
                0x0000000000000000      0x100 ..\..\libs\ble\libbtstack.a(sm.o)
 .sdata         0x0000000000000000        0x2 ..\..\libs\ble\libbtstack.a(sm.o)
 .data          0x0000000000000000        0x0 ..\..\libs\ble\libbtstack.a(le_device_db_memory.o)
 .bss           0x0000000000000000        0x0 ..\..\libs\ble\libbtstack.a(le_device_db_memory.o)
 .text.le.db.get
                0x0000000000000000       0x3e ..\..\libs\ble\libbtstack.a(le_device_db_memory.o)
 .text.le.db.remove
                0x0000000000000000       0x9e ..\..\libs\ble\libbtstack.a(le_device_db_memory.o)
 .text.le.db.remove_all
                0x0000000000000000       0x60 ..\..\libs\ble\libbtstack.a(le_device_db_memory.o)
 .rodata.str1.4
                0x0000000000000000        0x4 ..\..\libs\ble\libbtstack.a(le_device_db_memory.o)
 .text.le.db.add
                0x0000000000000000       0xe4 ..\..\libs\ble\libbtstack.a(le_device_db_memory.o)
 .text.le.db.dump
                0x0000000000000000       0x6a ..\..\libs\ble\libbtstack.a(le_device_db_memory.o)
 .text.le.db.get_index
                0x0000000000000000       0x1c ..\..\libs\ble\libbtstack.a(le_device_db_memory.o)
 .data          0x0000000000000000        0x0 ..\..\libs\ble\libbtstack.a(gatt_server.o)
 .bss           0x0000000000000000        0x0 ..\..\libs\ble\libbtstack.a(gatt_server.o)
 .text.stack.send.ntf_kick
                0x0000000000000000        0x8 ..\..\libs\ble\libbtstack.a(gatt_server.o)
 .text          0x0000000000000000     0x1db0 ..\..\libs\ble\libbtstack.a(gatt_client.o)
 .data          0x0000000000000000        0x0 ..\..\libs\ble\libbtstack.a(gatt_client.o)
 .bss           0x0000000000000000        0x0 ..\..\libs\ble\libbtstack.a(gatt_client.o)
 .text.client.set.sm_level
                0x0000000000000000        0xa ..\..\libs\ble\libbtstack.a(gatt_client.o)
 .text.client.write_req
                0x0000000000000000       0x88 ..\..\libs\ble\libbtstack.a(gatt_client.o)
 .text.client.stop_listening
                0x0000000000000000       0x14 ..\..\libs\ble\libbtstack.a(gatt_client.o)
 .text.sm.client
                0x0000000000000000      0x1a4 ..\..\libs\ble\libbtstack.a(gatt_client.o)
 .text.client.deserialize_service
                0x0000000000000000       0x5c ..\..\libs\ble\libbtstack.a(gatt_client.o)
 .text.client.deserialize_characteristic
                0x0000000000000000       0x6c ..\..\libs\ble\libbtstack.a(gatt_client.o)
 .text.client.deserialize_characteristic_descriptor
                0x0000000000000000       0x4e ..\..\libs\ble\libbtstack.a(gatt_client.o)
 .text.client.get_character_uuid16
                0x0000000000000000       0x22 ..\..\libs\ble\libbtstack.a(gatt_client.o)
 .text.client.get_character_uuid128
                0x0000000000000000       0x42 ..\..\libs\ble\libbtstack.a(gatt_client.o)
 .text.client.write_cmd
                0x0000000000000000       0x24 ..\..\libs\ble\libbtstack.a(gatt_client.o)
 .text.client.read_req
                0x0000000000000000       0x44 ..\..\libs\ble\libbtstack.a(gatt_client.o)
 .text.client.read_blob
                0x0000000000000000       0x22 ..\..\libs\ble\libbtstack.a(gatt_client.o)
 .text.stack.send.client
                0x0000000000000000       0x96 ..\..\libs\ble\libbtstack.a(gatt_client.o)
 .text.client.find_services
                0x0000000000000000       0x5e ..\..\libs\ble\libbtstack.a(gatt_client.o)
 .text.client.discover_secondary_services
                0x0000000000000000       0x4c ..\..\libs\ble\libbtstack.a(gatt_client.o)
 .text.client.find_services_uuid16
                0x0000000000000000       0x6a ..\..\libs\ble\libbtstack.a(gatt_client.o)
 .text.client.find_services_uuid128
                0x0000000000000000       0x6e ..\..\libs\ble\libbtstack.a(gatt_client.o)
 .text.client.find_character
                0x0000000000000000       0x6a ..\..\libs\ble\libbtstack.a(gatt_client.o)
 .text.client.find_included_services
                0x0000000000000000       0x4e ..\..\libs\ble\libbtstack.a(gatt_client.o)
 .text.client.find_character_uuid16
                0x0000000000000000       0x90 ..\..\libs\ble\libbtstack.a(gatt_client.o)
 .text.client.find_character_uuid128
                0x0000000000000000       0x92 ..\..\libs\ble\libbtstack.a(gatt_client.o)
 .text.client.discover_characteristic_descriptors
                0x0000000000000000       0x5e ..\..\libs\ble\libbtstack.a(gatt_client.o)
 .text.client.read_value
                0x0000000000000000        0xc ..\..\libs\ble\libbtstack.a(gatt_client.o)
 .text.client.read_value_uuid16
                0x0000000000000000       0x66 ..\..\libs\ble\libbtstack.a(gatt_client.o)
 .text.client.read_value_uuid128
                0x0000000000000000       0x68 ..\..\libs\ble\libbtstack.a(gatt_client.o)
 .text.client.read_long_value_offset
                0x0000000000000000       0x4a ..\..\libs\ble\libbtstack.a(gatt_client.o)
 .text.client.read_long_value
                0x0000000000000000       0x16 ..\..\libs\ble\libbtstack.a(gatt_client.o)
 .text.client.read_multiple
                0x0000000000000000       0x48 ..\..\libs\ble\libbtstack.a(gatt_client.o)
 .text.client.write_long_value
                0x0000000000000000       0x62 ..\..\libs\ble\libbtstack.a(gatt_client.o)
 .text.client.reliable_write_long
                0x0000000000000000       0x52 ..\..\libs\ble\libbtstack.a(gatt_client.o)
 .text.client.read_characteristic
                0x0000000000000000       0x50 ..\..\libs\ble\libbtstack.a(gatt_client.o)
 .text.client.read_long_characteristic_descriptor
                0x0000000000000000       0x62 ..\..\libs\ble\libbtstack.a(gatt_client.o)
 .text.client.write_character_desc
                0x0000000000000000       0x60 ..\..\libs\ble\libbtstack.a(gatt_client.o)
 .text.client.write_long_character_desc
                0x0000000000000000       0x70 ..\..\libs\ble\libbtstack.a(gatt_client.o)
 .text.client.prepare_write
                0x0000000000000000       0x56 ..\..\libs\ble\libbtstack.a(gatt_client.o)
 .text.client.execute_write
                0x0000000000000000       0x3c ..\..\libs\ble\libbtstack.a(gatt_client.o)
 .text.client.cancel_write
                0x0000000000000000       0x3c ..\..\libs\ble\libbtstack.a(gatt_client.o)
 .rodata        0x0000000000000000       0x14 ..\..\libs\ble\libbtstack.a(gatt_client.o)
 .ble_buf.read  0x0000000000000000        0x6 ..\..\libs\ble\libbtstack.a(gatt_client.o)
 .sbss          0x0000000000000000        0x4 ..\..\libs\ble\libbtstack.a(gatt_client.o)
 .data          0x0000000000000000        0x0 ..\..\libs\ble\libbtstack.a(att_server.o)
 .bss           0x0000000000000000        0x0 ..\..\libs\ble\libbtstack.a(att_server.o)
 .text.sm.server
                0x0000000000000000      0x210 ..\..\libs\ble\libbtstack.a(att_server.o)
 .data          0x0000000000000000        0x0 ..\..\libs\ble\libbtstack.a(att_dispatch.o)
 .bss           0x0000000000000000        0x0 ..\..\libs\ble\libbtstack.a(att_dispatch.o)
 .text.att.register_client
                0x0000000000000000       0x1a ..\..\libs\ble\libbtstack.a(att_dispatch.o)
 .text.att.client_mtu
                0x0000000000000000       0x14 ..\..\libs\ble\libbtstack.a(att_dispatch.o)
 .data          0x0000000000000000        0x0 ..\..\libs\ble\libbtstack.a(att_db.o)
 .bss           0x0000000000000000        0x0 ..\..\libs\ble\libbtstack.a(att_db.o)
 .text.att.dump
                0x0000000000000000       0x5c ..\..\libs\ble\libbtstack.a(att_db.o)
 .text.gatt.get_client_config
                0x0000000000000000      0x122 ..\..\libs\ble\libbtstack.a(att_db.o)
 .data          0x0000000000000000        0x0 ..\..\libs\ble\libbtstack.a(btstack_api.o)
 .bss           0x0000000000000000        0x0 ..\..\libs\ble\libbtstack.a(btstack_api.o)
 .com_text.ret.bb.sleep
                0x0000000000000000       0x1e ..\..\libs\ble\libbtstack.a(btstack_api.o)
 .com_sleep.sleep
                0x0000000000000000        0x8 ..\..\libs\ble\libbtstack.a(btstack_api.o)
 .data          0x0000000000000000        0x0 ..\..\libs\ble\libbtstack.a(ble_api.o)
 .bss           0x0000000000000000        0x0 ..\..\libs\ble\libbtstack.a(ble_api.o)
 .text.stack.sleep
                0x0000000000000000       0xac ..\..\libs\ble\libbtstack.a(ble_api.o)
 .text.ble.api.max_mtu
                0x0000000000000000        0x8 ..\..\libs\ble\libbtstack.a(ble_api.o)
 .text.ble.api.adv_dis
                0x0000000000000000        0xc ..\..\libs\ble\libbtstack.a(ble_api.o)
 .text.ble.api.adv_en
                0x0000000000000000        0xc ..\..\libs\ble\libbtstack.a(ble_api.o)
 .text.ble.api.adv_is_en
                0x0000000000000000        0x8 ..\..\libs\ble\libbtstack.a(ble_api.o)
 .text.ble.api.discon
                0x0000000000000000        0xe ..\..\libs\ble\libbtstack.a(ble_api.o)
 .text.ble.api.adv_data.set
                0x0000000000000000       0x5c ..\..\libs\ble\libbtstack.a(ble_api.o)
 .text.ble.api.scan
                0x0000000000000000       0x5c ..\..\libs\ble\libbtstack.a(ble_api.o)
 .text.ble.api.adv_interval.set
                0x0000000000000000       0x56 ..\..\libs\ble\libbtstack.a(ble_api.o)
 .text.ble.api.adv.adv_interval.get
                0x0000000000000000       0x24 ..\..\libs\ble\libbtstack.a(ble_api.o)
 .text.ble.api.conn_param.get
                0x0000000000000000        0x8 ..\..\libs\ble\libbtstack.a(ble_api.o)
 .text.ble.api.latency.dis
                0x0000000000000000       0x34 ..\..\libs\ble\libbtstack.a(ble_api.o)
 .text.ble.api.latency.en
                0x0000000000000000       0x34 ..\..\libs\ble\libbtstack.a(ble_api.o)
 .text.ble.api.adv
                0x0000000000000000        0x4 ..\..\libs\ble\libbtstack.a(ble_api.o)
 .text.ble.api.scan.dis
                0x0000000000000000        0x2 ..\..\libs\ble\libbtstack.a(ble_api.o)
 .text.ble.api.scan.en
                0x0000000000000000        0x2 ..\..\libs\ble\libbtstack.a(ble_api.o)
 .text.ble.api.scan.set
                0x0000000000000000        0x4 ..\..\libs\ble\libbtstack.a(ble_api.o)
 .text.ble.api.conn_do
                0x0000000000000000        0x4 ..\..\libs\ble\libbtstack.a(ble_api.o)
 .text.ble.api.rpa
                0x0000000000000000        0x2 ..\..\libs\ble\libbtstack.a(ble_api.o)
 .text.ble.api.rpa_en
                0x0000000000000000        0x2 ..\..\libs\ble\libbtstack.a(ble_api.o)
 .text.ble.api.rpa_add
                0x0000000000000000        0x2 ..\..\libs\ble\libbtstack.a(ble_api.o)
 .text.ble.api.rpa_dev
                0x0000000000000000        0x2 ..\..\libs\ble\libbtstack.a(ble_api.o)
 .text.ble.api.wlist_add
                0x0000000000000000        0x2 ..\..\libs\ble\libbtstack.a(ble_api.o)
 .text.ble.api.wlist_dev
                0x0000000000000000        0x2 ..\..\libs\ble\libbtstack.a(ble_api.o)
 .text.ble.api.wlist
                0x0000000000000000        0x4 ..\..\libs\ble\libbtstack.a(ble_api.o)
 .text.ble.api.sm.passkey
                0x0000000000000000       0x2c ..\..\libs\ble\libbtstack.a(ble_api.o)
 .text.ble.api.sm_req
                0x0000000000000000        0xe ..\..\libs\ble\libbtstack.a(ble_api.o)
 .text.ble.bond.delete_addr
                0x0000000000000000        0x8 ..\..\libs\ble\libbtstack.a(ble_api.o)
 .text.ble.bond.delete_index
                0x0000000000000000        0x8 ..\..\libs\ble\libbtstack.a(ble_api.o)
 .text.ble.bond.delete_all
                0x0000000000000000        0x8 ..\..\libs\ble\libbtstack.a(ble_api.o)
 .text.ble.bond.get_cnt
                0x0000000000000000       0x1c ..\..\libs\ble\libbtstack.a(ble_api.o)
 .text.ble.bond.get_info
                0x0000000000000000        0x8 ..\..\libs\ble\libbtstack.a(ble_api.o)
 .text.ble.bond.get_index
                0x0000000000000000        0x8 ..\..\libs\ble\libbtstack.a(ble_api.o)
 .text.ble.api.get_rssi
                0x0000000000000000        0x8 ..\..\libs\ble\libbtstack.a(ble_api.o)
 .text.ble.set_static_addr
                0x0000000000000000       0x48 ..\..\libs\ble\libbtstack.a(ble_api.o)
 .text.ble.single_mode
                0x0000000000000000       0x48 ..\..\libs\ble\libbtstack.a(ble_api.o)
 .data          0x0000000000000000        0x0 ..\..\libs\ble\libbtstack.a(txpkt.o)
 .bss           0x0000000000000000        0x0 ..\..\libs\ble\libbtstack.a(txpkt.o)
 .text          0x0000000000000000        0x0 ..\..\libs\ble\libbtstack.a(aes.o)
 .data          0x0000000000000000        0x0 ..\..\libs\ble\libbtstack.a(aes.o)
 .com_text.bb.isr
                0x0000000000000000       0x28 ..\..\libs\ble\libbtstack.a(aes.o)
 .text.bb.aes.ecpy
                0x0000000000000000       0xe8 ..\..\libs\ble\libbtstack.a(aes.o)
 .data          0x0000000000000000        0x0 ..\..\libs\ble\libbtstack.a(extern.o)
 .bss           0x0000000000000000        0x0 ..\..\libs\ble\libbtstack.a(extern.o)
 .text.bsp.param
                0x0000000000000000        0x2 ..\..\libs\ble\libbtstack.a(extern.o)
 .com_sleep.sleep
                0x0000000000000000        0x2 ..\..\libs\ble\libbtstack.a(extern.o)
 .com_text.ble.phy
                0x0000000000000000        0x4 ..\..\libs\ble\libbtstack.a(extern.o)
 .sdata         0x0000000000000000        0x4 ..\..\libs\ble\libbtstack.a(extern.o)
 .data          0x0000000000000000        0x0 ..\..\libs\ble\libbtstack.a(rf.o)
 .bss           0x0000000000000000        0x0 ..\..\libs\ble\libbtstack.a(rf.o)
 .com_text.bb.isr.lv
                0x0000000000000000       0x3e ..\..\libs\ble\libbtstack.a(rf.o)
 .com_text.bb.isr.dbm
                0x0000000000000000       0x12 ..\..\libs\ble\libbtstack.a(rf.o)
 .com_sleep.bb  0x0000000000000000       0xae ..\..\libs\ble\libbtstack.a(rf.o)
 .btmem.rf.dc   0x0000000000000000       0x48 ..\..\libs\ble\libbtstack.a(rf.o)
 .com_rodata.bb.tbl
                0x0000000000000000        0x8 ..\..\libs\ble\libbtstack.a(rf.o)
 .sbss          0x0000000000000000        0x1 ..\..\libs\ble\libbtstack.a(rf.o)
 .text          0x0000000000000000        0x0 ..\..\libs\ble\libbtstack.a(hct_tl.o)
 .data          0x0000000000000000        0x0 ..\..\libs\ble\libbtstack.a(hct_tl.o)
 .bss           0x0000000000000000        0x0 ..\..\libs\ble\libbtstack.a(hct_tl.o)
 .com_text.bb.sleep
                0x0000000000000000        0x4 ..\..\libs\ble\libbtstack.a(hct_tl.o)
 .comment       0x0000000000000000       0x13 ..\..\libs\ble\libbtstack.a(hct_tl.o)
 .riscv.attributes
                0x0000000000000000       0x32 ..\..\libs\ble\libbtstack.a(hct_tl.o)
 .data          0x0000000000000000        0x0 ..\..\libs\ble\libbtstack.a(ble_con.o)
 .bss           0x0000000000000000        0x0 ..\..\libs\ble\libbtstack.a(ble_con.o)
 .com_rodata.bb.tbl
                0x0000000000000000       0x10 ..\..\libs\ble\libbtstack.a(ble_con.o)
 .data          0x0000000000000000        0x0 ..\..\libs\ble\libbtstack.a(ble_buf.o)
 .data          0x0000000000000000        0x0 ..\..\libs\ble\libbtstack.a(ble.o)
 .bss           0x0000000000000000        0x0 ..\..\libs\ble\libbtstack.a(ble.o)
 .text          0x0000000000000000       0x3e ..\..\libs\ble\libbtstack.a(bb_utils.o)
 .data          0x0000000000000000        0x0 ..\..\libs\ble\libbtstack.a(bb_utils.o)
 .bss           0x0000000000000000        0x0 ..\..\libs\ble\libbtstack.a(bb_utils.o)
 .com_rodata.bb.tbl.r2m
                0x0000000000000000        0x4 ..\..\libs\ble\libbtstack.a(bb_utils.o)
 .com_rodata.bb.tbl.rate.dur
                0x0000000000000000        0x5 ..\..\libs\ble\libbtstack.a(bb_utils.o)
 .srodata       0x0000000000000000        0x5 ..\..\libs\ble\libbtstack.a(bb_utils.o)
 .text          0x0000000000000000        0x0 ..\..\libs\ble\libbtstack.a(bb_sleep.o)
 .data          0x0000000000000000        0x0 ..\..\libs\ble\libbtstack.a(bb_sleep.o)
 .bss           0x0000000000000000        0x0 ..\..\libs\ble\libbtstack.a(bb_sleep.o)
 .com_sleep.bb  0x0000000000000000       0xa2 ..\..\libs\ble\libbtstack.a(bb_sleep.o)
 .comment       0x0000000000000000       0x13 ..\..\libs\ble\libbtstack.a(bb_sleep.o)
 .riscv.attributes
                0x0000000000000000       0x32 ..\..\libs\ble\libbtstack.a(bb_sleep.o)
 .data          0x0000000000000000        0x0 ..\..\libs\ble\libbtstack.a(bb.o)
 .bss           0x0000000000000000        0x0 ..\..\libs\ble\libbtstack.a(bb.o)
 .text          0x0000000000000000        0x0 ..\..\libs\ble\libbtstack.a(platform.o)
 .data          0x0000000000000000        0x0 ..\..\libs\ble\libbtstack.a(platform.o)
 .bss           0x0000000000000000        0x0 ..\..\libs\ble\libbtstack.a(platform.o)
 .com_text.cpu.sfr
                0x0000000000000000       0x3c ..\..\libs\ble\libbtstack.a(platform.o)
 .data          0x0000000000000000        0x0 ..\..\libs\ble\libbtstack.a(extern_ble.o)
 .bss           0x0000000000000000        0x0 ..\..\libs\ble\libbtstack.a(extern_ble.o)
 .sbss          0x0000000000000000        0x1 ..\..\libs\ble\libbtstack.a(extern_ble.o)
 .data          0x0000000000000000        0x0 ..\..\libs\ble\libbtstack.a(l2cap.o)
 .bss           0x0000000000000000        0x0 ..\..\libs\ble\libbtstack.a(l2cap.o)
 .text.stack.l2cap.connectionless
                0x0000000000000000       0x58 ..\..\libs\ble\libbtstack.a(l2cap.o)
 .text.l2cap.mtu_max
                0x0000000000000000        0x6 ..\..\libs\ble\libbtstack.a(l2cap.o)
 .text.l2cap.mtu_set
                0x0000000000000000       0x18 ..\..\libs\ble\libbtstack.a(l2cap.o)
 .text          0x0000000000000000       0x18 ..\..\libs\ble\libbtstack.a(hci_dump.o)
 .data          0x0000000000000000        0xc ..\..\libs\ble\libbtstack.a(hci_dump.o)
 .bss           0x0000000000000000        0x0 ..\..\libs\ble\libbtstack.a(hci_dump.o)
 .rodata.str1.4
                0x0000000000000000       0x12 ..\..\libs\ble\libbtstack.a(hci_dump.o)
 .text.stack.util
                0x0000000000000000       0x82 ..\..\libs\ble\libbtstack.a(hci_dump.o)
 .text          0x0000000000000000        0x0 ..\..\libs\ble\libbtstack.a(hci_cmd.o)
 .data          0x0000000000000000        0x0 ..\..\libs\ble\libbtstack.a(hci_cmd.o)
 .bss           0x0000000000000000        0x0 ..\..\libs\ble\libbtstack.a(hci_cmd.o)
 .rodata.stack.hci_send.ch
                0x0000000000000000        0x8 ..\..\libs\ble\libbtstack.a(hci_cmd.o)
 .rodata.stack.hci_send.chm
                0x0000000000000000        0x8 ..\..\libs\ble\libbtstack.a(hci_cmd.o)
 .rodata.stack.hci_send.featrue
                0x0000000000000000        0x8 ..\..\libs\ble\libbtstack.a(hci_cmd.o)
 .rodata.stack.hci_send.read_sugg_len
                0x0000000000000000        0x8 ..\..\libs\ble\libbtstack.a(hci_cmd.o)
 .rodata.stack.hci_send.rx_test
                0x0000000000000000        0x8 ..\..\libs\ble\libbtstack.a(hci_cmd.o)
 .rodata.stack.hci_send.set_len
                0x0000000000000000        0x8 ..\..\libs\ble\libbtstack.a(hci_cmd.o)
 .rodata.stack.hci_send.sup_sta
                0x0000000000000000        0x8 ..\..\libs\ble\libbtstack.a(hci_cmd.o)
 .rodata.stack.hci_send.test_end
                0x0000000000000000        0x8 ..\..\libs\ble\libbtstack.a(hci_cmd.o)
 .rodata.stack.hci_send.tx_test
                0x0000000000000000        0x8 ..\..\libs\ble\libbtstack.a(hci_cmd.o)
 .srodata       0x0000000000000000        0x8 ..\..\libs\ble\libbtstack.a(hci_cmd.o)
 .data          0x0000000000000000        0x0 ..\..\libs\ble\libbtstack.a(hci.o)
 .bss           0x0000000000000000        0x0 ..\..\libs\ble\libbtstack.a(hci.o)
 .text.hci.adv.is_enable
                0x0000000000000000       0x14 ..\..\libs\ble\libbtstack.a(hci.o)
 .com_text.stack.hci_recv
                0x0000000000000000       0x10 ..\..\libs\ble\libbtstack.a(hci.o)
 .data          0x0000000000000000        0x0 ..\..\libs\ble\libbtstack.a(btstack_util.o)
 .bss           0x0000000000000000        0x0 ..\..\libs\ble\libbtstack.a(btstack_util.o)
 .data          0x0000000000000000        0x0 ..\..\libs\ble\libbtstack.a(btstack_run_loop.o)
 .bss           0x0000000000000000        0x0 ..\..\libs\ble\libbtstack.a(btstack_run_loop.o)
 .text          0x0000000000000000       0x40 ..\..\libs\ble\libbtstack.a(btstack_memory.o)
 .data          0x0000000000000000        0x0 ..\..\libs\ble\libbtstack.a(btstack_memory.o)
 .bss           0x0000000000000000       0x6c ..\..\libs\ble\libbtstack.a(btstack_memory.o)
 .text.stack.memory
                0x0000000000000000       0x12 ..\..\libs\ble\libbtstack.a(btstack_memory.o)
 .text.stack.setup
                0x0000000000000000        0x2 ..\..\libs\ble\libbtstack.a(btstack_memory.o)
 .sbss          0x0000000000000000        0x4 ..\..\libs\ble\libbtstack.a(btstack_memory.o)
 .comment       0x0000000000000000       0x13 ..\..\libs\ble\libbtstack.a(btstack_memory.o)
 .riscv.attributes
                0x0000000000000000       0x32 ..\..\libs\ble\libbtstack.a(btstack_memory.o)
 .data          0x0000000000000000        0x0 ..\..\libs\ble\libbtstack.a(hci_transport_h3_controller.o)
 .bss           0x0000000000000000       0x20 ..\..\libs\ble\libbtstack.a(hci_transport_h3_controller.o)
 .text.stack.h3c
                0x0000000000000000      0x1dc ..\..\libs\ble\libbtstack.a(hci_transport_h3_controller.o)
 .rodata.str1.4
                0x0000000000000000       0x16 ..\..\libs\ble\libbtstack.a(hci_transport_h3_controller.o)
 .com_text.stack.h3c
                0x0000000000000000       0x48 ..\..\libs\ble\libbtstack.a(hci_transport_h3_controller.o)
 .com_text.stack.util
                0x0000000000000000      0x136 ..\..\libs\ble\libbtstack.a(hci_transport_h3_controller.o)
 .text.btstack.hci.h3c.init
                0x0000000000000000       0x12 ..\..\libs\ble\libbtstack.a(hci_transport_h3_controller.o)
 .rodata        0x0000000000000000       0x20 ..\..\libs\ble\libbtstack.a(hci_transport_h3_controller.o)
 .com_rodata.stack.h3
                0x0000000000000000        0x2 ..\..\libs\ble\libbtstack.a(hci_transport_h3_controller.o)
 .hci.h3.huart  0x0000000000000000      0x10c ..\..\libs\ble\libbtstack.a(hci_transport_h3_controller.o)
 .sbss          0x0000000000000000       0x1c ..\..\libs\ble\libbtstack.a(hci_transport_h3_controller.o)
 .data          0x0000000000000000        0x0 ..\..\libs\ble\libbtstack.a(hci_transport_dummy.o)
 .bss           0x0000000000000000        0x0 ..\..\libs\ble\libbtstack.a(hci_transport_dummy.o)
 .data          0x0000000000000000        0x0 ..\..\libs\ble\libbtstack.a(btstack_main.o)
 .bss           0x0000000000000000        0x0 ..\..\libs\ble\libbtstack.a(btstack_main.o)
 .data          0x0000000000000000        0x0 ..\..\libs\ble\libbtstack.a(btstack_hal.o)
 .bss           0x0000000000000000        0x0 ..\..\libs\ble\libbtstack.a(btstack_hal.o)
 .com_text.stack.uart_isr
                0x0000000000000000       0x6c ..\..\libs\ble\libbtstack.a(btstack_hal.o)
 .text.stack.hal
                0x0000000000000000       0xa4 ..\..\libs\ble\libbtstack.a(btstack_hal.o)
 .com_text.stack.util
                0x0000000000000000       0x12 ..\..\libs\ble\libbtstack.a(btstack_hal.o)
 .sbss          0x0000000000000000        0x8 ..\..\libs\ble\libbtstack.a(btstack_hal.o)
 .data          0x0000000000000000        0x0 ..\..\libs\ble\libbtstack.a(nanos.o)
 .bss           0x0000000000000000        0x0 ..\..\libs\ble\libbtstack.a(nanos.o)
 .com_text.ret.bb
                0x0000000000000000        0x2 ..\..\libs\ble\libbtstack.a(nanos.o)
 .data          0x0000000000000000        0x0 ..\..\libs\ble\libbtstack.a(bb_sche.o)
 .com_sleep.bb  0x0000000000000000        0xa ..\..\libs\ble\libbtstack.a(bb_sche.o)
 .data          0x0000000000000000        0x0 ..\..\libs\ble\libbtstack.a(patch.o)
 .bss           0x0000000000000000        0x0 ..\..\libs\ble\libbtstack.a(patch.o)
 .text          0x0000000000000000        0x0 ..\..\libs\ble\libbtstack.a(bb_dbg.o)
 .data          0x0000000000000000        0x0 ..\..\libs\ble\libbtstack.a(bb_dbg.o)
 .bss           0x0000000000000000        0x0 ..\..\libs\ble\libbtstack.a(bb_dbg.o)
 .com_text.spi_init
                0x0000000000000000       0x60 ..\..\libs\ble\libbtstack.a(bb_dbg.o)
 .com_text.bb.putc
                0x0000000000000000       0x60 ..\..\libs\ble\libbtstack.a(bb_dbg.o)
 .text          0x0000000000000000        0x0 ..\..\libs\ble\libbtstack.a(bb_clk.o)
 .data          0x0000000000000000        0x0 ..\..\libs\ble\libbtstack.a(bb_clk.o)
 .bss           0x0000000000000000        0x0 ..\..\libs\ble\libbtstack.a(bb_clk.o)
 .data          0x0000000000000000        0x0 ..\..\libs\ble\libbtstack.a(vs.o)
 .bss           0x0000000000000000        0x0 ..\..\libs\ble\libbtstack.a(vs.o)
 .bss           0x0000000000000000        0x0 ..\..\libs\ble\libbtstack.a(rf_mate.o)
 .text.rf.vddvco.set
                0x0000000000000000       0x18 ..\..\libs\ble\libbtstack.a(rf_mate.o)
 .text.rf.vddvco.get
                0x0000000000000000        0xa ..\..\libs\ble\libbtstack.a(rf_mate.o)
 .text.rf.pll.set
                0x0000000000000000       0x12 ..\..\libs\ble\libbtstack.a(rf_mate.o)
 .data          0x0000000000000000        0x0 ..\..\libs\ble\libbtstack.a(ble_hook.o)
 .bss           0x0000000000000000        0x0 ..\..\libs\ble\libbtstack.a(ble_hook.o)
 .data          0x0000000000000000        0x0 ..\..\libs\ble\libbtstack.a(hct_proc.o)
 .bss           0x0000000000000000        0x0 ..\..\libs\ble\libbtstack.a(hct_proc.o)
 .data          0x0000000000000000        0x0 ..\..\libs\ble\libbtstack.a(hct.o)
 .bss           0x0000000000000000        0x0 ..\..\libs\ble\libbtstack.a(hct.o)
 .data          0x0000000000000000        0x0 ..\..\libs\ble\libbtstack.a(mgr_hci.o)
 .bss           0x0000000000000000        0x0 ..\..\libs\ble\libbtstack.a(mgr_hci.o)
 .data          0x0000000000000000        0x0 ..\..\libs\ble\libbtstack.a(mgr.o)
 .bss           0x0000000000000000        0x0 ..\..\libs\ble\libbtstack.a(mgr.o)
 .data          0x0000000000000000        0x0 ..\..\libs\ble\libbtstack.a(ll_adv.o)
 .bss           0x0000000000000000        0x0 ..\..\libs\ble\libbtstack.a(ll_adv.o)
 .data          0x0000000000000000        0x0 ..\..\libs\ble\libbtstack.a(ll_tbox_freq_cal.o)
 .data          0x0000000000000000        0x0 ..\..\libs\ble\libbtstack.a(ll_con_upd.o)
 .bss           0x0000000000000000        0x0 ..\..\libs\ble\libbtstack.a(ll_con_upd.o)
 .data          0x0000000000000000        0x0 ..\..\libs\ble\libbtstack.a(ll_cntl.o)
 .bss           0x0000000000000000        0x0 ..\..\libs\ble\libbtstack.a(ll_cntl.o)
 .text          0x0000000000000000        0x0 ..\..\libs\ble\libbtstack.a(ll_clk_acc.o)
 .data          0x0000000000000000        0x0 ..\..\libs\ble\libbtstack.a(ll_clk_acc.o)
 .bss           0x0000000000000000        0x0 ..\..\libs\ble\libbtstack.a(ll_clk_acc.o)
 .data          0x0000000000000000        0x0 ..\..\libs\ble\libbtstack.a(ll_chmap_upd.o)
 .bss           0x0000000000000000        0x0 ..\..\libs\ble\libbtstack.a(ll_chmap_upd.o)
 .text          0x0000000000000000        0x0 ..\..\libs\ble\libbtstack.a(ll.o)
 .data          0x0000000000000000        0x0 ..\..\libs\ble\libbtstack.a(ll.o)
 .bss           0x0000000000000000        0x0 ..\..\libs\ble\libbtstack.a(ll.o)
 .data          0x0000000000000000        0x0 ..\..\libs\ble\libbtstack.a(ble_test.o)
 .bss           0x0000000000000000        0x0 ..\..\libs\ble\libbtstack.a(ble_test.o)
 .data          0x0000000000000000        0x0 ..\..\libs\ble\libbtstack.a(ble_sync.o)
 .bss           0x0000000000000000        0x0 ..\..\libs\ble\libbtstack.a(ble_sync.o)
 .data          0x0000000000000000        0x0 ..\..\libs\ble\libbtstack.a(ble_scan.o)
 .bss           0x0000000000000000        0x0 ..\..\libs\ble\libbtstack.a(ble_scan.o)
 .data          0x0000000000000000        0x0 ..\..\libs\ble\libbtstack.a(ble_init.o)
 .bss           0x0000000000000000        0x0 ..\..\libs\ble\libbtstack.a(ble_init.o)
 .data          0x0000000000000000        0x0 ..\..\libs\ble\libbtstack.a(ble_hal.o)
 .bss           0x0000000000000000        0x0 ..\..\libs\ble\libbtstack.a(ble_hal.o)
 .data          0x0000000000000000        0x0 ..\..\libs\ble\libbtstack.a(ble_adv.o)
 .bss           0x0000000000000000        0x0 ..\..\libs\ble\libbtstack.a(ble_adv.o)
 .text          0x0000000000000000        0x0 ..\..\libs\ble\libbtstack.a(periph.o)
 .data          0x0000000000000000        0x0 ..\..\libs\ble\libbtstack.a(periph.o)
 .bss           0x0000000000000000        0x0 ..\..\libs\ble\libbtstack.a(periph.o)
 .text.huart    0x0000000000000000        0x4 ..\..\libs\ble\libbtstack.a(periph.o)
 .com_text.huart
                0x0000000000000000       0x10 ..\..\libs\ble\libbtstack.a(periph.o)
 .comment       0x0000000000000000       0x13 ..\..\libs\ble\libbtstack.a(periph.o)
 .riscv.attributes
                0x0000000000000000       0x32 ..\..\libs\ble\libbtstack.a(periph.o)
 .text          0x0000000000000000        0x0 ..\..\libs\ble\libbtstack.a(l2cap_signaling.o)
 .data          0x0000000000000000        0x0 ..\..\libs\ble\libbtstack.a(l2cap_signaling.o)
 .bss           0x0000000000000000        0x0 ..\..\libs\ble\libbtstack.a(l2cap_signaling.o)
 .text          0x0000000000000000        0x0 ..\..\libs\ble\libbtstack.a(btstack_memory_pool.o)
 .data          0x0000000000000000        0x0 ..\..\libs\ble\libbtstack.a(btstack_memory_pool.o)
 .bss           0x0000000000000000        0x0 ..\..\libs\ble\libbtstack.a(btstack_memory_pool.o)
 .text.stack.memory
                0x0000000000000000       0x54 ..\..\libs\ble\libbtstack.a(btstack_memory_pool.o)
 .comment       0x0000000000000000       0x13 ..\..\libs\ble\libbtstack.a(btstack_memory_pool.o)
 .riscv.attributes
                0x0000000000000000       0x32 ..\..\libs\ble\libbtstack.a(btstack_memory_pool.o)
 .text          0x0000000000000000        0x0 ..\..\libs\ble\libbtstack.a(patch_asm.o)
 .data          0x0000000000000000        0x0 ..\..\libs\ble\libbtstack.a(patch_asm.o)
 .bss           0x0000000000000000        0x0 ..\..\libs\ble\libbtstack.a(patch_asm.o)
 .text          0x0000000000000000        0x0 ..\..\libs\ble\libbtstack.a(platform.o)
 .data          0x0000000000000000        0x0 ..\..\libs\ble\libbtstack.a(platform.o)
 .bss           0x0000000000000000        0x0 ..\..\libs\ble\libbtstack.a(platform.o)
 .com_text.bb.dbg.bt21
                0x0000000000000000        0x4 ..\..\libs\ble\libbtstack.a(platform.o)
 .com_text.bb.utils.dummy
                0x0000000000000000        0x6 ..\..\libs\ble\libbtstack.a(platform.o)
 .data          0x0000000000000000        0x0 ..\..\libs\ble\libbtstack.a(vs_proc.o)
 .bss           0x0000000000000000        0x0 ..\..\libs\ble\libbtstack.a(vs_proc.o)
 .text          0x0000000000000000        0x0 ..\..\libs\ble\libbtstack.a(vs_fcc.o)
 .data          0x0000000000000000        0x0 ..\..\libs\ble\libbtstack.a(vs_fcc.o)
 .bss           0x0000000000000000        0x0 ..\..\libs\ble\libbtstack.a(vs_fcc.o)
 .data          0x0000000000000000        0x0 ..\..\libs\ble\libbtstack.a(adv_hook.o)
 .bss           0x0000000000000000        0x0 ..\..\libs\ble\libbtstack.a(adv_hook.o)
 .data          0x0000000000000000        0x0 ..\..\libs\ble\libbtstack.a(hct_msg.o)
 .bss           0x0000000000000000        0x0 ..\..\libs\ble\libbtstack.a(hct_msg.o)
 .data          0x0000000000000000        0x0 ..\..\libs\ble\libbtstack.a(mgr_test.o)
 .bss           0x0000000000000000        0x0 ..\..\libs\ble\libbtstack.a(mgr_test.o)
 .data          0x0000000000000000        0x0 ..\..\libs\ble\libbtstack.a(mgr_proc.o)
 .bss           0x0000000000000000        0x0 ..\..\libs\ble\libbtstack.a(mgr_proc.o)
 .data          0x0000000000000000        0x0 ..\..\libs\ble\libbtstack.a(ll_version.o)
 .bss           0x0000000000000000        0x0 ..\..\libs\ble\libbtstack.a(ll_version.o)
 .data          0x0000000000000000        0x0 ..\..\libs\ble\libbtstack.a(ll_tbox_prod_test.o)
 .bss           0x0000000000000000        0x0 ..\..\libs\ble\libbtstack.a(ll_tbox_prod_test.o)
 .data          0x0000000000000000        0x0 ..\..\libs\ble\libbtstack.a(ll_tbox_feature.o)
 .bss           0x0000000000000000        0x0 ..\..\libs\ble\libbtstack.a(ll_tbox_feature.o)
 .data          0x0000000000000000        0x0 ..\..\libs\ble\libbtstack.a(ll_proc.o)
 .bss           0x0000000000000000        0x0 ..\..\libs\ble\libbtstack.a(ll_proc.o)
 .data          0x0000000000000000        0x0 ..\..\libs\ble\libbtstack.a(ll_phy_upd.o)
 .bss           0x0000000000000000        0x0 ..\..\libs\ble\libbtstack.a(ll_phy_upd.o)
 .data          0x0000000000000000        0x0 ..\..\libs\ble\libbtstack.a(ll_length.o)
 .bss           0x0000000000000000        0x0 ..\..\libs\ble\libbtstack.a(ll_length.o)
 .data          0x0000000000000000        0x0 ..\..\libs\ble\libbtstack.a(ll_feature.o)
 .bss           0x0000000000000000        0x0 ..\..\libs\ble\libbtstack.a(ll_feature.o)
 .data          0x0000000000000000        0x0 ..\..\libs\ble\libbtstack.a(ll_encrypt.o)
 .bss           0x0000000000000000        0x0 ..\..\libs\ble\libbtstack.a(ll_encrypt.o)
 .data          0x0000000000000000        0x0 ..\..\libs\ble\libbtstack.a(ll_disconnect.o)
 .bss           0x0000000000000000        0x0 ..\..\libs\ble\libbtstack.a(ll_disconnect.o)

Memory Configuration

Name             Origin             Length             Attributes
init             0x0000000010000000 0x0000000000000200
flash            0x0000000010000200 0x000000000003e000 xr
stack            0x0000000000010800 0x0000000000000400
sram             0x0000000000010c00 0x0000000000005400
pdn_comm         0x0000000000010c00 0x0000000000000400
*default*        0x0000000000000000 0xffffffffffffffff

Linker script and memory map

LOAD Output\obj\driver\driver_clk.o
LOAD Output\obj\driver\driver_gpio.o
LOAD Output\obj\driver\driver_hsuart.o
LOAD Output\obj\driver\driver_keyscan.o
LOAD Output\obj\driver\driver_ledc.o
LOAD Output\obj\driver\driver_lowpwr.o
LOAD Output\obj\driver\driver_pwm.o
LOAD Output\obj\driver\driver_rtc.o
LOAD Output\obj\driver\driver_saradc.o
LOAD Output\obj\driver\driver_spi.o
LOAD Output\obj\driver\driver_tmr.o
LOAD Output\obj\driver\driver_uart.o
LOAD Output\obj\driver\driver_wdt.o
LOAD Output\obj\project\ble_peripheral\app\func.o
LOAD Output\obj\project\ble_peripheral\app\func_bt.o
LOAD Output\obj\project\ble_peripheral\app\func_idle.o
LOAD Output\obj\project\ble_peripheral\app\func_iodm.o
LOAD Output\obj\project\ble_peripheral\app\func_le_bqb_rf.o
LOAD Output\obj\project\ble_peripheral\app\func_le_fcc.o
LOAD Output\obj\project\ble_peripheral\app\func_lowpwr.o
LOAD Output\obj\project\ble_peripheral\app\func_tbox.o
LOAD Output\obj\project\ble_peripheral\ble\ble_adv.o
LOAD Output\obj\project\ble_peripheral\ble\ble_alarm.o
LOAD Output\obj\project\ble_peripheral\ble\ble_fota_service.o
LOAD Output\obj\project\ble_peripheral\ble\ble_init.o
LOAD Output\obj\project\ble_peripheral\ble\ble_proc.o
LOAD Output\obj\project\ble_peripheral\ble\ble_profile.o
LOAD Output\obj\project\ble_peripheral\ble\ble_service.o
LOAD Output\obj\project\ble_peripheral\ble\ble_user_service.o
LOAD Output\obj\project\ble_peripheral\bsp\bsp_huart.o
LOAD Output\obj\project\ble_peripheral\bsp\bsp_huart_iodm.o
LOAD Output\obj\project\ble_peripheral\bsp\bsp_io_key.o
LOAD Output\obj\project\ble_peripheral\bsp\bsp_key.o
LOAD Output\obj\project\ble_peripheral\bsp\bsp_param.o
LOAD Output\obj\project\ble_peripheral\bsp\bsp_saradc.o
LOAD Output\obj\project\ble_peripheral\bsp\bsp_saradc_key.o
LOAD Output\obj\project\ble_peripheral\bsp\bsp_saradc_tsen.o
LOAD Output\obj\project\ble_peripheral\bsp\bsp_saradc_vbat.o
LOAD Output\obj\project\ble_peripheral\bsp\bsp_sys.o
LOAD Output\obj\project\ble_peripheral\bsp\bsp_uart_debug.o
LOAD Output\obj\project\ble_peripheral\bsp\pwm.o
LOAD Output\obj\project\ble_peripheral\main.o
LOAD Output\obj\project\ble_peripheral\prod_test\iodm\prod_test_iodm.o
LOAD Output\obj\project\ble_peripheral\prod_test\prod_test.o
LOAD Output\obj\project\ble_peripheral\prod_test\tbox\prod_test_tbox.o
LOAD Output\obj\project\ble_peripheral\prod_test\tbox\tbox_key.o
LOAD Output\obj\project\ble_peripheral\strong_ble.o
LOAD Output\obj\project\ble_peripheral\strong_symbol.o
                0x000000000003e000                __max_flash_size = 0x3e000
                0x0000000010000000                __base = 0x10000000
                0x0000000000010600                __cache_stack_vma = 0x10600
                0x0000000000000200                __cache_stack_size = 0x200
                0x0000000000010800                __stack_vma = 0x10800
                0x0000000000000400                __stack_ram_size = 0x400
                0x0000000000010c00                __sram_vma = 0x10c00
                0x0000000000005400                __sram_ram_size = 0x5400
                0x0000000000013700                __comm_vma = __comm_start
                0x0000000000000400                __pdn_comm_ram_size = 0x400
                0x0000000000010c00                __pdn_comm_vma = __sram_vma

.init           0x0000000010000000       0x4e
 *(.reset)
 .reset         0x0000000010000000       0x4e ..\..\libs\cpu\libplatform.a(reset.o)
                0x0000000010000000                _start

.bss            0x0000000000010c00     0x2b00
                0x0000000000010c00                __bss_start = .
 *(.btmem.bthw)
 .btmem.bthw    0x0000000000010c00      0x6d4 ..\..\libs\ble\libbtstack.a(bb.o)
                0x0000000000010c00                bthw_mem
 *(.btmem*)
 .btmem.alarm   0x00000000000112d4       0x1c Output\obj\project\ble_peripheral\ble\ble_alarm.o
                0x00000000000112d4                alarm_pool
 .btmem.bb.env  0x00000000000112f0       0x60 ..\..\libs\ble\libbtstack.a(bb_int.o)
                0x00000000000112f0                bb_env
 .btmem.bb.timer
                0x0000000000011350        0x8 ..\..\libs\ble\libbtstack.a(bb_alarm.o)
 .btmem.ble.con
                0x0000000000011358        0x8 ..\..\libs\ble\libbtstack.a(ble_con.o)
                0x0000000000011358                ble_con_env
 .btmem.ble.buf
                0x0000000000011360       0x30 ..\..\libs\ble\libbtstack.a(ble_buf.o)
 .btmem.bb.ble.tbl
                0x0000000000011390       0x10 ..\..\libs\ble\libbtstack.a(ble.o)
 .btmem.alloc.bb.buf
                0x00000000000113a0      0x540 ..\..\libs\ble\libbtstack.a(bb.o)
 .btmem.bb.buf  0x00000000000118e0      0x1fc ..\..\libs\ble\libbtstack.a(bb.o)
 .btmem.bb.rf   0x0000000000011adc        0x3 ..\..\libs\ble\libbtstack.a(bb.o)
                0x0000000000011adc                rf_api
 *fill*         0x0000000000011adf        0x1 
 .btmem.cache.stack.hci
                0x0000000000011ae0      0x10b ..\..\libs\ble\libbtstack.a(hci.o)
 *fill*         0x0000000000011beb        0x1 
 .btmem.stack.hci_buf
                0x0000000000011bec      0x1f8 ..\..\libs\ble\libbtstack.a(hci.o)
 .btmem.stack.util
                0x0000000000011de4       0x12 ..\..\libs\ble\libbtstack.a(btstack_util.o)
 *fill*         0x0000000000011df6        0x2 
 .btmem.stack   0x0000000000011df8       0x14 ..\..\libs\ble\libbtstack.a(btstack_run_loop.o)
 .btmem.hci.transport.h3
                0x0000000000011e0c        0x4 ..\..\libs\ble\libbtstack.a(hci_transport_h3_controller.o)
                0x0000000000011e0c                p_hci_transport
 .btmem.bb.buf  0x0000000000011e10       0x34 ..\..\libs\ble\libbtstack.a(nanos.o)
 .btmem.hct.env
                0x0000000000011e44       0x40 ..\..\libs\ble\libbtstack.a(hct_proc.o)
 .btmem.bb.hci  0x0000000000011e84        0x2 ..\..\libs\ble\libbtstack.a(hct.o)
                0x0000000000011e84                hci_env
 *fill*         0x0000000000011e86        0x2 
 .btmem.ble.lm  0x0000000000011e88       0xc4 ..\..\libs\ble\libbtstack.a(mgr.o)
                0x0000000000011e88                mgr_env
 .btmem.ble.lc  0x0000000000011f4c        0x8 ..\..\libs\ble\libbtstack.a(ll.o)
                0x0000000000011f4c                ll_env
 .btmem.ble.test
                0x0000000000011f54        0x4 ..\..\libs\ble\libbtstack.a(ble_test.o)
 .btmem.ble.hal
                0x0000000000011f58      0x124 ..\..\libs\ble\libbtstack.a(ble_hal.o)
                0x0000000000011f58                ble_env
                0x0000000000012074                ble_exp_sync_pos_tab
 .btmem.ble.adv
                0x000000000001207c        0x8 ..\..\libs\ble\libbtstack.a(ble_adv.o)
 .btmem.bb.vs   0x0000000000012084        0xd ..\..\libs\ble\libbtstack.a(vs_proc.o)
                0x0000000000012084                vs_env
 *(.osmem*)
 *fill*         0x0000000000012091        0x3 
 .osmem         0x0000000000012094      0xc48 Output\obj\project\ble_peripheral\strong_symbol.o
                0x0000000000012094                mem_heap
 *(COMMON)
 COMMON         0x0000000000012cdc        0x4 Output\obj\project\ble_peripheral\ble\ble_alarm.o
                0x0000000000012cdc                alarm_handle
 COMMON         0x0000000000012ce0       0x22 Output\obj\project\ble_peripheral\ble\ble_fota_service.o
                0x0000000000012ce0                fot_var
 *fill*         0x0000000000012d02        0x2 
 COMMON         0x0000000000012d04       0xc4 Output\obj\project\ble_peripheral\ble\ble_user_service.o
                0x0000000000012d04                ble_user_cb
 COMMON         0x0000000000012dc8       0x37 Output\obj\project\ble_peripheral\bsp\bsp_sys.o
                0x0000000000012dc8                tmr5ms_cnt
                0x0000000000012dcc                xcfg_cb
 *(.bss*)
 *fill*         0x0000000000012dff        0x1 
 .bss.periph.saradc
                0x0000000000012e00       0x24 Output\obj\driver\driver_saradc.o
 .bss           0x0000000000012e24       0x14 Output\obj\project\ble_peripheral\ble\ble_fota_service.o
 .bss           0x0000000000012e38       0x14 Output\obj\project\ble_peripheral\ble\ble_user_service.o
 .bss           0x0000000000012e4c      0x130 ..\..\libs\cpu\libplatform.a(cm.o)
                0x0000000000012e4c                cm
 .bss           0x0000000000012f7c       0x18 ..\..\libs\cpu\libplatform.a(main.o)
                0x0000000000012f7c                sys
 .bss.irq_tbl   0x0000000000012f94       0x88 ..\..\libs\cpu\libplatform.a(interrupt.o)
 .bss.sys.timer
                0x000000000001301c        0x8 ..\..\libs\cpu\libplatform.a(interrupt.o)
 .bss.btstack   0x0000000000013024        0x4 ..\..\libs\cpu\libplatform.a(startup.o)
                0x0000000000013024                pmq_btstack
 .bss.bb.timer  0x0000000000013028        0x1 ..\..\libs\ble\libbtstack.a(bb_alarm.o)
 *fill*         0x0000000000013029        0x3 
 .bss           0x000000000001302c       0x30 ..\..\libs\ble\libbtstack.a(sm.o)
 .bss           0x000000000001305c        0xc ..\..\libs\ble\libbtstack.a(aes.o)
                0x000000000001305c                aes_env
 .bss           0x0000000000013068       0x68 ..\..\libs\ble\libbtstack.a(ble_buf.o)
 .bss.stack.l2cap
                0x00000000000130d0       0x3c ..\..\libs\ble\libbtstack.a(l2cap.o)
 .bss           0x000000000001310c      0x128 ..\..\libs\ble\libbtstack.a(bb_sche.o)
 .bss.hct.env   0x0000000000013234       0x18 ..\..\libs\ble\libbtstack.a(hct_proc.o)
 .bss           0x000000000001324c       0x28 ..\..\libs\ble\libbtstack.a(ll_tbox_freq_cal.o)
 *(.sbss*)
 .sbss          0x0000000000013274        0x2 Output\obj\project\ble_peripheral\ble\ble_fota_service.o
 *fill*         0x0000000000013276        0x2 
 .sbss          0x0000000000013278        0x4 Output\obj\project\ble_peripheral\ble\ble_init.o
                0x0000000000013278                cfg_bt_work_mode
 .sbss          0x000000000001327c        0x2 Output\obj\project\ble_peripheral\ble\ble_user_service.o
 *fill*         0x000000000001327e        0x2 
 .sbss          0x0000000000013280        0x4 Output\obj\project\ble_peripheral\bsp\pwm.o
 .sbss          0x0000000000013284        0x8 ..\..\libs\cpu\libplatform.a(os_flash.o)
                0x0000000000013284                spi_baud_w
                0x0000000000013288                spi_baud_r
 .sbss          0x000000000001328c       0x10 ..\..\libs\cpu\libplatform.a(startup.o)
                0x000000000001328c                soft_timer_isr_en
                0x0000000000013290                pmutex_clk
                0x0000000000013294                pmutex_cm
                0x0000000000013298                psem_btstack
 .sbss          0x000000000001329c        0x2 ..\..\libs\cpu\libplatform.a(fot_pack.o)
 *fill*         0x000000000001329e        0x2 
 .sbss          0x00000000000132a0        0x8 ..\..\libs\cpu\libplatform.a(lock.o)
 .sbss          0x00000000000132a8        0x8 ..\..\libs\cpu\libplatform.a(voltage_trim.o)
                0x00000000000132a8                sys_trim
 .sbss          0x00000000000132b0        0x1 ..\..\libs\cpu\libplatform.a(freq_det.o)
                0x00000000000132b0                freq_det_kick
 *fill*         0x00000000000132b1        0x3 
 .sbss          0x00000000000132b4       0x11 ..\..\libs\ble\libbtstack.a(sm.o)
 *fill*         0x00000000000132c5        0x3 
 .sbss          0x00000000000132c8        0x4 ..\..\libs\ble\libbtstack.a(att_server.o)
 .sbss          0x00000000000132cc        0xc ..\..\libs\ble\libbtstack.a(att_dispatch.o)
 .sbss          0x00000000000132d8       0x10 ..\..\libs\ble\libbtstack.a(att_db.o)
 .sbss          0x00000000000132e8        0x2 ..\..\libs\ble\libbtstack.a(btstack_api.o)
                0x00000000000132e8                btstack_cb
 .sbss          0x00000000000132ea        0x1 ..\..\libs\ble\libbtstack.a(ble_api.o)
 .sbss          0x00000000000132eb        0x1 ..\..\libs\ble\libbtstack.a(bb.o)
 .sbss          0x00000000000132ec        0x2 ..\..\libs\ble\libbtstack.a(l2cap.o)
 *fill*         0x00000000000132ee        0x2 
 .sbss          0x00000000000132f0       0x10 ..\..\libs\ble\libbtstack.a(btstack_main.o)
 .sbss          0x0000000000013300        0x8 ..\..\libs\ble\libbtstack.a(bb_sche.o)
                0x0000000000013300                ss_params
 .sbss          0x0000000000013308        0x2 ..\..\libs\ble\libbtstack.a(hct_proc.o)
 *fill*         0x000000000001330a        0x2 
 .sbss          0x000000000001330c        0x1 ..\..\libs\ble\libbtstack.a(mgr_proc.o)
 *fill*         0x000000000001330d        0x3 
 .sbss          0x0000000000013310        0x5 ..\..\libs\ble\libbtstack.a(ll_tbox_prod_test.o)
 *fill*         0x0000000000013315        0x3 
 .sbss          0x0000000000013318        0x2 ..\..\libs\ble\libbtstack.a(ll_proc.o)
 *(.buf*)
 *fill*         0x000000000001331a        0x2 
 .buf.func_cb   0x000000000001331c        0x2 Output\obj\project\ble_peripheral\app\func.o
                0x000000000001331c                func_cb
 *fill*         0x000000000001331e        0x2 
 .buf.bsp.sys_cb
                0x0000000000013320        0x8 Output\obj\project\ble_peripheral\bsp\bsp_sys.o
                0x0000000000013320                sys_cb
 .buf.light_cb  0x0000000000013328       0x29 Output\obj\project\ble_peripheral\bsp\pwm.o
 *(.ble_cache*)
 *fill*         0x0000000000013351        0x3 
 .ble_cache.att
                0x0000000000013354       0x8c Output\obj\project\ble_peripheral\ble\ble_init.o
                0x0000000000013354                ble_tx_pool
 .ble_cache.att
                0x00000000000133e0       0x10 ..\..\libs\ble\libbtstack.a(txpkt.o)
                0x00000000000133e0                txpkt_cb
 .ble_cache.sm.addr
                0x00000000000133f0        0x6 ..\..\libs\ble\libbtstack.a(sm.o)
 *fill*         0x00000000000133f6        0x2 
 .ble_cache.sm.aes
                0x00000000000133f8        0x8 ..\..\libs\ble\libbtstack.a(sm.o)
 .ble_cache.sm.irk
                0x0000000000013400       0x10 ..\..\libs\ble\libbtstack.a(sm.o)
 .ble_cache.sm.rand
                0x0000000000013410        0x4 ..\..\libs\ble\libbtstack.a(sm.o)
 .ble_cache.sm.sta
                0x0000000000013414        0x8 ..\..\libs\ble\libbtstack.a(sm.o)
 *(.ble_buf*)
 .ble_buf.var   0x000000000001341c        0x2 Output\obj\project\ble_peripheral\ble\ble_init.o
                0x000000000001341c                ble_cb
 *fill*         0x000000000001341e        0x2 
 .ble_buf.att   0x0000000000013420       0x28 ..\..\libs\ble\libbtstack.a(gatt_client.o)
 .ble_buf.att   0x0000000000013448       0x10 ..\..\libs\ble\libbtstack.a(att_server.o)
 *(.fot_data.*)
 .fot_data.buf  0x0000000000013458      0x200 Output\obj\project\ble_peripheral\ble\ble_fota_service.o
 .fot_data.com.pack
                0x0000000000013658       0x44 ..\..\libs\cpu\libplatform.a(fot_pack.o)
 *(.tbox.*)
 *(.notch_iir*)
 *(.prod_test*)
 *(.fcc.huart_buf)
 *(.hci.h3*)
                0x0000000000013700                . = ALIGN (0x100)
 *fill*         0x000000000001369c       0x64 
                0x0000000000013700                __bss_end = .
                0x0000000000002b00                __bss_size = (__bss_end - __bss_start)

.comm           0x0000000000013700     0x1100 load address 0x0000000010000200
                0x0000000000013700                __comm_start = .
 *(.vector)
 .vector        0x0000000000013700       0xc8 ..\..\libs\cpu\libplatform.a(reset.o)
                0x00000000000137a0                _exception_isr
                0x00000000000137a2                nop_isr
 *(.com_text*)
 .com_text.sleep_tick
                0x00000000000137c8        0x2 Output\obj\project\ble_peripheral\app\func_lowpwr.o
                0x00000000000137c8                lowpwr_tout_ticks
 .com_text.timer
                0x00000000000137ca        0x2 Output\obj\project\ble_peripheral\ble\ble_alarm.o
 .com_text.timer
                0x00000000000137cc       0x5c Output\obj\project\ble_peripheral\bsp\bsp_sys.o
                0x00000000000137cc                usr_tmr5ms_callback
 .com_text.isr  0x0000000000013828      0x36a Output\obj\project\ble_peripheral\bsp\pwm.o
                0x0000000000013836                pwm_isq
                0x0000000000013856                light_module_set_bright
                0x0000000000013866                light_module_set_temperature
                0x0000000000013876                light_module_10ms_function
                0x0000000000013b90                pwm_driver_10ms_isr
 .com_text.ble.phy
                0x0000000000013b92        0x4 Output\obj\project\ble_peripheral\strong_ble.o
                0x0000000000013b92                ble_phy_2M_enable
 .com_text.printf
                0x0000000000013b96        0x2 Output\obj\project\ble_peripheral\strong_symbol.o
                0x0000000000013b96                uart_debug_putchar
 .com_text.spiflash
                0x0000000000013b98       0x36 Output\obj\project\ble_peripheral\strong_symbol.o
                0x0000000000013b98                os_spiflash_addr_check
 .com_text.spiflash
                0x0000000000013bce       0x5e ..\..\libs\cpu\libplatform.a(os_flash.o)
                0x0000000000013bd2                os_spiflash_program_do
                0x0000000000013be4                os_spiflash_program
                0x0000000000013c06                os_spiflash_erase_do
                0x0000000000013c18                os_spiflash_erase
 .com_text.delay
                0x0000000000013c2c       0x54 ..\..\libs\cpu\libplatform.a(main.o)
                0x0000000000013c2c                delay_5ms
                0x0000000000013c46                delay_ms
                0x0000000000013c5e                delay_us
                0x0000000000013c76                delay
 .com_text.irq  0x0000000000013c80       0x70 ..\..\libs\cpu\libplatform.a(interrupt.o)
                0x0000000000013c80                tick0_isr
                0x0000000000013cd6                tick_get
                0x0000000000013cde                tick_check_expire
 .com_text.trim.lvd_set
                0x0000000000013cf0       0x3e ..\..\libs\cpu\libplatform.a(pmu.o)
                0x0000000000013cf0                pmu_set_lvd
                0x0000000000013d1c                pmu_set_vbg
 .com_text.exception
                0x0000000000013d2e        0xa ..\..\libs\cpu\libplatform.a(debug.o)
                0x0000000000013d2e                exception_isr
 .com_text.exception.hook
                0x0000000000013d38        0x4 ..\..\libs\cpu\libplatform.a(debug.o)
                0x0000000000013d38                sys_error_hook
 .com_text.sys  0x0000000000013d3c        0x2 ..\..\libs\cpu\libplatform.a(s_sys.o)
                0x0000000000013d3c                dummy_func
 .com_text.timer
                0x0000000000013d3e        0x4 ..\..\libs\cpu\libplatform.a(weak_symbol.o)
                0x0000000000013d40                usr_tmr1ms_isr_callback
 .com_text.stack.api
                0x0000000000013d42       0x24 ..\..\libs\cpu\libplatform.a(bt.o)
                0x0000000000013d42                ble_send_msg_do
 .com_text.stack.thread
                0x0000000000013d66       0x32 ..\..\libs\cpu\libplatform.a(bt.o)
                0x0000000000013d66                thread_btstack_pend
                0x0000000000013d88                thread_btstack_post
 .com_text.stack.run_loop
                0x0000000000013d98       0x38 ..\..\libs\cpu\libplatform.a(bt.o)
                0x0000000000013d98                thread_btstack_entry
 .com_text.bb.isr
                0x0000000000013dd0       0x7c ..\..\libs\ble\libbtstack.a(bb_int.o)
                0x0000000000013e02                bb_isr
                0x0000000000013e40                bb_hal_isr
 .com_text.bb.isr.timer
                0x0000000000013e4c       0x50 ..\..\libs\ble\libbtstack.a(bb_alarm.o)
 .com_text.bb.timer.check
                0x0000000000013e9c       0x1e ..\..\libs\ble\libbtstack.a(bb_alarm.o)
                0x0000000000013e9c                bb_timer_queue_check
 .com_text.bb.timer.push
                0x0000000000013eba       0x64 ..\..\libs\ble\libbtstack.a(bb_alarm.o)
                0x0000000000013eba                bb_timer_queue_release
                0x0000000000013ee8                bb_timer_queue_free
 .com_text.att.event_handler
                0x0000000000013f1e       0x26 ..\..\libs\ble\libbtstack.a(att_server.o)
 .com_text.stack.api
                0x0000000000013f44       0x62 ..\..\libs\ble\libbtstack.a(btstack_api.o)
                0x0000000000013f44                ble_get_status
                0x0000000000013f50                btstack_message
 .com_text.txpkt.list.push_back
                0x0000000000013fa6        0xa ..\..\libs\ble\libbtstack.a(txpkt.o)
                0x0000000000013fa6                txpkt_list_push_back
 .com_text.bb.isr.rssi
                0x0000000000013fb0        0xa ..\..\libs\ble\libbtstack.a(rf.o)
                0x0000000000013fb0                rf_rssi_calc_dbm
 .com_text.bb.rf
                0x0000000000013fba       0x26 ..\..\libs\ble\libbtstack.a(rf.o)
                0x0000000000013fba                rf_hal_init
 .com_text.ble.isr.con.end
                0x0000000000013fe0       0x9a ..\..\libs\ble\libbtstack.a(ble_con.o)
                0x0000000000013fe0                ble_con_rx_end
 .com_text.ble.isr.con.rx_desc
                0x000000000001407a        0x2 ..\..\libs\ble\libbtstack.a(ble_con.o)
                0x000000000001407a                ble_con_rx_desc
 .com_text.bb.buf
                0x000000000001407c       0xbc ..\..\libs\ble\libbtstack.a(ble_buf.o)
                0x000000000001407c                ble_buf_acl_tx_alloc
                0x00000000000140c6                ble_buf_acl_tx_free_do
                0x00000000000140d8                ble_buf_acl_tx_free
 .com_text.bb.patch
                0x0000000000014138       0x24 ..\..\libs\ble\libbtstack.a(ble_buf.o)
                0x0000000000014138                bb_patch1
                0x000000000001413a                bb_patch3
 .com_text.bb.isr
                0x000000000001415c       0x34 ..\..\libs\ble\libbtstack.a(ble.o)
                0x000000000001415c                ble_isr
 .com_text.bb.run_loop
                0x0000000000014190       0x30 ..\..\libs\ble\libbtstack.a(bb.o)
                0x0000000000014190                bb_run_loop
 .com_text.dummy
                0x00000000000141c0        0x6 ..\..\libs\ble\libbtstack.a(platform.o)
                0x00000000000141c0                dummy_void
                0x00000000000141c2                dummy_false
 .com_text.stack.hci.conn
                0x00000000000141c6        0x8 ..\..\libs\ble\libbtstack.a(hci.o)
                0x00000000000141c6                hci_get_connections
 .com_text.stack.linked_list
                0x00000000000141ce       0x10 ..\..\libs\ble\libbtstack.a(hci.o)
                0x00000000000141ce                hci_connections_get_iterator
 .com_text.stack.hci
                0x00000000000141de       0x3a ..\..\libs\ble\libbtstack.a(hci.o)
                0x00000000000141de                hci_connection_for_handle
                0x0000000000014200                hci_att_connection_for_handle
                0x0000000000014210                hci_get_outgoing_packet_buffer
 .com_text.stack.run_loop
                0x0000000000014218       0x74 ..\..\libs\ble\libbtstack.a(btstack_run_loop.o)
                0x0000000000014218                btstack_cmp_abs_tick
                0x000000000001421e                btstack_run_loop_execute_once
 .com_text.ret.stack.thread
                0x000000000001428c        0xa ..\..\libs\ble\libbtstack.a(btstack_run_loop.o)
                0x000000000001428c                btstack_run_loop_embedded_trigger
 .com_text.stack.ticks
                0x0000000000014296       0x1e ..\..\libs\ble\libbtstack.a(btstack_run_loop.o)
 .com_text.bb.nanos.trigger
                0x00000000000142b4        0x2 ..\..\libs\ble\libbtstack.a(btstack_run_loop.o)
                0x00000000000142b4                thread_nanos_task_trigger
 .com_text.hci  0x00000000000142b6        0x4 ..\..\libs\ble\libbtstack.a(hci_transport_h3_controller.o)
                0x00000000000142b6                hci_is_sleep
 .com_text.stack.handler
                0x00000000000142ba       0x1e ..\..\libs\ble\libbtstack.a(btstack_main.o)
 .com_text.stack.ticks
                0x00000000000142d8        0xa ..\..\libs\ble\libbtstack.a(btstack_hal.o)
                0x00000000000142da                sys_tick_handler
 .com_text.isr  0x00000000000142e2       0x24 ..\..\libs\ble\libbtstack.a(btstack_hal.o)
                0x00000000000142e2                bt_timer_isr
 .com_text.md.nanos
                0x0000000000014306       0x14 ..\..\libs\ble\libbtstack.a(nanos.o)
                0x0000000000014306                nanos_event_set
 .com_text.nanos.malloc
                0x000000000001431a        0xc ..\..\libs\ble\libbtstack.a(nanos.o)
                0x000000000001431a                nanos_sys_malloc
 .com_text.nanos.free
                0x0000000000014326        0xa ..\..\libs\ble\libbtstack.a(nanos.o)
                0x0000000000014326                nanos_sys_free
 .com_text.bb.frag
                0x0000000000014330       0x18 ..\..\libs\ble\libbtstack.a(bb_sche.o)
 .com_text.bb.prog
                0x0000000000014348       0x30 ..\..\libs\ble\libbtstack.a(bb_sche.o)
 .com_text.ble.isr.con.end
                0x0000000000014378       0x18 ..\..\libs\ble\libbtstack.a(patch.o)
                0x0000000000014378                bb_patch2_do
 .com_text.bb.isr
                0x0000000000014390        0xe ..\..\libs\ble\libbtstack.a(bb_clk.o)
                0x0000000000014390                bb_lpcycles_2_hus_hook
 .com_text.ble.isr
                0x000000000001439e       0x92 ..\..\libs\ble\libbtstack.a(ble_hook.o)
                0x000000000001439e                ble_isr_hook
 .com_text.bb.buf
                0x0000000000014430       0x24 ..\..\libs\ble\libbtstack.a(hct_proc.o)
                0x0000000000014430                hct_block_is_reserved
 .com_text.ble.isr.con
                0x0000000000014454      0x136 ..\..\libs\ble\libbtstack.a(ll_tbox_freq_cal.o)
                0x0000000000014454                ll_tbox_freq_cal_time_record
                0x00000000000144d8                ll_tbox_freq_cal
 .com_text.bb.patch
                0x000000000001458a       0x1a ..\..\libs\ble\libbtstack.a(patch_asm.o)
                0x000000000001458a                bb_patch2
 .com_text.bb.patch.trc
                0x00000000000145a4       0x1e ..\..\libs\ble\libbtstack.a(patch_asm.o)
                0x00000000000145a4                ll_cntl_tx_check_fix_cb
 .com_text.bb.dbg.ble
                0x00000000000145c2        0x4 ..\..\libs\ble\libbtstack.a(platform.o)
                0x00000000000145c2                bb_ll_tx_cb
                0x00000000000145c4                bb_ll_rx_cb
 *(.com_rodata*)
 *fill*         0x00000000000145c6        0x2 
 .com_rodata.pwm
                0x00000000000145c8       0x5a Output\obj\project\ble_peripheral\bsp\pwm.o
 *fill*         0x0000000000014622        0x2 
 .com_rodata.bb.err
                0x0000000000014624        0xd ..\..\libs\ble\libbtstack.a(bb_int.o)
                0x0000000000014624                str_bb_err
 *fill*         0x0000000000014631        0x3 
 .com_rodata.bb.tbl
                0x0000000000014634       0x18 ..\..\libs\ble\libbtstack.a(ble_buf.o)
 .com_rodata.bb.err
                0x000000000001464c        0xf ..\..\libs\ble\libbtstack.a(ble.o)
                0x000000000001464c                str_ble_err
 *fill*         0x000000000001465b        0x1 
 .com_rodata.bb.tbl
                0x000000000001465c       0x10 ..\..\libs\ble\libbtstack.a(bb_utils.o)
                0x000000000001465c                bb_sca2ppm
 .com_rodata.bb.tbl.bits
                0x000000000001466c       0x10 ..\..\libs\ble\libbtstack.a(bb_utils.o)
                0x000000000001466c                one_bits
 .com_rodata.bb.tbl.i2m
                0x000000000001467c        0x4 ..\..\libs\ble\libbtstack.a(bb_utils.o)
                0x000000000001467c                bb_phy_value_to_mask
 .com_rodata.bb.tbl.phy.i2r
                0x0000000000014680        0x4 ..\..\libs\ble\libbtstack.a(bb_utils.o)
                0x0000000000014680                bb_phy_to_rate
 .com_rodata.bb.tbl.phy.m2i
                0x0000000000014684        0x5 ..\..\libs\ble\libbtstack.a(bb_utils.o)
                0x0000000000014684                bb_phy_mask_to_value
 *fill*         0x0000000000014689        0x3 
 .com_rodata.bb.tbl.phy.r2i
                0x000000000001468c        0x5 ..\..\libs\ble\libbtstack.a(bb_utils.o)
                0x000000000001468c                bb_rate_to_phy
 *fill*         0x0000000000014691        0x3 
 .com_rodata.bb.tbl
                0x0000000000014694       0x16 ..\..\libs\ble\libbtstack.a(bb.o)
                0x0000000000014694                bb_priority
 *fill*         0x00000000000146aa        0x2 
 .com_rodata.bb.tbl
                0x00000000000146ac        0xc ..\..\libs\ble\libbtstack.a(hct_proc.o)
 .com_rodata.bb.tbl
                0x00000000000146b8        0xc ..\..\libs\ble\libbtstack.a(vs_proc.o)
                0x00000000000146b8                vs_msg_env
 .com_rodata.bb.tbl
                0x00000000000146c4        0xc ..\..\libs\ble\libbtstack.a(mgr_proc.o)
                0x00000000000146c4                mgr_msg_env
 .com_rodata.bb.tbl
                0x00000000000146d0        0xc ..\..\libs\ble\libbtstack.a(ll_proc.o)
                0x00000000000146d0                ll_msg_env
 *debug.o(.rodata*)
 *(.com_periph.*)
 .com_periph.gpio.reset
                0x00000000000146dc        0x4 Output\obj\driver\driver_gpio.o
                0x00000000000146dc                gpio_reset_bits
 .com_periph.tmr.get
                0x00000000000146e0       0x18 Output\obj\driver\driver_pwm.o
                0x00000000000146e0                tmrp_get_flag
 .com_periph.tmr.clear
                0x00000000000146f8       0x16 Output\obj\driver\driver_pwm.o
                0x00000000000146f8                tmrp_clear_flag
 *(.data*)
 *fill*         0x000000000001470e        0x2 
 .data          0x0000000000014710       0x28 ..\..\libs\ble\libbtstack.a(rf_mate.o)
                0x000000000001471c                rf_init_cb
 *(.sdata*)
 .sdata         0x0000000000014738       0x1d Output\obj\project\ble_peripheral\bsp\pwm.o
 .sdata         0x0000000000014755        0x1 Output\obj\project\ble_peripheral\strong_symbol.o
                0x0000000000014755                cfg_spiflash_speed_up_en
 *fill*         0x0000000000014756        0x2 
 .sdata         0x0000000000014758        0x4 ..\..\libs\cpu\libplatform.a(debug.o)
                0x0000000000014758                cpu_gprs
 .sdata         0x000000000001475c        0xc ..\..\libs\ble\libbtstack.a(btstack_hal.o)
 .sdata         0x0000000000014768        0x1 ..\..\libs\ble\libbtstack.a(rf_mate.o)
 *(.notch_iir_text*)
                0x0000000000014800                . = ALIGN (0x200)
 *fill*         0x0000000000014769       0x97 
                0x0000000000014800                __comm_end = .
                0x0000000000001100                __comm_size = (__comm_end - __comm_start)

.pdn_comm       0x0000000000010c00      0x200 load address 0x0000000010001300
 *(.com_pwroff*)
 .com_pwroff.mode2
                0x0000000000010c00      0x188 Output\obj\driver\driver_lowpwr.o
                0x0000000000010c00                pwroff_mode2_final
                0x0000000000010c9a                lowpwr_pwroff_mode2_do
                0x0000000000010e00                . = ALIGN (0x200)
 *fill*         0x0000000000010d88       0x78 

.flash          0x0000000010001600    0x11600
                0x0000000010001600                __code_start_app_proc = .
 *(.text.app.proc.*)
 .text.app.proc.func
                0x0000000010001600       0x18 Output\obj\project\ble_peripheral\app\func.o
                0x0000000010001600                func_process
 .text.app.proc.msg
                0x0000000010001618        0x8 Output\obj\project\ble_peripheral\app\func_bt.o
                0x0000000010001618                func_bt_message
 .text.app.proc.bt
                0x0000000010001620        0xe Output\obj\project\ble_peripheral\app\func_bt.o
                0x0000000010001620                func_bt_sub_process
                0x0000000010001622                func_bt_process
 .text.app.proc.fot
                0x000000001000162e       0x28 Output\obj\project\ble_peripheral\ble\ble_fota_service.o
                0x000000001000162e                ble_fota_process
 .text.app.proc.ble
                0x0000000010001656        0xc Output\obj\project\ble_peripheral\ble\ble_proc.o
                0x0000000010001656                ble_app_proc
 .text.app.proc.ble
                0x0000000010001662       0x48 Output\obj\project\ble_peripheral\ble\ble_user_service.o
                0x0000000010001662                ble_user_service_proc
 .text.app.proc.test
                0x00000000100016aa        0x2 Output\obj\project\ble_peripheral\prod_test\prod_test.o
                0x00000000100016aa                prod_test_process
                0x0000000010001800                . = ALIGN (0x200)
 *fill*         0x00000000100016ac      0x154 
                0x0000000010001800                __code_end_app_proc = .
                0x0000000010001800                __code_start_stack_send = .
 *(.text.stack.send.*)
 .text.stack.send.txpkt
                0x0000000010001800      0x1de ..\..\libs\ble\libbtstack.a(txpkt.o)
                0x0000000010001800                txpkt_send
                0x00000000100018c2                txpkt_event_send
                0x00000000100018f6                txpkt_server_send_tick
                0x0000000010001904                txpkt_client_send_tick
 .text.stack.send.ntf_do
                0x00000000100019de       0x4e ..\..\libs\ble\libbtstack.a(gatt_server.o)
 .text.stack.send.ntf
                0x0000000010001a2c       0x16 ..\..\libs\ble\libbtstack.a(gatt_server.o)
                0x0000000010001a2c                ble_send_notify_packet
                0x0000000010001a3e                ble_notify_for_handle
 .text.stack.send.server
                0x0000000010001a42       0x8c ..\..\libs\ble\libbtstack.a(gatt_server.o)
                0x0000000010001a42                att_event_server_txpkt_send
                0x0000000010001ab6                btstack_ble_server_send_req
 .text.stack.send.server
                0x0000000010001ace       0x1e ..\..\libs\ble\libbtstack.a(att_server.o)
                0x0000000010001ace                att_server_request_can_send_now_event
 .text.stack.send.ntf
                0x0000000010001aec       0x52 ..\..\libs\ble\libbtstack.a(att_server.o)
                0x0000000010001aec                att_server_notify
 .text.stack.send.dispatch_server
                0x0000000010001b3e        0xc ..\..\libs\ble\libbtstack.a(att_dispatch.o)
                0x0000000010001b3e                att_dispatch_server_request_can_send_now_event
 .text.stack.send.ntf
                0x0000000010001b4a       0x3e ..\..\libs\ble\libbtstack.a(att_db.o)
                0x0000000010001b4a                att_prepare_handle_value_notification
 .text.stack.send.kick
                0x0000000010001b88       0x1a ..\..\libs\ble\libbtstack.a(ble_api.o)
                0x0000000010001b88                ble_send_kick
 .text.stack.send.l2cap
                0x0000000010001ba2       0x6e ..\..\libs\ble\libbtstack.a(l2cap.o)
                0x0000000010001ba2                l2cap_request_can_send_fix_channel_now_event
                0x0000000010001bc8                l2cap_send_prepared_connectionless
 .text.stack.send.hci
                0x0000000010001c10       0xe6 ..\..\libs\ble\libbtstack.a(hci.o)
                0x0000000010001cb2                hci_send_acl_packet_buffer
 .text.stack.send.acl
                0x0000000010001cf6       0xe0 ..\..\libs\ble\libbtstack.a(ll_proc.o)
                0x0000000010001cf6                hci_acl_data_func
                0x0000000010001e00                . = ALIGN (0x200)
 *fill*         0x0000000010001dd6       0x2a 
                0x0000000010001e00                __code_end_stack_send = .
                0x0000000010001e00                __code_start_sleep_send = .
 *(.com_sleep*)
 .com_sleep.rf.txpwr
                0x0000000010001e00        0x8 Output\obj\project\ble_peripheral\strong_ble.o
                0x0000000010001e00                bt_rf_get_tx_pwr
 .com_sleep.bb.putc
                0x0000000010001e08        0x2 ..\..\libs\ble\libbtstack.a(bb_dbg.o)
                0x0000000010001e08                bb_dbg_init
 .com_sleep.rfphy
                0x0000000010001e0a       0xf0 ..\..\libs\ble\libbtstack.a(rf_mate.o)
                0x0000000010001e86                rfphy_txrx_init
 .com_sleep.rfphy.init
                0x0000000010001efa       0x6a ..\..\libs\ble\libbtstack.a(rf_mate.o)
                0x0000000010001efa                rfphy_init
 .com_sleep.rf  0x0000000010001f64       0x36 ..\..\libs\ble\libbtstack.a(rf_mate.o)
                0x0000000010001f64                modem_init
                0x0000000010002000                . = ALIGN (0x200)
 *fill*         0x0000000010001f9a       0x66 
                0x0000000010002000                __code_end_sleep_send = .
 *(.text*)
 .text.clk_gate0_cmd
                0x0000000010002000       0x16 Output\obj\driver\driver_clk.o
                0x0000000010002000                clk_gate0_cmd
 .text.clk_gate2_cmd
                0x0000000010002016       0x16 Output\obj\driver\driver_clk.o
                0x0000000010002016                clk_gate2_cmd
 .text.gpio_init
                0x000000001000202c      0x122 Output\obj\driver\driver_gpio.o
                0x000000001000202c                gpio_init
 .text.gpio_func_mapping_config
                0x000000001000214e       0xac Output\obj\driver\driver_gpio.o
                0x000000001000214e                gpio_func_mapping_config
 .text.wko_io_config
                0x00000000100021fa       0x3e Output\obj\driver\driver_gpio.o
                0x00000000100021fa                wko_io_config
 .text.wk0_edge_capture_config
                0x0000000010002238       0x60 Output\obj\driver\driver_gpio.o
                0x0000000010002238                wk0_edge_capture_config
 .text.gpio_edge_capture_config
                0x0000000010002298       0xd4 Output\obj\driver\driver_gpio.o
                0x0000000010002298                gpio_edge_capture_config
 .text.lowpwr_get_wakeup_source
                0x000000001000236c       0x80 Output\obj\driver\driver_lowpwr.o
                0x000000001000236c                lowpwr_get_wakeup_source
 .text.lowpwr_wakeup_disable
                0x00000000100023ec       0x38 Output\obj\driver\driver_lowpwr.o
                0x00000000100023ec                lowpwr_wakeup_disable
 .text.lowpwr_wk0_wakeup_config
                0x0000000010002424       0x72 Output\obj\driver\driver_lowpwr.o
                0x0000000010002424                lowpwr_wk0_wakeup_config
 .text.lowpwr_gpio_wakeup_config
                0x0000000010002496       0x3c Output\obj\driver\driver_lowpwr.o
                0x0000000010002496                lowpwr_gpio_wakeup_config
 .text.lowpwr_wakeup_config
                0x00000000100024d2       0xd8 Output\obj\driver\driver_lowpwr.o
                0x00000000100024d2                lowpwr_wakeup_config
 .text.tmrp_base_init
                0x00000000100025aa      0x11a Output\obj\driver\driver_pwm.o
                0x00000000100025aa                tmrp_base_init
 .text.tmrp_open_pwm
                0x00000000100026c4       0x1a Output\obj\driver\driver_pwm.o
                0x00000000100026c4                tmrp_open_pwm
 .text.tmrp_set_duty
                0x00000000100026de       0x4c Output\obj\driver\driver_pwm.o
                0x00000000100026de                tmrp_set_duty
 .text.tmrp_set_period
                0x000000001000272a        0x4 Output\obj\driver\driver_pwm.o
                0x000000001000272a                tmrp_set_period
 .text.tmrp_set_g2period
                0x000000001000272e        0x4 Output\obj\driver\driver_pwm.o
                0x000000001000272e                tmrp_set_g2period
 .text.tmrp_cmd
                0x0000000010002732       0x10 Output\obj\driver\driver_pwm.o
                0x0000000010002732                tmrp_cmd
 .text.saradc_deinit
                0x0000000010002742       0xca Output\obj\driver\driver_saradc.o
                0x0000000010002742                saradc_deinit
 .text.func.msg
                0x000000001000280c        0x2 Output\obj\project\ble_peripheral\app\func.o
                0x000000001000280c                func_message
 .text.func     0x000000001000280e       0x44 Output\obj\project\ble_peripheral\app\func.o
                0x000000001000280e                func_enter
                0x0000000010002812                func_exit
                0x000000001000281c                func_run
 .text.func.msg
                0x0000000010002852        0xc Output\obj\project\ble_peripheral\app\func_bt.o
                0x0000000010002852                func_bt_message_do
 .text.func.bt  0x000000001000285e       0x5a Output\obj\project\ble_peripheral\app\func_bt.o
                0x000000001000285e                func_bt_init
                0x0000000010002862                func_bt_enter
                0x0000000010002878                func_bt_exit
                0x0000000010002892                func_bt
 .text.func.idle.msg
                0x00000000100028b8        0xc Output\obj\project\ble_peripheral\app\func_idle.o
                0x00000000100028b8                func_idle_message
 .text.func.idle
                0x00000000100028c4       0x2c Output\obj\project\ble_peripheral\app\func_idle.o
                0x00000000100028c4                func_idle_process
                0x00000000100028c8                func_idle
 .text.lowpwr_pwroff_wakeup_config
                0x00000000100028f0       0x1c Output\obj\project\ble_peripheral\app\func_lowpwr.o
                0x00000000100028f0                lowpwr_pwroff_wakeup_config
 .text.lowpwr.pwroff
                0x000000001000290c       0x30 Output\obj\project\ble_peripheral\app\func_lowpwr.o
                0x000000001000290c                func_pwroff
 .text.ble_get_scan_data
                0x000000001000293c       0x4c Output\obj\project\ble_peripheral\ble\ble_adv.o
                0x000000001000293c                ble_get_scan_data
 .text.ble_get_adv_data
                0x0000000010002988       0x92 Output\obj\project\ble_peripheral\ble\ble_adv.o
                0x0000000010002988                ble_get_adv_data
 .text.ble_adv_param_init
                0x0000000010002a1a       0x52 Output\obj\project\ble_peripheral\ble\ble_adv.o
                0x0000000010002a1a                ble_adv_param_init
 .text.ble_alarm_init
                0x0000000010002a6c       0x32 Output\obj\project\ble_peripheral\ble\ble_alarm.o
                0x0000000010002a6c                ble_alarm_init
 .text.fota_read_callback
                0x0000000010002a9e       0x32 Output\obj\project\ble_peripheral\ble\ble_fota_service.o
 .text.fot.cache
                0x0000000010002ad0      0x5c6 Output\obj\project\ble_peripheral\ble\ble_fota_service.o
                0x0000000010002b24                fot_recv_proc
                0x0000000010002f96                ble_fota_process_do
                0x0000000010003010                ble_fota_flag_do
 .text.fot.update
                0x0000000010003096       0x90 Output\obj\project\ble_peripheral\ble\ble_fota_service.o
                0x0000000010003096                ble_fota_init
                0x00000000100030c2                ble_fota_pause
                0x00000000100030e0                ble_fota_continue
 .text.ble_fota_exit
                0x0000000010003126       0x32 Output\obj\project\ble_peripheral\ble\ble_fota_service.o
                0x0000000010003126                ble_fota_exit
 .text.fota_ble_disconnect_callback
                0x0000000010003158       0x14 Output\obj\project\ble_peripheral\ble\ble_fota_service.o
                0x0000000010003158                fota_ble_disconnect_callback
 .text.fota_event_callback
                0x000000001000316c       0x38 Output\obj\project\ble_peripheral\ble\ble_fota_service.o
 .text.fota_write_callback
                0x00000000100031a4       0x60 Output\obj\project\ble_peripheral\ble\ble_fota_service.o
 .text.ble_fota_service_init
                0x0000000010003204       0x46 Output\obj\project\ble_peripheral\ble\ble_fota_service.o
                0x0000000010003204                ble_fota_service_init
 .text.ble_set_work_mode
                0x000000001000324a        0x8 Output\obj\project\ble_peripheral\ble\ble_init.o
                0x000000001000324a                ble_set_work_mode
 .text.ble_txpkt_init
                0x0000000010003252        0xe Output\obj\project\ble_peripheral\ble\ble_init.o
                0x0000000010003252                ble_txpkt_init
 .text.ble_periph_init
                0x0000000010003260       0x1c Output\obj\project\ble_peripheral\ble\ble_init.o
                0x0000000010003260                ble_periph_init
 .text.bsp_ble_init
                0x000000001000327c       0x26 Output\obj\project\ble_peripheral\ble\ble_init.o
                0x000000001000327c                bsp_ble_init
 .text.ble_get_profile_data
                0x00000000100032a2        0xa Output\obj\project\ble_peripheral\ble\ble_profile.o
                0x00000000100032a2                ble_get_profile_data
 .text.ble_service_init
                0x00000000100032ac        0xc Output\obj\project\ble_peripheral\ble\ble_service.o
                0x00000000100032ac                ble_service_init
 .text.service_write_callback
                0x00000000100032b8       0x2a Output\obj\project\ble_peripheral\ble\ble_user_service.o
 .text.ble_event_callback
                0x00000000100032e2       0x38 Output\obj\project\ble_peripheral\ble\ble_user_service.o
 .text.service_read_callback
                0x000000001000331a       0x48 Output\obj\project\ble_peripheral\ble\ble_user_service.o
 .text.service_notify_event
                0x0000000010003362       0x42 Output\obj\project\ble_peripheral\ble\ble_user_service.o
                0x0000000010003362                service_notify_event
 .text.ble_user_service_init
                0x00000000100033a4       0x46 Output\obj\project\ble_peripheral\ble\ble_user_service.o
                0x00000000100033a4                ble_user_service_init
 .text.bsp.param
                0x00000000100033ea       0x18 Output\obj\project\ble_peripheral\bsp\bsp_param.o
                0x00000000100033ea                bsp_param_init
                0x00000000100033f6                bsp_param_write
                0x00000000100033fa                bsp_param_read
                0x00000000100033fe                bsp_param_sync
 .text.bsp.param.fota
                0x0000000010003402       0x70 Output\obj\project\ble_peripheral\bsp\bsp_param.o
                0x0000000010003402                param_fot_addr_write
                0x0000000010003416                param_fot_addr_read
                0x000000001000341e                param_fot_remote_ver_write
                0x0000000010003432                param_fot_remote_ver_read
                0x000000001000343a                param_fot_head_info_write
                0x000000001000344e                param_fot_head_info_read
                0x0000000010003456                param_fot_hash_write
                0x000000001000346a                param_fot_hash_read
 .text.sys_ram_info_dump
                0x0000000010003472        0x2 Output\obj\project\ble_peripheral\bsp\bsp_sys.o
                0x0000000010003472                sys_ram_info_dump
 .text.bsp.sys.init
                0x0000000010003474       0x86 Output\obj\project\ble_peripheral\bsp\bsp_sys.o
                0x0000000010003474                bsp_sys_init
 .text.light_module_check_save_param_event
                0x00000000100034fa       0xb6 Output\obj\project\ble_peripheral\bsp\pwm.o
                0x00000000100034fa                light_module_check_save_param_event
 .text.pwm_init
                0x00000000100035b0      0x1c2 Output\obj\project\ble_peripheral\bsp\pwm.o
                0x00000000100035b0                pwm_init
 .text.light_module_ble_event
                0x0000000010003772      0x2da Output\obj\project\ble_peripheral\bsp\pwm.o
                0x0000000010003772                light_module_ble_event
 .text.light_mode_event
                0x0000000010003a4c       0x12 Output\obj\project\ble_peripheral\bsp\pwm.o
                0x0000000010003a4c                light_mode_event
 .text.startup.main
                0x0000000010003a5e       0x32 Output\obj\project\ble_peripheral\main.o
                0x0000000010003a5e                main
 .text.prod_test_init
                0x0000000010003a90        0x2 Output\obj\project\ble_peripheral\prod_test\prod_test.o
                0x0000000010003a90                prod_test_init
 .text.hci_fcc_init
                0x0000000010003a92        0x2 Output\obj\project\ble_peripheral\strong_ble.o
                0x0000000010003a92                hci_fcc_init
 .text.bt_uart_isr
                0x0000000010003a94        0x4 Output\obj\project\ble_peripheral\strong_ble.o
                0x0000000010003a94                bt_uart_isr
 .text.ble_sm_server_event_do
                0x0000000010003a98        0x2 Output\obj\project\ble_peripheral\strong_ble.o
                0x0000000010003a98                ble_sm_server_event_do
 .text.sm_send_security_request
                0x0000000010003a9a        0x2 Output\obj\project\ble_peripheral\strong_ble.o
                0x0000000010003a9a                sm_send_security_request
 .text.sm_request_pairing
                0x0000000010003a9c        0x2 Output\obj\project\ble_peripheral\strong_ble.o
                0x0000000010003a9c                sm_request_pairing
 .text.sm_passkey_input
                0x0000000010003a9e        0x2 Output\obj\project\ble_peripheral\strong_ble.o
                0x0000000010003a9e                sm_passkey_input
 .text.sm_passkey_input_get
                0x0000000010003aa0        0x4 Output\obj\project\ble_peripheral\strong_ble.o
                0x0000000010003aa0                sm_passkey_input_get
 .text.ble_get_local_bd_addr
                0x0000000010003aa4       0x14 Output\obj\project\ble_peripheral\strong_ble.o
                0x0000000010003aa4                ble_get_local_bd_addr
 .text.bt_rf_get_param
                0x0000000010003ab8       0x16 Output\obj\project\ble_peripheral\strong_ble.o
                0x0000000010003ab8                bt_rf_get_param
 .text.ble_get_link_info
                0x0000000010003ace        0x6 Output\obj\project\ble_peripheral\strong_ble.o
                0x0000000010003ace                ble_get_link_info
 .text.ble_put_link_info
                0x0000000010003ad4       0x10 Output\obj\project\ble_peripheral\strong_ble.o
                0x0000000010003ad4                ble_put_link_info
 .text.ble_mtu_exchange_enabled
                0x0000000010003ae4        0x4 Output\obj\project\ble_peripheral\strong_ble.o
                0x0000000010003ae4                ble_mtu_exchange_enabled
 .text.ble_disconnected_restart_adv
                0x0000000010003ae8        0x4 Output\obj\project\ble_peripheral\strong_ble.o
                0x0000000010003ae8                ble_disconnected_restart_adv
 .text.ble_rx_exit_sleep
                0x0000000010003aec        0x4 Output\obj\project\ble_peripheral\strong_ble.o
                0x0000000010003aec                ble_rx_exit_sleep
 .text.ble_feature_exchange_enabled
                0x0000000010003af0        0x4 Output\obj\project\ble_peripheral\strong_ble.o
                0x0000000010003af0                ble_feature_exchange_enabled
 .text.ble_length_request_enabled
                0x0000000010003af4        0x4 Output\obj\project\ble_peripheral\strong_ble.o
                0x0000000010003af4                ble_length_request_enabled
 .text.ble_phy_update_enable
                0x0000000010003af8        0x4 Output\obj\project\ble_peripheral\strong_ble.o
                0x0000000010003af8                ble_phy_update_enable
 .text.mem_heap_size_get
                0x0000000010003afc        0x8 Output\obj\project\ble_peripheral\strong_symbol.o
                0x0000000010003afc                mem_heap_size_get
 .text.thread_cfg_get
                0x0000000010003b04        0xa Output\obj\project\ble_peripheral\strong_symbol.o
                0x0000000010003b04                thread_cfg_get
 .text.thread_create_callback
                0x0000000010003b0e        0x4 Output\obj\project\ble_peripheral\strong_symbol.o
                0x0000000010003b0e                thread_create_callback
 .text.xosc_get_xcfg
                0x0000000010003b12       0x20 Output\obj\project\ble_peripheral\strong_symbol.o
                0x0000000010003b12                xosc_get_xcfg
 .text.param_xosc_read
                0x0000000010003b32        0x8 Output\obj\project\ble_peripheral\strong_symbol.o
                0x0000000010003b32                param_xosc_read
 .text.param_xosc_write
                0x0000000010003b3a       0x14 Output\obj\project\ble_peripheral\strong_symbol.o
                0x0000000010003b3a                param_xosc_write
 .text.sys_clk_change_callback
                0x0000000010003b4e        0x2 Output\obj\project\ble_peripheral\strong_symbol.o
                0x0000000010003b4e                sys_clk_change_callback
 .text.uart_debug_init_callback
                0x0000000010003b50        0xc Output\obj\project\ble_peripheral\strong_symbol.o
                0x0000000010003b50                uart_debug_init_callback
 .text.cm_loadpage
                0x0000000010003b5c       0xb0 ..\..\libs\cpu\libplatform.a(cm.o)
 .text.cm_next_freepage
                0x0000000010003c0c       0x54 ..\..\libs\cpu\libplatform.a(cm.o)
 .text.cm_loadparam
                0x0000000010003c60        0x4 ..\..\libs\cpu\libplatform.a(cm.o)
                0x0000000010003c60                cm_loadparam
 .text.cm_factory
                0x0000000010003c64        0xa ..\..\libs\cpu\libplatform.a(cm.o)
                0x0000000010003c64                cm_factory
 .text.cm_addr_check
                0x0000000010003c6e        0x4 ..\..\libs\cpu\libplatform.a(cm.o)
                0x0000000010003c6e                cm_addr_check
 .text.cm_writepage
                0x0000000010003c72       0x28 ..\..\libs\cpu\libplatform.a(cm.o)
 .text.cm_movepage
                0x0000000010003c9a       0x54 ..\..\libs\cpu\libplatform.a(cm.o)
 .text.cm_erase
                0x0000000010003cee       0x1c ..\..\libs\cpu\libplatform.a(cm.o)
 .text.cm_release
                0x0000000010003d0a       0xfe ..\..\libs\cpu\libplatform.a(cm.o)
 .text.cm_savepage
                0x0000000010003e08       0xda ..\..\libs\cpu\libplatform.a(cm.o)
 .text.cm_check_loadpage
                0x0000000010003ee2       0xb0 ..\..\libs\cpu\libplatform.a(cm.o)
 .text.cm_sync  0x0000000010003f92       0x3e ..\..\libs\cpu\libplatform.a(cm.o)
                0x0000000010003f92                cm_sync
 .text.cm_read  0x0000000010003fd0       0x44 ..\..\libs\cpu\libplatform.a(cm.o)
                0x0000000010003fd0                cm_read
 .text.cm_write
                0x0000000010004014       0x5e ..\..\libs\cpu\libplatform.a(cm.o)
                0x0000000010004014                cm_write
 .text.cm_init  0x0000000010004072      0x1e2 ..\..\libs\cpu\libplatform.a(cm.o)
                0x0000000010004072                cm_init
 .text.xcfg_init
                0x0000000010004254       0x4c ..\..\libs\cpu\libplatform.a(xcfg.o)
                0x0000000010004254                xcfg_init
 .text.platform_main
                0x00000000100042a0      0x152 ..\..\libs\cpu\libplatform.a(main.o)
                0x00000000100042a0                platform_main
 .text.main_startup
                0x00000000100043f2        0xe ..\..\libs\cpu\libplatform.a(main.o)
                0x00000000100043f2                main_startup
 .text.register_isr
                0x0000000010004400       0x38 ..\..\libs\cpu\libplatform.a(interrupt.o)
                0x0000000010004400                register_isr
 .text.soft_irq_init
                0x0000000010004438       0x44 ..\..\libs\cpu\libplatform.a(interrupt.o)
                0x0000000010004438                soft_irq_init
 .text.bthw_irq_init
                0x000000001000447c        0xe ..\..\libs\cpu\libplatform.a(interrupt.o)
                0x000000001000447c                bthw_irq_init
 .text.sys_timer_init
                0x000000001000448a       0x5e ..\..\libs\cpu\libplatform.a(interrupt.o)
                0x000000001000448a                sys_timer_init
 .text.thread_btstack_create
                0x00000000100044e8       0x82 ..\..\libs\cpu\libplatform.a(startup.o)
                0x00000000100044e8                thread_btstack_create
 .text.thread_main_entry
                0x000000001000456a       0x2e ..\..\libs\cpu\libplatform.a(startup.o)
 .text.startup.init
                0x0000000010004598      0x100 ..\..\libs\cpu\libplatform.a(startup.o)
                0x0000000010004598                platform_init
                0x00000000100045a0                sys_startup
 .text.bt_set_timer_enable
                0x0000000010004698       0x16 ..\..\libs\cpu\libplatform.a(startup.o)
                0x0000000010004698                bt_set_timer_enable
 .text.sys_set_tmr_enable
                0x00000000100046ae       0x20 ..\..\libs\cpu\libplatform.a(startup.o)
                0x00000000100046ae                sys_set_tmr_enable
 .text.sys_hook_init
                0x00000000100046ce        0x2 ..\..\libs\cpu\libplatform.a(sys_hook.o)
                0x00000000100046ce                sys_hook_init
 .text.pll0_vco_band_trimming
                0x00000000100046d0      0x176 ..\..\libs\cpu\libplatform.a(pll.o)
                0x00000000100046d0                pll0_vco_band_trimming
 .text.pll0_init
                0x0000000010004846       0x62 ..\..\libs\cpu\libplatform.a(pll.o)
                0x0000000010004846                pll0_init
 .text.pll0_disable
                0x00000000100048a8       0x16 ..\..\libs\cpu\libplatform.a(pll.o)
                0x00000000100048a8                pll0_disable
 .text.pmu_set_buck_mode
                0x00000000100048be       0x48 ..\..\libs\cpu\libplatform.a(pmu.o)
                0x00000000100048be                pmu_set_buck_mode
 .text.pmu_voltage_configure
                0x0000000010004906       0x48 ..\..\libs\cpu\libplatform.a(pmu.o)
                0x0000000010004906                pmu_voltage_configure
 .text.pmu_init
                0x000000001000494e      0x2e8 ..\..\libs\cpu\libplatform.a(pmu.o)
                0x000000001000494e                pmu_init
 .text.debug_set
                0x0000000010004c36       0x20 ..\..\libs\cpu\libplatform.a(debug.o)
                0x0000000010004c36                debug_set
 .text.ota_pack
                0x0000000010004c56      0x456 ..\..\libs\cpu\libplatform.a(fot_pack.o)
                0x0000000010004d30                ota_pack_init
                0x0000000010004d5c                ota_pack_verify
 .text.ota_pack_get_curaddr
                0x00000000100050ac        0x8 ..\..\libs\cpu\libplatform.a(fot_pack.o)
                0x00000000100050ac                ota_pack_get_curaddr
 .text.ota_pack_get_err
                0x00000000100050b4       0x10 ..\..\libs\cpu\libplatform.a(fot_pack.o)
                0x00000000100050b4                ota_pack_get_err
 .text.ota_pack_is_update_success
                0x00000000100050c4        0x8 ..\..\libs\cpu\libplatform.a(fot_pack.o)
                0x00000000100050c4                ota_pack_is_update_success
 .text.ota_pack_done
                0x00000000100050cc       0x44 ..\..\libs\cpu\libplatform.a(fot_pack.o)
                0x00000000100050cc                ota_pack_done
 .text.fot.cache
                0x0000000010005110      0x11e ..\..\libs\cpu\libplatform.a(fot_pack.o)
                0x0000000010005110                ota_pack_write
 .text.ota_pack_breakpoint_info_read
                0x000000001000522e       0x9e ..\..\libs\cpu\libplatform.a(fot_pack.o)
                0x000000001000522e                ota_pack_breakpoint_info_read
 .text.lock_init
                0x00000000100052cc       0x10 ..\..\libs\cpu\libplatform.a(lock.o)
                0x00000000100052cc                lock_init
 .text.patch_init
                0x00000000100052dc       0x1e ..\..\libs\cpu\libplatform.a(patch.o)
                0x00000000100052dc                patch_init
 .text.udivmoddi4
                0x00000000100052fa       0x96 ..\..\libs\cpu\libplatform.a(sys.o)
 .text.sys_rst_init
                0x0000000010005390       0x84 ..\..\libs\cpu\libplatform.a(sys.o)
                0x0000000010005390                sys_rst_init
 .text.sys_rst_dump
                0x0000000010005414       0x74 ..\..\libs\cpu\libplatform.a(sys.o)
                0x0000000010005414                sys_rst_dump
 .text.rc2m_clk_nhz_cal
                0x0000000010005488      0x10c ..\..\libs\cpu\libplatform.a(sys.o)
                0x0000000010005488                rc2m_clk_nhz_cal
 .text.sys_get_rand_key_init
                0x0000000010005594        0xa ..\..\libs\cpu\libplatform.a(sys.o)
                0x0000000010005594                sys_get_rand_key_init
 .text.xosc_init
                0x000000001000559e       0xa0 ..\..\libs\cpu\libplatform.a(sys.o)
                0x000000001000559e                xosc_init
 .text.bsp.param
                0x000000001000563e       0x26 ..\..\libs\cpu\libplatform.a(sys.o)
                0x000000001000563e                bt_save_xosc_cap
 .text.bt_get_xosc_cap
                0x0000000010005664        0xc ..\..\libs\cpu\libplatform.a(sys.o)
                0x0000000010005664                bt_get_xosc_cap
 .text.bt_set_xosc_cap
                0x0000000010005670       0x18 ..\..\libs\cpu\libplatform.a(sys.o)
                0x0000000010005670                bt_set_xosc_cap
 .text.bt_adj_xosc_cap
                0x0000000010005688       0x72 ..\..\libs\cpu\libplatform.a(sys.o)
                0x0000000010005688                bt_adj_xosc_cap
 .text.__udivdi3
                0x00000000100056fa        0x6 ..\..\libs\cpu\libplatform.a(sys.o)
                0x00000000100056fa                __udivdi3
 .text.sys_clk_cacl_curr
                0x0000000010005700       0x18 ..\..\libs\cpu\libplatform.a(sys_clk.o)
 *fill*         0x0000000010005718       0xe8 
 .text.set_sys_clk_do
                0x0000000010005800      0x1f2 ..\..\libs\cpu\libplatform.a(sys_clk.o)
                0x0000000010005800                set_sys_clk_do
 .text.sys_clk  0x00000000100059f2      0x1ca ..\..\libs\cpu\libplatform.a(sys_clk.o)
                0x00000000100059f2                sys_clk_get_cur
                0x00000000100059fa                sys_clk_set_do
 .text.sys_clk_set
                0x0000000010005bbc       0x60 ..\..\libs\cpu\libplatform.a(sys_clk.o)
                0x0000000010005bbc                sys_clk_set
 *fill*         0x0000000010005c1c        0x0 
 .text.sys_clk.table
                0x0000000010005c1c       0x16 ..\..\libs\cpu\libplatform.a(sys_clk.o)
                0x0000000010005c1c                sysclk_info_tbl
 .text.voltage.trim
                0x0000000010005c32       0xb0 ..\..\libs\cpu\libplatform.a(voltage_trim.o)
                0x0000000010005c32                voltage_trim_value_init
 .text.xosc_24m_div_get
                0x0000000010005ce2        0x4 ..\..\libs\cpu\libplatform.a(weak_symbol.o)
                0x0000000010005ce2                xosc_24m_div_get
 .text.freq_det_kick_flag_clr
                0x0000000010005ce6        0x8 ..\..\libs\cpu\libplatform.a(freq_det.o)
                0x0000000010005ce6                freq_det_kick_flag_clr
 .text          0x0000000010005cee       0xdc ..\..\libs\ble\libbtstack.a(bb_api.o)
                0x0000000010005cee                soft_timer_init
                0x0000000010005cee                ble_alarm_timer_init
                0x0000000010005cf8                soft_timer_mem_extend
                0x0000000010005cf8                ble_alarm_timer_mem_extend
                0x0000000010005d02                soft_timer_mem_free
                0x0000000010005d02                ble_alarm_timer_mem_free
                0x0000000010005d2a                soft_timer_start
                0x0000000010005d2a                ble_alarm_timer_start
                0x0000000010005d52                soft_timer_stop
                0x0000000010005d52                ble_alarm_timer_stop
                0x0000000010005d84                soft_timer_acquire
                0x0000000010005d84                ble_alarm_timer_acquire
                0x0000000010005d8e                ble_alarm_timer_release
                0x0000000010005d8e                soft_timer_release
 .text          0x0000000010005dca      0x110 ..\..\libs\ble\libbtstack.a(bb_int.o)
                0x0000000010005dca                bb_sleep_init
                0x0000000010005dcc                bb_driver_init
 *fill*         0x0000000010005eda       0x26 
 .text.bb.aes   0x0000000010005f00       0xf4 ..\..\libs\ble\libbtstack.a(bb_int.o)
                0x0000000010005f00                bb_aes_encrypt
 .text.bb.timer.ind
                0x0000000010005ff4       0x24 ..\..\libs\ble\libbtstack.a(bb_alarm.o)
                0x0000000010005ff4                bb_timer_end_ind
 .text.bb.timer.init
                0x0000000010006018       0xcc ..\..\libs\ble\libbtstack.a(bb_alarm.o)
                0x0000000010006018                bb_timer_init
 .text          0x00000000100060e4       0x4e ..\..\libs\ble\libbtstack.a(txpkt.o)
                0x00000000100060e4                txpkt_list_is_empty
                0x00000000100060f0                txpkt_init
                0x0000000010006120                txpkt_get_available_len
 .text.txpkt.flush
                0x0000000010006132       0x4a ..\..\libs\ble\libbtstack.a(txpkt.o)
                0x0000000010006132                txpkt_free_for_handle
 .text.sm.aes   0x000000001000617c       0x3a ..\..\libs\ble\libbtstack.a(sm.o)
 .text.sm.get_handle
                0x00000000100061b6       0x16 ..\..\libs\ble\libbtstack.a(sm.o)
 .text.sm.rau_run
                0x00000000100061cc       0x90 ..\..\libs\ble\libbtstack.a(sm.o)
 .text.gap.rau.update
                0x000000001000625c       0x38 ..\..\libs\ble\libbtstack.a(sm.o)
 .text.sm.is_null
                0x0000000010006294       0x1c ..\..\libs\ble\libbtstack.a(sm.o)
                0x0000000010006294                sm_is_null
 .text.sm.hdl   0x00000000100062b0       0x12 ..\..\libs\ble\libbtstack.a(sm.o)
                0x00000000100062b0                sm_add_event_handler
 .text.sm.deinit
                0x00000000100062c2        0x8 ..\..\libs\ble\libbtstack.a(sm.o)
                0x00000000100062c2                sm_deinit
 .text.sm.auth.sta
                0x00000000100062ca       0x24 ..\..\libs\ble\libbtstack.a(sm.o)
                0x00000000100062ca                sm_authorization_state
 .text.sm.index
                0x00000000100062ee       0x14 ..\..\libs\ble\libbtstack.a(sm.o)
                0x00000000100062ee                sm_le_device_index
 .text.gap.rau.mode
                0x0000000010006302       0x66 ..\..\libs\ble\libbtstack.a(sm.o)
                0x0000000010006302                gap_random_address_set_mode
 .text.gap.rau_set
                0x0000000010006368       0x28 ..\..\libs\ble\libbtstack.a(sm.o)
                0x0000000010006368                gap_random_address_set
 .text.sm.addr  0x0000000010006390        0xc ..\..\libs\ble\libbtstack.a(sm.o)
                0x0000000010006390                gap_random_address_get
 .text.gap.adv  0x000000001000639c        0x4 ..\..\libs\ble\libbtstack.a(sm.o)
                0x000000001000639c                gap_advertisements_set_params
 .text          0x00000000100063a0       0x36 ..\..\libs\ble\libbtstack.a(le_device_db_memory.o)
                0x00000000100063a0                le_device_db_count
 .text.le.db.max
                0x00000000100063d6        0x4 ..\..\libs\ble\libbtstack.a(le_device_db_memory.o)
                0x00000000100063d6                ble_bonding_info_max_count
 .text.le.db.set
                0x00000000100063da      0x114 ..\..\libs\ble\libbtstack.a(le_device_db_memory.o)
                0x00000000100063da                le_device_db_info_save_for_index
                0x0000000010006402                le_device_db_info_set
 .text.le.db.read
                0x00000000100064ee       0x2c ..\..\libs\ble\libbtstack.a(le_device_db_memory.o)
                0x00000000100064ee                le_device_db_info_load_for_index
 .text.le.db.init
                0x000000001000651a       0x52 ..\..\libs\ble\libbtstack.a(le_device_db_memory.o)
                0x000000001000651a                le_device_db_init
 .text.le.db    0x000000001000656c      0x144 ..\..\libs\ble\libbtstack.a(le_device_db_memory.o)
                0x000000001000656c                le_device_db_info
                0x00000000100065bc                le_device_db_encryption_set
                0x0000000010006624                le_device_db_encryption_get
 .text          0x00000000100066b0       0x24 ..\..\libs\ble\libbtstack.a(gatt_server.o)
                0x00000000100066b0                att_server_send_func_get
 .text.ble.indicate
                0x00000000100066d4       0x68 ..\..\libs\ble\libbtstack.a(gatt_server.o)
                0x00000000100066d4                ble_send_indicate_packet
                0x00000000100066e6                ble_indicate_for_handle
 .text.client.get_context
                0x000000001000673c       0x18 ..\..\libs\ble\libbtstack.a(gatt_client.o)
                0x000000001000673c                gatt_client_get_context_for_handle
 .text.client.request_can_send
                0x0000000010006754       0x28 ..\..\libs\ble\libbtstack.a(gatt_client.o)
                0x0000000010006754                att_client_request_can_send_now_event
 .text.client.send_req
                0x000000001000677c       0x16 ..\..\libs\ble\libbtstack.a(gatt_client.o)
                0x000000001000677c                btstack_ble_client_send_req
 .text          0x0000000010006792      0x1b0 ..\..\libs\ble\libbtstack.a(att_server.o)
                0x00000000100068ae                att_server_handler_list_init
                0x00000000100068b6                att_server_can_send_packet_now
 .text.server.register_service
                0x0000000010006942       0x30 ..\..\libs\ble\libbtstack.a(att_server.o)
                0x0000000010006942                att_server_register_service_handler
 .text.server.init
                0x0000000010006972       0x5e ..\..\libs\ble\libbtstack.a(att_server.o)
                0x0000000010006972                att_server_init
 .text.server.packet_handler
                0x00000000100069d0      0x18e ..\..\libs\ble\libbtstack.a(att_server.o)
 .text.att.event_handler
                0x0000000010006b5e      0x14a ..\..\libs\ble\libbtstack.a(att_server.o)
 .text.server.indicate
                0x0000000010006ca8       0x98 ..\..\libs\ble\libbtstack.a(att_server.o)
                0x0000000010006ca8                att_server_indicate
 .text.server.mtu_get
                0x0000000010006d40       0x24 ..\..\libs\ble\libbtstack.a(att_server.o)
                0x0000000010006d40                ble_att_get_mtu
 .text          0x0000000010006d64      0x1da ..\..\libs\ble\libbtstack.a(att_dispatch.o)
                0x0000000010006e5a                att_dispatch_connected_event
                0x0000000010006eb0                att_dispatch_disconnected_event
                0x0000000010006ed8                att_dispatch_connect_param_update_event
                0x0000000010006f06                att_dispatch_encryption_change_event
                0x0000000010006f36                att_dispatch_sm_event
 .text.att.is_register_client
                0x0000000010006f3e        0xc ..\..\libs\ble\libbtstack.a(att_dispatch.o)
                0x0000000010006f3e                att_dispatch_client_is_register
 .text.att.register_server
                0x0000000010006f4a       0x14 ..\..\libs\ble\libbtstack.a(att_dispatch.o)
                0x0000000010006f4a                att_dispatch_register_server
 .text.att.dispatch_server
                0x0000000010006f5e        0x6 ..\..\libs\ble\libbtstack.a(att_dispatch.o)
                0x0000000010006f5e                att_dispatch_can_send_now
 .text.att.dispatch_client
                0x0000000010006f64        0xe ..\..\libs\ble\libbtstack.a(att_dispatch.o)
                0x0000000010006f64                att_dispatch_client_request_can_send_now_event
 .text.att.server_mtu
                0x0000000010006f72        0xe ..\..\libs\ble\libbtstack.a(att_dispatch.o)
                0x0000000010006f72                att_dispatch_server_mtu_exchanged
 *fill*         0x0000000010006f80        0x0 
 .text          0x0000000010006f80      0xddc ..\..\libs\ble\libbtstack.a(att_db.o)
                0x000000001000717a                att_uuid_for_handle
                0x00000000100071a4                att_set_db
                0x00000000100071ac                att_set_read_callback
                0x00000000100071b4                att_set_write_callback
                0x00000000100071bc                handle_exchange_mtu_request
                0x00000000100071e4                att_clear_transaction_queue
                0x0000000010007200                att_prepare_handle_value_indication
                0x000000001000723e                att_handle_request
                0x0000000010007c08                gatt_server_get_get_handle_range_for_service_with_uuid16
                0x0000000010007c8e                gatt_server_get_value_handle_for_characteristic_with_uuid16
                0x0000000010007cd0                gatt_server_get_client_configuration_handle_for_characteristic_with_uuid16
 .text.att.mtu_request
                0x0000000010007d5c       0x3a ..\..\libs\ble\libbtstack.a(att_db.o)
                0x0000000010007d5c                att_exchange_mtu_request
 .text.att_server.mtu_rsp
                0x0000000010007d96       0x2a ..\..\libs\ble\libbtstack.a(att_db.o)
                0x0000000010007d96                handle_exchange_mtu_response
 .text          0x0000000010007dc0      0x116 ..\..\libs\ble\libbtstack.a(btstack_api.o)
                0x0000000010007dc0                btstack_ble_enable_scan
                0x0000000010007e12                btstack_ble_enable_adv
                0x0000000010007e18                btstack_ble_disable_adv
                0x0000000010007e1e                btstack_ble_set_adv_param
                0x0000000010007e60                btstack_ble_sm_passkey_input
                0x0000000010007e76                btstack_ble_sm_send_security_request
                0x0000000010007e7a                btstack_ble_ctrl_connection_latency
                0x0000000010007e86                btstack_ble_single_tone_mode_enter
                0x0000000010007ea4                btstack_ble_set_random_static_addr
                0x0000000010007eb4                btstack_ble_add_dev_to_white_list
                0x0000000010007eb6                btstack_ble_rmv_dev_from_white_list
                0x0000000010007eb8                btstack_ble_set_ext_adv_param
                0x0000000010007eba                btstack_ble_disable_scan
                0x0000000010007ebc                btstack_ble_set_scan_param
                0x0000000010007ebe                btstack_ble_conn_by_addr
                0x0000000010007ec0                btstack_ble_rslv_enable
                0x0000000010007ec2                btstack_ble_rslv_renew_to_set
                0x0000000010007ec4                btstack_ble_add_dev_to_ral_list
                0x0000000010007ec6                btstack_ble_rmv_dev_from_ral_list
                0x0000000010007ec8                btstack_var_init
                0x0000000010007ed2                btstack_ble_get_conn_rssi
 .text.stack.sleep
                0x0000000010007ed6       0x24 ..\..\libs\ble\libbtstack.a(btstack_api.o)
                0x0000000010007ed6                btstack_exit_sleep
                0x0000000010007ee2                btstack_enter_sleep
 .text.ble.hci  0x0000000010007efa       0xb0 ..\..\libs\ble\libbtstack.a(btstack_api.o)
                0x0000000010007efa                btstack_ble_set_adv_data
                0x0000000010007f0a                btstack_ble_set_scan_rsp_data
                0x0000000010007f1a                btstack_ble_disconnect
                0x0000000010007f34                btstack_ble_set_adv_interval
 .text.stack.setup
                0x0000000010007faa       0x4c ..\..\libs\ble\libbtstack.a(btstack_api.o)
 .text.stack.api
                0x0000000010007ff6       0x34 ..\..\libs\ble\libbtstack.a(btstack_api.o)
                0x0000000010008016                btstack_init
 .text          0x000000001000802a       0x40 ..\..\libs\ble\libbtstack.a(ble_api.o)
                0x0000000010008056                ble_msg_free_prepare
 .text.ble.api.conn.update
                0x000000001000806a       0x94 ..\..\libs\ble\libbtstack.a(ble_api.o)
                0x00000000100080f4                ble_update_conn_param
                0x00000000100080fc                ble_update_conn_param_2
 .text.stack.api
                0x00000000100080fe       0x56 ..\..\libs\ble\libbtstack.a(ble_api.o)
                0x00000000100080fe                btstack_deinit
                0x0000000010008126                ble_setup
 .text.ble.api.adv_param.set
                0x0000000010008154       0xf8 ..\..\libs\ble\libbtstack.a(ble_api.o)
                0x0000000010008154                ble_set_adv_param
 .text.ble.api.regist
                0x000000001000824c        0x8 ..\..\libs\ble\libbtstack.a(ble_api.o)
                0x000000001000824c                ble_init_callback_register
                0x0000000010008250                ble_vs_tbox_init_callback_register
 .text          0x0000000010008254       0x44 ..\..\libs\ble\libbtstack.a(txpkt.o)
                0x0000000010008254                txpkt_mem_init
                0x000000001000826e                txpkt_malloc
                0x000000001000827a                txpkt_free
                0x0000000010008284                txpkt_list_pop_front
                0x000000001000828e                txpkt_list_extract
 .text.bb.aes   0x0000000010008298      0x19a ..\..\libs\ble\libbtstack.a(aes.o)
                0x0000000010008298                aes_init
                0x00000000100082e2                aes_alloc
                0x0000000010008304                aes_start
                0x0000000010008342                aes_encrypt
                0x000000001000838e                aes_rand
                0x00000000100083ca                aes_result_handler
 .text          0x0000000010008432       0x34 ..\..\libs\ble\libbtstack.a(extern.o)
                0x0000000010008448                bt_rf_get_fcc_param
                0x0000000010008450                private_freq_bands_hook
                0x0000000010008454                private_access_code_hook
                0x000000001000845e                ble_tbox_feature_req_enabled
                0x0000000010008462                ble_chmap_instant_pass_discon
 .text          0x0000000010008466       0x7a ..\..\libs\ble\libbtstack.a(rf.o)
                0x0000000010008466                rf_off
                0x000000001000847e                rf_reset
                0x0000000010008480                rf_init
 .text.rf.tx_tone
                0x00000000100084e0       0x54 ..\..\libs\ble\libbtstack.a(rf.o)
                0x00000000100084e0                rf_single_tone_enter
 *fill*         0x0000000010008534       0xcc 
 .text          0x0000000010008600      0x52a ..\..\libs\ble\libbtstack.a(ble_con.o)
                0x0000000010008600                ble_con_start_do
                0x0000000010008628                ble_con_start
                0x0000000010008a00                ble_con_stop
                0x0000000010008a80                ble_con_offset_get
                0x0000000010008ac0                ble_con_pref_slave_latency_set
                0x0000000010008afc                ble_con_peer_sca_set
 .text.le.con   0x0000000010008b2a       0x84 ..\..\libs\ble\libbtstack.a(ble_con.o)
                0x0000000010008b2a                ble_get_con_var
                0x0000000010008b32                ble_get_con_rssi
                0x0000000010008b48                ble_con_init
 .text          0x0000000010008bae      0x13e ..\..\libs\ble\libbtstack.a(ble_buf.o)
                0x0000000010008bae                ble_buf_init_do
                0x0000000010008ca4                ble_buf_init
 *fill*         0x0000000010008cec       0x14 
 .text.bb.buf   0x0000000010008d00       0x98 ..\..\libs\ble\libbtstack.a(ble_buf.o)
                0x0000000010008d00                ble_buf_acl_tx_elt_get
                0x0000000010008d40                ble_buf_acl_tx_elt_set
 .text.le.stack
                0x0000000010008d98       0x28 ..\..\libs\ble\libbtstack.a(ble_buf.o)
                0x0000000010008d98                ble_msg_malloc
                0x0000000010008da0                ble_msg_free
                0x0000000010008da8                ble_msg_wrap
                0x0000000010008db6                ble_msg_unwrap
 .text          0x0000000010008dc0       0x40 ..\..\libs\ble\libbtstack.a(ble.o)
                0x0000000010008dc0                ble_init
 .text.ble.var.init
                0x0000000010008e00       0x58 ..\..\libs\ble\libbtstack.a(ble.o)
                0x0000000010008e00                ble_var_init
 .text          0x0000000010008e58      0x29c ..\..\libs\ble\libbtstack.a(bb.o)
                0x0000000010008e7a                bb_rand_init
                0x0000000010008e82                bb_get_heap_info
                0x0000000010008e94                bb_var_init
                0x0000000010008e9c                bb_nanos_mem_init
                0x0000000010008ee2                bb_reset
                0x0000000010008f6e                bb_init
                0x0000000010009094                bb_off
 .text          0x00000000100090f4       0x2e ..\..\libs\ble\libbtstack.a(extern_ble.o)
                0x000000001000911c                ble_sync_link_info
 .text          0x0000000010009122       0x60 ..\..\libs\ble\libbtstack.a(l2cap.o)
                0x000000001000916c                l2cap_register_packet_handler
                0x0000000010009174                l2cap_max_le_mtu
 .text.stk.l2cap.txreq
                0x0000000010009182       0x96 ..\..\libs\ble\libbtstack.a(l2cap.o)
 .text.stack.l2cap
                0x0000000010009218       0xf4 ..\..\libs\ble\libbtstack.a(l2cap.o)
                0x00000000100092f0                l2cap_get_outgoing_buffer
                0x0000000010009302                l2cap_reserve_packet_buffer
                0x0000000010009308                l2cap_release_packet_buffer
 .text.stack.handler.l2cap
                0x000000001000930c      0x11a ..\..\libs\ble\libbtstack.a(l2cap.o)
                0x0000000010009422                l2cap_can_send_fixed_channel_packet_now
 .text.stack.l2cap.gap
                0x0000000010009426       0x20 ..\..\libs\ble\libbtstack.a(l2cap.o)
                0x0000000010009426                gap_request_connection_parameter_update
 .text.stack.setup
                0x0000000010009446       0x6c ..\..\libs\ble\libbtstack.a(l2cap.o)
                0x0000000010009446                l2cap_init
                0x0000000010009490                l2cap_register_fixed_channel
 .text.stack.setup
                0x00000000100094b2        0x2 ..\..\libs\ble\libbtstack.a(hci_dump.o)
                0x00000000100094b2                hci_dump_open
 *fill*         0x00000000100094b4        0x0 
 .text.stack.hci_send
                0x00000000100094b4      0x322 ..\..\libs\ble\libbtstack.a(hci_cmd.o)
                0x00000000100094b4                hci_cmd_create_from_template
 .text          0x00000000100097d6      0x258 ..\..\libs\ble\libbtstack.a(hci.o)
                0x00000000100097d6                hci_get_state
                0x00000000100097de                hci_adv_param_get
                0x00000000100097e6                ble_get_scan_sta
                0x00000000100097ea                hci_shutdown_connection
                0x0000000010009810                gap_le_get_own_address
                0x0000000010009846                hci_le_set_own_address_type
                0x000000001000987a                hci_le_random_address_set
                0x000000001000989e                gap_ctrl_connection_parameter_latency
                0x00000000100098c6                gap_set_connection_parameters
                0x00000000100098de                gap_get_connection_parameters
                0x0000000010009906                gap_get_connection_parameters_for_handle
                0x000000001000993c                gap_advertisements_set_data
                0x0000000010009950                gap_scan_response_set_data
                0x0000000010009964                gap_advertisements_enable
                0x0000000010009994                gap_ext_advertisements_set_data
                0x0000000010009996                gap_ext_scan_response_set_data
                0x0000000010009998                gap_ext_advertisements_enable
                0x000000001000999a                gap_ext_advertisements_set_params
                0x000000001000999c                ble_per_advertisements_set_data
                0x000000001000999e                ble_per_advertisements_enable
                0x00000000100099a0                ble_per_advertisements_add_device_list
                0x00000000100099a2                ble_per_advertisements_creat_sync
                0x00000000100099a4                ble_per_advertisements_creat_sync_cancel
                0x00000000100099a6                ble_per_advertisements_terminate_sync
                0x00000000100099a8                ble_vs_tbox_prod_test_start
                0x00000000100099be                gap_disconnect
                0x0000000010009a10                hci_rx_flush
                0x0000000010009a12                hci_packet_send_finish
 .text.stack.hci_init
                0x0000000010009a2e       0x88 ..\..\libs\ble\libbtstack.a(hci.o)
                0x0000000010009a4e                hci_power_control
 .text.stack.handler.acl
                0x0000000010009ab6       0x14 ..\..\libs\ble\libbtstack.a(hci.o)
 .text.stack.setup
                0x0000000010009aca       0xac ..\..\libs\ble\libbtstack.a(hci.o)
                0x0000000010009afa                hci_add_event_handler
                0x0000000010009b0c                hci_register_acl_packet_handler
                0x0000000010009b14                hci_init
 .text.stack.hci
                0x0000000010009b76      0x232 ..\..\libs\ble\libbtstack.a(hci.o)
                0x0000000010009bc6                hci_number_free_acl_slots_for_handle
                0x0000000010009bde                hci_can_send_command_packet_now
                0x0000000010009c1c                hci_can_send_acl_le_packet_now
                0x0000000010009c5a                hci_can_send_prepared_acl_packet_now
                0x0000000010009c68                hci_can_send_acl_packet_now
                0x0000000010009c76                hci_is_packet_buffer_reserved
                0x0000000010009c7e                hci_reserve_packet_buffer
                0x0000000010009cb6                hci_release_packet_buffer
 .text.stack.hci.conn
                0x0000000010009da8       0xcc ..\..\libs\ble\libbtstack.a(hci.o)
                0x0000000010009da8                get_free_hci_connection
                0x0000000010009dc4                create_connection_for_bd_addr_and_type
                0x0000000010009e3c                hci_connection_for_bd_addr_and_type
 .text.ble.hci  0x0000000010009e74      0x18c ..\..\libs\ble\libbtstack.a(hci.o)
                0x0000000010009e74                ble_event_cmd_complete
                0x0000000010009ef8                ble_event_meta
 .text.stack.hci_send
                0x000000001000a000       0x96 ..\..\libs\ble\libbtstack.a(hci.o)
                0x000000001000a000                hci_send_cmd_packet
                0x000000001000a054                hci_send_cmd
 .text.stack.hci.run
                0x000000001000a096      0x17a ..\..\libs\ble\libbtstack.a(hci.o)
 .text.stack.hci_rx
                0x000000001000a210       0xdc ..\..\libs\ble\libbtstack.a(hci.o)
 .text.stack.hci_emit
                0x000000001000a2ec       0x2c ..\..\libs\ble\libbtstack.a(hci.o)
                0x000000001000a2ec                hci_emit_state
 .text.stack.hci.le.adv
                0x000000001000a318       0x46 ..\..\libs\ble\libbtstack.a(hci.o)
                0x000000001000a318                hci_le_advertisements_set_params
 .text          0x000000001000a35e       0x42 ..\..\libs\ble\libbtstack.a(btstack_util.o)
                0x000000001000a35e                log_info_hexdump
                0x000000001000a360                log_info_key
                0x000000001000a362                uuid_add_bluetooth_prefix
                0x000000001000a384                uuid_has_bluetooth_prefix
 .text.stack.util
                0x000000001000a3a0      0x126 ..\..\libs\ble\libbtstack.a(btstack_util.o)
                0x000000001000a3a0                bd_addr_cmp
                0x000000001000a3a6                bd_addr_copy
                0x000000001000a3ac                big_endian_read_16
                0x000000001000a3bc                big_endian_read_32
                0x000000001000a3dc                big_endian_store_16
                0x000000001000a3f0                big_endian_store_32
                0x000000001000a424                reverse_bytes
                0x000000001000a440                reverse_24
                0x000000001000a444                reverse_48
                0x000000001000a448                reverse_56
                0x000000001000a44c                reverse_64
                0x000000001000a450                reverse_128
                0x000000001000a454                reverse_256
                0x000000001000a45a                reverse_bd_addr
                0x000000001000a45c                btstack_min
                0x000000001000a462                btstack_max
                0x000000001000a468                char_for_nibble
                0x000000001000a48e                nibble_for_char
 .text.stack.hci_dump
                0x000000001000a4c6       0x50 ..\..\libs\ble\libbtstack.a(btstack_util.o)
                0x000000001000a4c6                bd_addr_to_str
 .text          0x000000001000a516        0x2 ..\..\libs\ble\libbtstack.a(btstack_run_loop.o)
                0x000000001000a516                thread_nanos_task_create
 *fill*         0x000000001000a518       0x68 
 .text.stack.run_loop
                0x000000001000a580      0x16a ..\..\libs\ble\libbtstack.a(btstack_run_loop.o)
                0x000000001000a580                btstack_run_loop_set_timer_handler
                0x000000001000a584                btstack_run_loop_set_data_source_handler
                0x000000001000a588                btstack_run_loop_set_data_source_fd
                0x000000001000a58c                btstack_run_loop_get_data_source_fd
                0x000000001000a590                btstack_run_loop_enable_data_source_callbacks
                0x000000001000a59c                btstack_run_loop_disable_data_source_callbacks
                0x000000001000a5ac                btstack_run_loop_add_data_source
                0x000000001000a5be                btstack_run_loop_remove_data_source
                0x000000001000a5d0                btstack_run_loop_set_timer
                0x000000001000a5ea                btstack_run_loop_set_timer_context
                0x000000001000a5ee                btstack_run_loop_get_timer_context
                0x000000001000a600                btstack_run_loop_set_trig_ticks
                0x000000001000a63c                btstack_run_loop_add_timer
                0x000000001000a66c                btstack_run_loop_remove_timer
                0x000000001000a6a4                btstack_run_loop_get_ticks
                0x000000001000a6ae                btstack_run_loop_ticks_for_ms
                0x000000001000a6b4                btstack_run_loop_get_time_ms
                0x000000001000a6c0                btstack_run_loop_timer_dump
 .text.stack.setup
                0x000000001000a6ea       0x2e ..\..\libs\ble\libbtstack.a(btstack_run_loop.o)
                0x000000001000a6ea                btstack_run_loop_init
 .text          0x000000001000a718        0x2 ..\..\libs\ble\libbtstack.a(hci_transport_h3_controller.o)
                0x000000001000a718                hci_init_var
 .text          0x000000001000a71a       0x12 ..\..\libs\ble\libbtstack.a(hci_transport_dummy.o)
                0x000000001000a71a                hci_iodm_init
                0x000000001000a71c                hci_transport_setup
 .text          0x000000001000a72c       0x10 ..\..\libs\ble\libbtstack.a(btstack_main.o)
                0x000000001000a72c                btstack_ble_set_init_callback
                0x000000001000a734                btstack_ble_vs_tbox_set_init_callback
 .text.stack.handler
                0x000000001000a73c       0x60 ..\..\libs\ble\libbtstack.a(btstack_main.o)
 .text.stack.ble.setup
                0x000000001000a79c        0x4 ..\..\libs\ble\libbtstack.a(btstack_main.o)
                0x000000001000a79c                btstack_ble_init
 .text.stack.setup
                0x000000001000a7a0       0x34 ..\..\libs\ble\libbtstack.a(btstack_main.o)
                0x000000001000a7a0                btstack_main
 .text          0x000000001000a7d4       0x18 ..\..\libs\ble\libbtstack.a(btstack_hal.o)
                0x000000001000a7d4                hal_tick_init
                0x000000001000a7da                hal_tick_set_handler
 .text          0x000000001000a7ec       0x76 ..\..\libs\ble\libbtstack.a(nanos.o)
                0x000000001000a7ec                nanos_init
                0x000000001000a822                nanos_var_init
 .text          0x000000001000a862       0x34 ..\..\libs\ble\libbtstack.a(bb_sche.o)
                0x000000001000a862                bb_sche_frag_ble_dur_set
                0x000000001000a874                bb_sche_init
 .text          0x000000001000a896       0xae ..\..\libs\ble\libbtstack.a(patch.o)
                0x000000001000a896                bb_patch_dummy
                0x000000001000a898                bb_patch_init
 .text          0x000000001000a944       0x9c ..\..\libs\ble\libbtstack.a(vs.o)
                0x000000001000a944                vs_init
                0x000000001000a980                vs_reset_complete_evt
 .text          0x000000001000a9e0      0x2ca ..\..\libs\ble\libbtstack.a(rf_mate.o)
                0x000000001000aac6                rfphy_tx
                0x000000001000ac78                rfphy_test
                0x000000001000ac7a                ble_rf_external_pa_init
 .text.rfphy.other
                0x000000001000acaa       0x8a ..\..\libs\ble\libbtstack.a(rf_mate.o)
 .text.rf.param.init
                0x000000001000ad34       0xda ..\..\libs\ble\libbtstack.a(rf_mate.o)
 .text.bb.rf    0x000000001000ae0e       0x7a ..\..\libs\ble\libbtstack.a(rf_mate.o)
                0x000000001000ae0e                rfphy_sw_ctrl
                0x000000001000ae3e                rfphy_tx_pwr
 .text.bb.phy.tx
                0x000000001000ae88       0x8c ..\..\libs\ble\libbtstack.a(rf_mate.o)
                0x000000001000ae88                rfphy_tx_tone
 .text          0x000000001000af14        0x2 ..\..\libs\ble\libbtstack.a(ble_hook.o)
                0x000000001000af14                ble_hal_init_hook
 .text          0x000000001000af16      0x402 ..\..\libs\ble\libbtstack.a(hct_proc.o)
                0x000000001000b278                hct_register_handler_evt
                0x000000001000b280                hct_register_handler_acl
                0x000000001000b288                hct_acl_block_request
                0x000000001000b2d8                hct_init_do
 *fill*         0x000000001000b318       0x68 
 .text          0x000000001000b380      0x2dc ..\..\libs\ble\libbtstack.a(hct.o)
                0x000000001000b380                hct_init
                0x000000001000b390                hci_send_2_host
                0x000000001000b3c4                hci_cmd_send_2_controller
                0x000000001000b474                hci_acl_send_2_controller
                0x000000001000b580                hci_malloc_for_cmd_tmpl
                0x000000001000b5d2                hci_malloc_for_acl_tx
                0x000000001000b5f0                hci_ble_conhdl_register
                0x000000001000b5fe                hci_ble_conhdl_unregister
 .text          0x000000001000b65c      0x17a ..\..\libs\ble\libbtstack.a(mgr_hci.o)
                0x000000001000b7c2                hci_le_rd_buff_size
 .text.le.mgr   0x000000001000b7d6       0x38 ..\..\libs\ble\libbtstack.a(mgr_hci.o)
                0x000000001000b7d6                hci_command_mgr_func
 .text          0x000000001000b80e      0x440 ..\..\libs\ble\libbtstack.a(mgr.o)
                0x000000001000b80e                mgr_cmd_cmp_send
                0x000000001000b836                mgr_cmd_stat_send
                0x000000001000b85e                mgr_is_dev_connected
                0x000000001000b8c8                mgr_ral_is_empty
                0x000000001000b8cc                mgr_ch_map_update
                0x000000001000b9d8                mgr_init
                0x000000001000bad8                mgr_clk_acc_set
                0x000000001000bb16                mgr_link_disc
                0x000000001000bb4a                mgr_le_evt_mask_check
                0x000000001000bb64                mgr_le_get_features
                0x000000001000bbc0                mgr_le_get_tbox_feat
                0x000000001000bbce                mgr_plan_elt_get
                0x000000001000bbdc                mgr_act_get_free
                0x000000001000bc2c                mgr_act_set_free
 .text          0x000000001000bc4e      0x680 ..\..\libs\ble\libbtstack.a(ll_adv.o)
                0x000000001000bcee                ll_adv_hdl_to_idx
                0x000000001000bd3e                hci_le_set_adv_param_cmd_func
                0x000000001000bf02                hci_le_set_adv_data_cmd_func
                0x000000001000bfce                hci_le_set_scan_rsp_data_cmd_func
                0x000000001000c09a                hci_le_set_adv_en_cmd_func
 .text.le.ll_adv.con
                0x000000001000c2ce      0x276 ..\..\libs\ble\libbtstack.a(ll_adv.o)
                0x000000001000c2ce                ble_adv_end_con_ind
 .text.le.ll_adv
                0x000000001000c544      0x2ea ..\..\libs\ble\libbtstack.a(ll_adv.o)
                0x000000001000c544                ble_adv_end_ind_func
 .text          0x000000001000c82e      0x28a ..\..\libs\ble\libbtstack.a(ll_tbox_freq_cal.o)
                0x000000001000c912                ll_op_tbox_freq_cal_ind_func
                0x000000001000c946                ll_op_tbox_freq_cal_end_ind_func
                0x000000001000ca40                ll_tbox_freq_cal_proc_start
 .text.le.ll_cntl.pdu
                0x000000001000cab8      0x138 ..\..\libs\ble\libbtstack.a(ll_tbox_freq_cal.o)
                0x000000001000cab8                ll_tbox_freq_cal_req_func
                0x000000001000cb68                ll_tbox_freq_cal_rsp_func
 *fill*         0x000000001000cbf0        0x0 
 .text          0x000000001000cbf0      0xd3e ..\..\libs\ble\libbtstack.a(ll_con_upd.o)
                0x000000001000d53c                hci_le_con_upd_cmd_func
                0x000000001000d6c6                ll_op_con_upd_ind_func
                0x000000001000d768                ble_con_param_upd_cfm_func
                0x000000001000d7e0                ble_con_offset_upd_ind_func
                0x000000001000d832                ll_con_move_cb
 .text.le.ll_cntl.pdu
                0x000000001000d92e      0x332 ..\..\libs\ble\libbtstack.a(ll_con_upd.o)
                0x000000001000d92e                ll_con_update_ind_func
                0x000000001000da9e                ll_con_param_req_func
                0x000000001000dbc2                ll_con_param_rsp_func
 .text          0x000000001000dc60      0x198 ..\..\libs\ble\libbtstack.a(ll_cntl.o)
                0x000000001000dc60                ble_cntl_rx_ind_func
 .text.le.ll_cntl.pdu
                0x000000001000ddf8       0x1a ..\..\libs\ble\libbtstack.a(ll_cntl.o)
 .text.le.ll_cntl.send
                0x000000001000de12       0xa2 ..\..\libs\ble\libbtstack.a(ll_cntl.o)
                0x000000001000de12                ll_cntl_send
 .text.le.ll_cntl.pdu
                0x000000001000deb4      0x112 ..\..\libs\ble\libbtstack.a(ll_clk_acc.o)
                0x000000001000deb4                ll_clk_acc_req_func
                0x000000001000df0e                ll_clk_acc_rsp_func
 .text          0x000000001000dfc6      0x1b8 ..\..\libs\ble\libbtstack.a(ll_chmap_upd.o)
                0x000000001000e0ee                ll_op_ch_map_upd_ind_func
                0x000000001000e156                ble_ch_map_upd_cfm_func
 .text.le.ll_cntl.pdu
                0x000000001000e17e      0x1da ..\..\libs\ble\libbtstack.a(ll_chmap_upd.o)
                0x000000001000e17e                ll_channel_map_ind_func
                0x000000001000e2ae                ll_min_used_channels_ind_func
 .text.le.ll_cntl
                0x000000001000e358       0x68 ..\..\libs\ble\libbtstack.a(ll.o)
                0x000000001000e358                ll_init
 .text.le.ll_cntl.start
                0x000000001000e3c0      0x238 ..\..\libs\ble\libbtstack.a(ll.o)
                0x000000001000e3c0                ll_start
 .text          0x000000001000e5f8       0x28 ..\..\libs\ble\libbtstack.a(ble_test.o)
                0x000000001000e5f8                ble_test_init
                0x000000001000e618                ble_get_test_var
 .text.bb.ble.test.start
                0x000000001000e620       0x2e ..\..\libs\ble\libbtstack.a(ble_test.o)
                0x000000001000e620                ble_test_start
 .text          0x000000001000e64e        0x4 ..\..\libs\ble\libbtstack.a(ble_sync.o)
                0x000000001000e64e                ble_get_sync_var
 .text          0x000000001000e652        0x8 ..\..\libs\ble\libbtstack.a(ble_scan.o)
                0x000000001000e652                ble_get_scan_var
                0x000000001000e656                ble_get_ssync_var
 .text          0x000000001000e65a        0x4 ..\..\libs\ble\libbtstack.a(ble_init.o)
                0x000000001000e65a                ble_get_init_var
 .text          0x000000001000e65e      0x1d0 ..\..\libs\ble\libbtstack.a(ble_hal.o)
                0x000000001000e65e                ble_get_rslv_var
                0x000000001000e662                ble_hal_init
                0x000000001000e826                ble_ch_assess_data_get
 .text          0x000000001000e82e       0x62 ..\..\libs\ble\libbtstack.a(ble_adv.o)
                0x000000001000e82e                ble_get_adv_var
                0x000000001000e836                ble_adv_init
 .text.stack.l2cap_sig
                0x000000001000e890      0x126 ..\..\libs\ble\libbtstack.a(l2cap_signaling.o)
                0x000000001000e890                l2cap_create_signaling_le
 .text          0x000000001000e9b6       0xb6 ..\..\libs\ble\libbtstack.a(vs_proc.o)
 .text.bb.vs.fcc_ble.do
                0x000000001000ea6c       0x8a ..\..\libs\ble\libbtstack.a(vs_fcc.o)
                0x000000001000ea6c                vs_ble_test_do
 .text.bb.vs.fcc
                0x000000001000eaf6       0xc2 ..\..\libs\ble\libbtstack.a(vs_fcc.o)
                0x000000001000eaf6                vs_ble_test
                0x000000001000eafa                vs_fcc_test_cmd
 .text          0x000000001000ebb8        0x4 ..\..\libs\ble\libbtstack.a(adv_hook.o)
                0x000000001000ebb8                ble_adv_end_ind_hook
 .text          0x000000001000ebbc      0x128 ..\..\libs\ble\libbtstack.a(hct_msg.o)
                0x000000001000ebbc                hci_look_for_cmd_desc
                0x000000001000ec46                hci_look_for_evt_desc
                0x000000001000ec88                hci_look_for_dbg_evt_desc
                0x000000001000eca2                hci_look_for_le_evt_desc
 .text          0x000000001000ece4      0x220 ..\..\libs\ble\libbtstack.a(mgr_test.o)
                0x000000001000ed06                ble_test_end_ind_func
                0x000000001000ed48                hci_le_rx_test_v1_cmd_func
                0x000000001000ed8e                hci_le_tx_test_v1_cmd_func
                0x000000001000edf2                hci_le_rx_test_v2_cmd_func
                0x000000001000ee52                hci_le_tx_test_v2_cmd_func
                0x000000001000eec8                hci_le_test_end_cmd_func
 .text          0x000000001000ef04       0x3c ..\..\libs\ble\libbtstack.a(mgr_proc.o)
 .text          0x000000001000ef40       0x60 ..\..\libs\ble\libbtstack.a(ll_version.o)
                0x000000001000ef6c                ble_ll_version_get
 .text.le.ll_cntl.pdu
                0x000000001000efa0      0x14e ..\..\libs\ble\libbtstack.a(ll_version.o)
                0x000000001000efa0                ll_version_ind_func
 .text          0x000000001000f0ee      0x174 ..\..\libs\ble\libbtstack.a(ll_tbox_prod_test.o)
                0x000000001000f1ba                ll_op_tbox_prod_test_ind_func
                0x000000001000f1ee                ll_tbox_prod_test_proc_start
 .text.le.ll_cntl.pdu
                0x000000001000f262       0xae ..\..\libs\ble\libbtstack.a(ll_tbox_prod_test.o)
                0x000000001000f262                ll_tbox_prod_test_req_func
                0x000000001000f2dc                ll_tbox_prod_test_rsp_func
 .text          0x000000001000f310      0x156 ..\..\libs\ble\libbtstack.a(ll_tbox_feature.o)
                0x000000001000f3b2                ll_op_tbox_feat_exch_ind_func
                0x000000001000f3e6                ll_tbox_feat_proc_start
 .text.le.ll_cntl.pdu
                0x000000001000f466      0x190 ..\..\libs\ble\libbtstack.a(ll_tbox_feature.o)
                0x000000001000f466                ll_tbox_feat_req_func
                0x000000001000f584                ll_tbox_feat_rsp_func
 .text          0x000000001000f5f6      0x2b6 ..\..\libs\ble\libbtstack.a(ll_proc.o)
                0x000000001000f616                hci_command_ll_func
                0x000000001000f64e                ble_acl_rx_ind_func
                0x000000001000f7c2                ble_acl_tx_cfm_func
                0x000000001000f7d2                ll_cmd_cmp_send
                0x000000001000f804                hci_vs_set_pref_slave_latency_cmd_func
                0x000000001000f85a                hci_vs_tbox_prod_test_req_cmd_func
                0x000000001000f884                ll_cmd_stat_send
 *fill*         0x000000001000f8ac        0x0 
 .text          0x000000001000f8ac      0xa26 ..\..\libs\ble\libbtstack.a(ll_phy_upd.o)
                0x0000000010010172                ll_op_phy_upd_ind_func
                0x000000001001020e                ble_phy_upd_cfm_func
                0x000000001001024e                ll_phy_upd_proc_start
 .text.le.ll_cntl.pdu
                0x00000000100102d2      0x264 ..\..\libs\ble\libbtstack.a(ll_phy_upd.o)
                0x00000000100102d2                ll_phy_req_func
                0x00000000100103a8                ll_phy_rsp_func
                0x0000000010010442                ll_phy_update_ind_func
 .text          0x0000000010010536      0x3ae ..\..\libs\ble\libbtstack.a(ll_length.o)
                0x00000000100107da                ll_op_length_upd_ind_func
                0x0000000010010848                ll_length_proc_start_for_param
                0x00000000100108b0                ll_length_proc_start
 .text.le.ll_cntl.pdu
                0x00000000100108e4      0x214 ..\..\libs\ble\libbtstack.a(ll_length.o)
                0x00000000100108e4                ll_length_req_func
                0x0000000010010a56                ll_length_rsp_func
 .text          0x0000000010010af8      0x292 ..\..\libs\ble\libbtstack.a(ll_feature.o)
                0x0000000010010cbe                ll_op_feats_exch_ind_func
                0x0000000010010d3a                ll_feature_exchange_proc_start
 .text.le.ll_cntl.pdu
                0x0000000010010d8a      0x168 ..\..\libs\ble\libbtstack.a(ll_feature.o)
                0x0000000010010d8a                ll_feature_req_func
                0x0000000010010dfe                ll_slave_feature_req_func
                0x0000000010010e72                ll_feature_rsp_func
 *fill*         0x0000000010010ef2        0x2 
 .text          0x0000000010010ef4      0x850 ..\..\libs\ble\libbtstack.a(ll_encrypt.o)
                0x00000000100114d6                hci_le_ltk_req_reply_cmd_func
                0x0000000010011554                hci_le_ltk_req_neg_reply_cmd_func
                0x00000000100115ee                ll_encrypt_ind_func
                0x00000000100116da                ll_op_encrypt_ind_func
 .text.le.ll_cntl.pdu
                0x0000000010011744      0x348 ..\..\libs\ble\libbtstack.a(ll_encrypt.o)
                0x0000000010011744                ll_pause_enc_req_func
                0x00000000100117ca                ll_pause_enc_rsp_func
                0x0000000010011836                ll_enc_req_func
                0x0000000010011950                ll_enc_rsp_func
                0x00000000100119d6                ll_start_enc_req_func
                0x0000000010011a32                ll_start_enc_rsp_func
 .text          0x0000000010011a8c      0x128 ..\..\libs\ble\libbtstack.a(ll_disconnect.o)
                0x0000000010011a8c                ll_stopped_ind_func
                0x0000000010011b04                hci_disconnect_cmd_func
 *(.rodata*)
 *fill*         0x0000000010011bb4        0x0 
 .rodata.str1.4
                0x0000000010011bb4       0x3b Output\obj\driver\driver_lowpwr.o
 *fill*         0x0000000010011bef        0x1 
 .rodata.adv    0x0000000010011bf0        0x3 Output\obj\project\ble_peripheral\ble\ble_adv.o
                0x0000000010011bf0                adv_data_const
 *fill*         0x0000000010011bf3        0x1 
 .rodata.fot.auth
                0x0000000010011bf4        0x7 Output\obj\project\ble_peripheral\ble\ble_fota_service.o
 *fill*         0x0000000010011bfb        0x1 
 .rodata        0x0000000010011bfc       0x7e Output\obj\project\ble_peripheral\ble\ble_profile.o
                0x0000000010011bfc                profile_data
 *fill*         0x0000000010011c7a        0x2 
 .rodata        0x0000000010011c7c       0x10 Output\obj\project\ble_peripheral\strong_symbol.o
 .rodata.str1.4
                0x0000000010011c8c       0xfc ..\..\libs\cpu\libplatform.a(cm.o)
 .rodata.str1.4
                0x0000000010011d88       0x10 ..\..\libs\cpu\libplatform.a(main.o)
 .rodata.str1.4
                0x0000000010011d98       0x3f ..\..\libs\cpu\libplatform.a(startup.o)
 *fill*         0x0000000010011dd7        0x1 
 .rodata.str1.4
                0x0000000010011dd8       0x20 ..\..\libs\cpu\libplatform.a(pll.o)
 .rodata.str1.4
                0x0000000010011df8       0x45 ..\..\libs\cpu\libplatform.a(sys.o)
 *fill*         0x0000000010011e3d        0x3 
 .rodata        0x0000000010011e40       0x10 ..\..\libs\ble\libbtstack.a(att_db.o)
 .rodata.stack.api
                0x0000000010011e50       0x90 ..\..\libs\ble\libbtstack.a(btstack_api.o)
                0x0000000010011e50                btstack_basic_tbl
                0x0000000010011e60                btstack_ctl_tbl
                0x0000000010011ed0                btstack_api_tbl
 .rodata.bb.tbl
                0x0000000010011ee0        0x8 ..\..\libs\ble\libbtstack.a(ble_con.o)
                0x0000000010011ee0                connect_req_dur_tab
 .rodata.bb.tbl
                0x0000000010011ee8       0x1c ..\..\libs\ble\libbtstack.a(ble.o)
                0x0000000010011ee8                ble_ctl
 .rodata.bb.tbl
                0x0000000010011f04       0x10 ..\..\libs\ble\libbtstack.a(bb_utils.o)
                0x0000000010011f04                null_array
 .rodata.str1.4
                0x0000000010011f14       0x21 ..\..\libs\ble\libbtstack.a(bb.o)
 *fill*         0x0000000010011f35        0x3 
 .rodata        0x0000000010011f38       0x24 ..\..\libs\ble\libbtstack.a(bb.o)
                0x0000000010011f38                bb_hook
 .rodata.stack.l2cap
                0x0000000010011f5c        0x2 ..\..\libs\ble\libbtstack.a(l2cap.o)
 *fill*         0x0000000010011f5e        0x2 
 .rodata.str1.4
                0x0000000010011f60       0x9d ..\..\libs\ble\libbtstack.a(hci_cmd.o)
                                         0xb5 (size before relaxing)
 *fill*         0x0000000010011ffd        0x3 
 .rodata.btstakc.hci
                0x0000000010012000        0x8 ..\..\libs\ble\libbtstack.a(hci_cmd.o)
                0x0000000010012000                hci_num_of_packet_complete
 .rodata.stack.hci_send
                0x0000000010012008      0x108 ..\..\libs\ble\libbtstack.a(hci_cmd.o)
                0x0000000010012008                hci_le_tbox_prod_test_request
                0x0000000010012010                hci_le_set_pref_slave_latency
                0x0000000010012018                hci_le_write_rf_path_compensation
                0x0000000010012020                hci_le_read_rf_path_compensation
                0x0000000010012028                hci_le_transmit_power
                0x0000000010012030                hci_le_read_periodic_adv_list_size
                0x0000000010012038                hci_le_set_default_phy
                0x0000000010012040                hci_le_long_term_key_negative_reply
                0x0000000010012048                hci_le_long_term_key_request_reply
                0x0000000010012050                hci_le_rand
                0x0000000010012058                hci_le_encrypt
                0x0000000010012060                hci_le_connection_update
                0x0000000010012068                hci_le_add_device_to_per_adv_list
                0x0000000010012070                hci_le_per_advertising_terminate_sync
                0x0000000010012078                hci_le_per_advertising_creat_sync_cancel
                0x0000000010012080                hci_le_per_advertising_creat_sync
                0x0000000010012088                hci_ext_creat_connection
                0x0000000010012090                hci_le_set_ext_scan_enable
                0x0000000010012098                hci_le_set_ext_scan_parameters
                0x00000000100120a0                hci_le_set_per_advertise_enable
                0x00000000100120a8                hci_le_set_per_advertising_data
                0x00000000100120b0                hci_le_set_per_advertising_parameters
                0x00000000100120b8                hci_le_set_ext_advertise_enable
                0x00000000100120c0                hci_le_set_ext_scan_response_data
                0x00000000100120c8                hci_le_set_ext_advertising_data
                0x00000000100120d0                hci_le_set_ext_advertising_parameters
                0x00000000100120d8                hci_le_set_advertise_enable
                0x00000000100120e0                hci_le_set_scan_response_data
                0x00000000100120e8                hci_le_set_advertising_data
                0x00000000100120f0                hci_le_set_advertising_parameters
                0x00000000100120f8                hci_le_set_random_address
                0x0000000010012100                hci_le_read_buffer_size
                0x0000000010012108                hci_disconnect
 .rodata.str1.4
                0x0000000010012110       0x57 ..\..\libs\ble\libbtstack.a(hci.o)
 *fill*         0x0000000010012167        0x1 
 .rodata        0x0000000010012168       0x20 ..\..\libs\ble\libbtstack.a(btstack_util.o)
                0x0000000010012178                bluetooth_base_uuid
 .rodata        0x0000000010012188       0x20 ..\..\libs\ble\libbtstack.a(hci_transport_dummy.o)
 .rodata        0x00000000100121a8       0x24 ..\..\libs\ble\libbtstack.a(bb_sche.o)
 .rodata.bb.tbl
                0x00000000100121cc       0x51 ..\..\libs\ble\libbtstack.a(rf_mate.o)
 *fill*         0x000000001001221d        0x3 
 .rodata.str1.4
                0x0000000010012220        0x9 ..\..\libs\ble\libbtstack.a(hct_proc.o)
 *fill*         0x0000000010012229        0x3 
 .rodata        0x000000001001222c       0x4c ..\..\libs\ble\libbtstack.a(hct_proc.o)
 .rodata.le.mgr_cntl.tbl
                0x0000000010012278       0x68 ..\..\libs\ble\libbtstack.a(mgr_hci.o)
                0x0000000010012278                mgr_hci_cmd_tbl
 .rodata.str1.4
                0x00000000100122e0       0x5c ..\..\libs\ble\libbtstack.a(ll_cntl.o)
                                         0x60 (size before relaxing)
 .rodata.le.ll_cntl.tbl
                0x000000001001233c      0x408 ..\..\libs\ble\libbtstack.a(ll_cntl.o)
                0x000000001001233c                ll_cntl_pdu_tbl
 .rodata.str1.4
                0x0000000010012744       0x1c ..\..\libs\ble\libbtstack.a(l2cap_signaling.o)
                                         0x2a (size before relaxing)
 .rodata        0x0000000010012760       0x58 ..\..\libs\ble\libbtstack.a(l2cap_signaling.o)
 .rodata        0x00000000100127b8       0x20 ..\..\libs\ble\libbtstack.a(vs_proc.o)
 .rodata        0x00000000100127d8       0xdc ..\..\libs\ble\libbtstack.a(hct_msg.o)
                0x00000000100127d8                hci_cmd_desc_root_tab
                0x0000000010012818                hci_evt_desc_tab
                0x0000000010012828                hci_evt_le_desc_tab
                0x0000000010012838                hci_cmd_desc_tab_vs
                0x0000000010012848                hci_cmd_desc_tab_le
                0x0000000010012894                hci_cmd_desc_tab_stat_par
                0x0000000010012894                hci_cmd_desc_tab_info_par
                0x00000000100128a0                hci_cmd_desc_tab_ctrl_bb
 .rodata        0x00000000100128b4       0x20 ..\..\libs\ble\libbtstack.a(mgr_proc.o)
 .rodata.le.ll_cntl.tbl
                0x00000000100128d4      0x118 ..\..\libs\ble\libbtstack.a(ll_proc.o)
                0x00000000100128d4                ll_msg_tbl
                0x00000000100129bc                ll_hci_cmd_tbl
 *(.srodata*)
 .srodata       0x00000000100129ec       0x18 ..\..\libs\ble\libbtstack.a(mgr.o)
 .srodata       0x0000000010012a04        0x5 ..\..\libs\ble\libbtstack.a(ll_adv.o)
 *fill*         0x0000000010012a09        0x3 
 .srodata       0x0000000010012a0c        0x8 ..\..\libs\ble\libbtstack.a(hct_msg.o)
                0x0000000010012a0c                hci_evt_dbg_desc_tab
                0x0000000010012a10                hci_cmd_desc_tab_lk_ctrl
 *(.rela*)
 .rela.text.clk_clk32k_rtc_get
                0x0000000010012a14        0x0 Output\obj\driver\driver_clk.o
 .rela.text.clk_saradc_clk_get
                0x0000000010012a14        0x0 Output\obj\driver\driver_clk.o
 .rela.text.clk_clk2m_ks_get
                0x0000000010012a14        0x0 Output\obj\driver\driver_clk.o
 .rela.text.wk0_edge_capture_config
                0x0000000010012a14        0x0 Output\obj\driver\driver_clk.o
 .rela.text.gpio_edge_capture_config
                0x0000000010012a14        0x0 Output\obj\driver\driver_clk.o
 .rela.text.gpio_edge_capture_config_custom
                0x0000000010012a14        0x0 Output\obj\driver\driver_clk.o
 .rela.text.gpio_set_reset_pin
                0x0000000010012a14        0x0 Output\obj\driver\driver_clk.o
 .rela.text.gpio_edge_pic_config
                0x0000000010012a14        0x0 Output\obj\driver\driver_clk.o
 .rela.text.hsuart_init
                0x0000000010012a14        0x0 Output\obj\driver\driver_clk.o
 .rela.text.hsuart_baud_config
                0x0000000010012a14        0x0 Output\obj\driver\driver_clk.o
 .rela.text.hsuart_pic_config
                0x0000000010012a14        0x0 Output\obj\driver\driver_clk.o
 .rela.text.keyscan_pic_config
                0x0000000010012a14        0x0 Output\obj\driver\driver_clk.o
 .rela.text.ledc_pic_config
                0x0000000010012a14        0x0 Output\obj\driver\driver_clk.o
 .rela.com_pwroff.mode2
                0x0000000010012a14        0x0 Output\obj\driver\driver_clk.o
 .rela.com_sleep.lp_wakeup
                0x0000000010012a14        0x0 Output\obj\driver\driver_clk.o
 .rela.text.lowpwr_get_wakeup_source
                0x0000000010012a14        0x0 Output\obj\driver\driver_clk.o
 .rela.text.lowpwr_wk0_wakeup_config
                0x0000000010012a14        0x0 Output\obj\driver\driver_clk.o
 .rela.text.lowpwr_gpio_wakeup_config
                0x0000000010012a14        0x0 Output\obj\driver\driver_clk.o
 .rela.text.lowpwr_gpio_wakeup_config_custom
                0x0000000010012a14        0x0 Output\obj\driver\driver_clk.o
 .rela.text.lowpwr_wakeup_config
                0x0000000010012a14        0x0 Output\obj\driver\driver_clk.o
 .rela.com_pwroff.mode1
                0x0000000010012a14        0x0 Output\obj\driver\driver_clk.o
 .rela.com_sleep.proc_do
                0x0000000010012a14        0x0 Output\obj\driver\driver_clk.o
 .rela.com_sleep.sleep
                0x0000000010012a14        0x0 Output\obj\driver\driver_clk.o
 .rela.text.tmrp_pic_config
                0x0000000010012a14        0x0 Output\obj\driver\driver_clk.o
 .rela.text.rtc_pic_config
                0x0000000010012a14        0x0 Output\obj\driver\driver_clk.o
 .rela.text.saradc_mic_init
                0x0000000010012a14        0x0 Output\obj\driver\driver_clk.o
 .rela.text.saradc_init
                0x0000000010012a14        0x0 Output\obj\driver\driver_clk.o
 .rela.text.saradc_deinit
                0x0000000010012a14        0x0 Output\obj\driver\driver_clk.o
 .rela.text.saradc_set_baud
                0x0000000010012a14        0x0 Output\obj\driver\driver_clk.o
 .rela.text.saradc_pic_config
                0x0000000010012a14        0x0 Output\obj\driver\driver_clk.o
 .rela.com_periph.saradc.get_data
                0x0000000010012a14        0x0 Output\obj\driver\driver_clk.o
 .rela.text.spi_init
                0x0000000010012a14        0x0 Output\obj\driver\driver_clk.o
 .rela.text.tmr_pic_config
                0x0000000010012a14        0x0 Output\obj\driver\driver_clk.o
 .rela.text.uart_init
                0x0000000010012a14        0x0 Output\obj\driver\driver_clk.o
 .rela.text.uart_pic_config
                0x0000000010012a14        0x0 Output\obj\driver\driver_clk.o
 .rela.text.uart_baud_config
                0x0000000010012a14        0x0 Output\obj\driver\driver_clk.o
 .rela.text.app.proc.func
                0x0000000010012a14        0x0 Output\obj\driver\driver_clk.o
 .rela.text.func
                0x0000000010012a14        0x0 Output\obj\driver\driver_clk.o
 .rela.text.app.proc.bt
                0x0000000010012a14        0x0 Output\obj\driver\driver_clk.o
 .rela.text.func.bt
                0x0000000010012a14        0x0 Output\obj\driver\driver_clk.o
 .rela.text.func.idle
                0x0000000010012a14        0x0 Output\obj\driver\driver_clk.o
 .rela.text.lowpwr_pwroff_wakeup_config
                0x0000000010012a14        0x0 Output\obj\driver\driver_clk.o
 .rela.text.lowpwr.pwroff
                0x0000000010012a14        0x0 Output\obj\driver\driver_clk.o
 .rela.text.ble_get_scan_data
                0x0000000010012a14        0x0 Output\obj\driver\driver_clk.o
 .rela.text.ble_get_adv_data
                0x0000000010012a14        0x0 Output\obj\driver\driver_clk.o
 .rela.text.ble_adv_param_init
                0x0000000010012a14        0x0 Output\obj\driver\driver_clk.o
 .rela.com_text.timer
                0x0000000010012a14        0x0 Output\obj\driver\driver_clk.o
 .rela.text.ble_alarm_enter_sleep_proc
                0x0000000010012a14        0x0 Output\obj\driver\driver_clk.o
 .rela.text.ble_alarm_exit_sleep_proc
                0x0000000010012a14        0x0 Output\obj\driver\driver_clk.o
 .rela.text.ble_alarm_init
                0x0000000010012a14        0x0 Output\obj\driver\driver_clk.o
 .rela.text.fot.cache
                0x0000000010012a14        0x0 Output\obj\driver\driver_clk.o
 .rela.text.ab_fota_write
                0x0000000010012a14        0x0 Output\obj\driver\driver_clk.o
 .rela.text.ab_fota_get_err
                0x0000000010012a14        0x0 Output\obj\driver\driver_clk.o
 .rela.text.ab_fota_breakpoint_info_read
                0x0000000010012a14        0x0 Output\obj\driver\driver_clk.o
 .rela.text.ab_fota_init
                0x0000000010012a14        0x0 Output\obj\driver\driver_clk.o
 .rela.text.ab_fota_get_curaddr
                0x0000000010012a14        0x0 Output\obj\driver\driver_clk.o
 .rela.text.ab_fota_is_update_success
                0x0000000010012a14        0x0 Output\obj\driver\driver_clk.o
 .rela.text.fot.update
                0x0000000010012a14        0x0 Output\obj\driver\driver_clk.o
 .rela.text.ble_fota_exit
                0x0000000010012a14        0x0 Output\obj\driver\driver_clk.o
 .rela.com_text.fot.update
                0x0000000010012a14        0x0 Output\obj\driver\driver_clk.o
 .rela.text.fota_ble_disconnect_callback
                0x0000000010012a14        0x0 Output\obj\driver\driver_clk.o
 .rela.text.fota_event_callback
                0x0000000010012a14        0x0 Output\obj\driver\driver_clk.o
 .rela.text.fota_write_callback
                0x0000000010012a14        0x0 Output\obj\driver\driver_clk.o
 .rela.text.ble_fota_service_init
                0x0000000010012a14        0x0 Output\obj\driver\driver_clk.o
 .rela.text.app.proc.fot
                0x0000000010012a14        0x0 Output\obj\driver\driver_clk.o
 .rela.text.ble_txpkt_init
                0x0000000010012a14        0x0 Output\obj\driver\driver_clk.o
 .rela.text.ble_periph_init
                0x0000000010012a14        0x0 Output\obj\driver\driver_clk.o
 .rela.text.ble_sm_param_init
                0x0000000010012a14        0x0 Output\obj\driver\driver_clk.o
 .rela.text.bsp_ble_init
                0x0000000010012a14        0x0 Output\obj\driver\driver_clk.o
 .rela.text.ble_enter_sleep_proc
                0x0000000010012a14        0x0 Output\obj\driver\driver_clk.o
 .rela.text.ble_exit_sleep_proc
                0x0000000010012a14        0x0 Output\obj\driver\driver_clk.o
 .rela.text.app.proc.ble
                0x0000000010012a14        0x0 Output\obj\driver\driver_clk.o
 .rela.com_sleep.ble.sleep
                0x0000000010012a14        0x0 Output\obj\driver\driver_clk.o
 .rela.text.ble_service_init
                0x0000000010012a14        0x0 Output\obj\driver\driver_clk.o
 .rela.text.service_write_callback
                0x0000000010012a14        0x0 Output\obj\driver\driver_clk.o
 .rela.text.service_read_callback
                0x0000000010012a14        0x0 Output\obj\driver\driver_clk.o
 .rela.text.service_notify_event
                0x0000000010012a14        0x0 Output\obj\driver\driver_clk.o
 .rela.text.ble_user_service_init
                0x0000000010012a14        0x0 Output\obj\driver\driver_clk.o
 .rela.text.bsp.param
                0x0000000010012a14        0x0 Output\obj\driver\driver_clk.o
 .rela.text.bsp.param.fota
                0x0000000010012a14        0x0 Output\obj\driver\driver_clk.o
 .rela.text.bsp.sys.init
                0x0000000010012a14        0x0 Output\obj\driver\driver_clk.o
 .rela.com_text.isr
                0x0000000010012a14        0x0 Output\obj\driver\driver_clk.o
 .rela.text.light_module_check_save_param_event
                0x0000000010012a14        0x0 Output\obj\driver\driver_clk.o
 .rela.text.pwm_init
                0x0000000010012a14        0x0 Output\obj\driver\driver_clk.o
 .rela.text.light_module_ble_event
                0x0000000010012a14        0x0 Output\obj\driver\driver_clk.o
 .rela.text.startup.main
                0x0000000010012a14        0x0 Output\obj\driver\driver_clk.o
 .rela.text.ble_get_local_bd_addr
                0x0000000010012a14        0x0 Output\obj\driver\driver_clk.o
 .rela.text.bt_rf_get_param
                0x0000000010012a14        0x0 Output\obj\driver\driver_clk.o
 .rela.com_sleep.rf.txpwr
                0x0000000010012a14        0x0 Output\obj\driver\driver_clk.o
 .rela.text.ble_get_link_info
                0x0000000010012a14        0x0 Output\obj\driver\driver_clk.o
 .rela.text.ble_put_link_info
                0x0000000010012a14        0x0 Output\obj\driver\driver_clk.o
 .rela.text.thread_create_callback
                0x0000000010012a14        0x0 Output\obj\driver\driver_clk.o
 .rela.text.xosc_get_xcfg
                0x0000000010012a14        0x0 Output\obj\driver\driver_clk.o
 .rela.text.param_xosc_write
                0x0000000010012a14        0x0 Output\obj\driver\driver_clk.o
 .rela.text.uart_debug_init_callback
                0x0000000010012a14        0x0 Output\obj\driver\driver_clk.o
 .rela.text.audio_mic_power
                0x0000000010012a14        0x0 Output\obj\driver\driver_clk.o
 .rela.text.audio_mic_analog_init
                0x0000000010012a14        0x0 Output\obj\driver\driver_clk.o
 .rela.text.audio_micdc_trim_step0_init
                0x0000000010012a14        0x0 Output\obj\driver\driver_clk.o
 .rela.text.audio_micdc_trim_step0_waiting
                0x0000000010012a14        0x0 Output\obj\driver\driver_clk.o
 .rela.text.audio_micdc_trim_step0_run
                0x0000000010012a14        0x0 Output\obj\driver\driver_clk.o
 .rela.text.audio_micdc_trim_step1_init
                0x0000000010012a14        0x0 Output\obj\driver\driver_clk.o
 .rela.text.audio_micdc_trim_step1_waiting
                0x0000000010012a14        0x0 Output\obj\driver\driver_clk.o
 .rela.text.audio_micdc_trim_step1_run
                0x0000000010012a14        0x0 Output\obj\driver\driver_clk.o
 .rela.text.micin_config
                0x0000000010012a14        0x0 Output\obj\driver\driver_clk.o
 .rela.text.audio_micin_trim_step0_init
                0x0000000010012a14        0x0 Output\obj\driver\driver_clk.o
 .rela.text.audio_micin_trim_step0_waiting
                0x0000000010012a14        0x0 Output\obj\driver\driver_clk.o
 .rela.text.audio_micin_trim_step1_init
                0x0000000010012a14        0x0 Output\obj\driver\driver_clk.o
 .rela.text.audio_micin_trim_step2_run
                0x0000000010012a14        0x0 Output\obj\driver\driver_clk.o
 .rela.text.audio_mic_trim_proc
                0x0000000010012a14        0x0 Output\obj\driver\driver_clk.o
 .rela.text.cm_loadpage
                0x0000000010012a14        0x0 Output\obj\driver\driver_clk.o
 .rela.text.cm_next_freepage
                0x0000000010012a14        0x0 Output\obj\driver\driver_clk.o
 .rela.text.cm_factory
                0x0000000010012a14        0x0 Output\obj\driver\driver_clk.o
 .rela.text.cm_writepage
                0x0000000010012a14        0x0 Output\obj\driver\driver_clk.o
 .rela.text.cm_movepage
                0x0000000010012a14        0x0 Output\obj\driver\driver_clk.o
 .rela.text.cm_erase
                0x0000000010012a14        0x0 Output\obj\driver\driver_clk.o
 .rela.text.cm_release
                0x0000000010012a14        0x0 Output\obj\driver\driver_clk.o
 .rela.text.cm_savepage
                0x0000000010012a14        0x0 Output\obj\driver\driver_clk.o
 .rela.text.cm_check_loadpage
                0x0000000010012a14        0x0 Output\obj\driver\driver_clk.o
 .rela.text.cm_move_allpages
                0x0000000010012a14        0x0 Output\obj\driver\driver_clk.o
 .rela.text.cm_sync
                0x0000000010012a14        0x0 Output\obj\driver\driver_clk.o
 .rela.text.cm_release_all
                0x0000000010012a14        0x0 Output\obj\driver\driver_clk.o
 .rela.text.cm_read
                0x0000000010012a14        0x0 Output\obj\driver\driver_clk.o
 .rela.text.cm_read8
                0x0000000010012a14        0x0 Output\obj\driver\driver_clk.o
 .rela.text.cm_read16
                0x0000000010012a14        0x0 Output\obj\driver\driver_clk.o
 .rela.text.cm_read32
                0x0000000010012a14        0x0 Output\obj\driver\driver_clk.o
 .rela.text.cm_write
                0x0000000010012a14        0x0 Output\obj\driver\driver_clk.o
 .rela.text.cm_write8
                0x0000000010012a14        0x0 Output\obj\driver\driver_clk.o
 .rela.text.cm_write16
                0x0000000010012a14        0x0 Output\obj\driver\driver_clk.o
 .rela.text.cm_write32
                0x0000000010012a14        0x0 Output\obj\driver\driver_clk.o
 .rela.text.cm_clear
                0x0000000010012a14        0x0 Output\obj\driver\driver_clk.o
 .rela.text.cm_init
                0x0000000010012a14        0x0 Output\obj\driver\driver_clk.o
 .rela.com_text.spiflash.id
                0x0000000010012a14        0x0 Output\obj\driver\driver_clk.o
 .rela.com_text.spiflash
                0x0000000010012a14        0x0 Output\obj\driver\driver_clk.o
 .rela.text.xcfg_init
                0x0000000010012a14        0x0 Output\obj\driver\driver_clk.o
 .rela.com_text.delay
                0x0000000010012a14        0x0 Output\obj\driver\driver_clk.o
 .rela.text.platform_main
                0x0000000010012a14        0x0 Output\obj\driver\driver_clk.o
 .rela.text.main_startup
                0x0000000010012a14        0x0 Output\obj\driver\driver_clk.o
 .rela.com_text.irq
                0x0000000010012a14        0x0 Output\obj\driver\driver_clk.o
 .rela.com_text.irq.wpt
                0x0000000010012a14        0x0 Output\obj\driver\driver_clk.o
 .rela.text.sys_irq_init
                0x0000000010012a14        0x0 Output\obj\driver\driver_clk.o
 .rela.text.soft_irq_init
                0x0000000010012a14        0x0 Output\obj\driver\driver_clk.o
 .rela.text.bthw_irq_init
                0x0000000010012a14        0x0 Output\obj\driver\driver_clk.o
 .rela.text.watch_point_set
                0x0000000010012a14        0x0 Output\obj\driver\driver_clk.o
 .rela.text.usb_irq_init
                0x0000000010012a14        0x0 Output\obj\driver\driver_clk.o
 .rela.text.sys_timer_init
                0x0000000010012a14        0x0 Output\obj\driver\driver_clk.o
 .rela.text.thread_timer_create
                0x0000000010012a14        0x0 Output\obj\driver\driver_clk.o
 .rela.text.thread_btstack_create
                0x0000000010012a14        0x0 Output\obj\driver\driver_clk.o
 .rela.text.thread_driver_create
                0x0000000010012a14        0x0 Output\obj\driver\driver_clk.o
 .rela.text.thread_main_entry
                0x0000000010012a14        0x0 Output\obj\driver\driver_clk.o
 .rela.text.startup.init
                0x0000000010012a14        0x0 Output\obj\driver\driver_clk.o
 .rela.com_text.thread.driver.usb
                0x0000000010012a14        0x0 Output\obj\driver\driver_clk.o
 .rela.com_text.thread.driver.vs
                0x0000000010012a14        0x0 Output\obj\driver\driver_clk.o
 .rela.com_text.thread.driver.enter
                0x0000000010012a14        0x0 Output\obj\driver\driver_clk.o
 .rela.text.pll0_vco_band_trimming
                0x0000000010012a14        0x0 Output\obj\driver\driver_clk.o
 .rela.text.pll0_init
                0x0000000010012a14        0x0 Output\obj\driver\driver_clk.o
 .rela.text.pll_ext_init
                0x0000000010012a14        0x0 Output\obj\driver\driver_clk.o
 .rela.com_text.trim.vddio_get
                0x0000000010012a14        0x0 Output\obj\driver\driver_clk.o
 .rela.com_text.trim.vddio_set
                0x0000000010012a14        0x0 Output\obj\driver\driver_clk.o
 .rela.com_text.trim.core_get
                0x0000000010012a14        0x0 Output\obj\driver\driver_clk.o
 .rela.com_text.trim.core_set
                0x0000000010012a14        0x0 Output\obj\driver\driver_clk.o
 .rela.com_text.trim.lvd_get
                0x0000000010012a14        0x0 Output\obj\driver\driver_clk.o
 .rela.com_text.trim.lvd_set
                0x0000000010012a14        0x0 Output\obj\driver\driver_clk.o
 .rela.text.pmu_voltage_configure
                0x0000000010012a14        0x0 Output\obj\driver\driver_clk.o
 .rela.text.pmu_init
                0x0000000010012a14        0x0 Output\obj\driver\driver_clk.o
 .rela.reset    0x0000000010012a14        0x0 Output\obj\driver\driver_clk.o
 .rela.vector   0x0000000010012a14        0x0 Output\obj\driver\driver_clk.o
 .rela.text.lock_code_usbdev
                0x0000000010012a14        0x0 Output\obj\driver\driver_clk.o
 .rela.text.patch_init
                0x0000000010012a14        0x0 Output\obj\driver\driver_clk.o
 .rela.com_sleep.lp.sleep
                0x0000000010012a14        0x0 Output\obj\driver\driver_clk.o
 .rela.text.sys_clk
                0x0000000010012a14        0x0 Output\obj\driver\driver_clk.o
 .rela.com_text.stack.api
                0x0000000010012a14        0x0 Output\obj\driver\driver_clk.o
 .rela.com_text.stack.run_loop
                0x0000000010012a14        0x0 Output\obj\driver\driver_clk.o
 .rela.text     0x0000000010012a14        0x0 Output\obj\driver\driver_clk.o
 .rela.com_text.bt.timer
                0x0000000010012a14        0x0 Output\obj\driver\driver_clk.o
 .rela.com_text.sleep
                0x0000000010012a14        0x0 Output\obj\driver\driver_clk.o
 .rela.com_text.bb.isr
                0x0000000010012a14        0x0 Output\obj\driver\driver_clk.o
 .rela.com_sleep.bb
                0x0000000010012a14        0x0 Output\obj\driver\driver_clk.o
 .rela.text.bb.aes
                0x0000000010012a14        0x0 Output\obj\driver\driver_clk.o
 .rela.text.stack.send.txpkt
                0x0000000010012a14        0x0 Output\obj\driver\driver_clk.o
 .rela.text.txpkt.flush
                0x0000000010012a14        0x0 Output\obj\driver\driver_clk.o
 .rela.text.sm.aes
                0x0000000010012a14        0x0 Output\obj\driver\driver_clk.o
 .rela.text.sm.get_handle
                0x0000000010012a14        0x0 Output\obj\driver\driver_clk.o
 .rela.text.sm.rau_run
                0x0000000010012a14        0x0 Output\obj\driver\driver_clk.o
 .rela.text.gap.rau.update
                0x0000000010012a14        0x0 Output\obj\driver\driver_clk.o
 .rela.text.sm.request
                0x0000000010012a14        0x0 Output\obj\driver\driver_clk.o
 .rela.text.stack.ble.sm
                0x0000000010012a14        0x0 Output\obj\driver\driver_clk.o
 .rela.text.sm.passkey.set
                0x0000000010012a14        0x0 Output\obj\driver\driver_clk.o
 .rela.text.sm.passkey.get
                0x0000000010012a14        0x0 Output\obj\driver\driver_clk.o
 .rela.text.sm.passkey.input
                0x0000000010012a14        0x0 Output\obj\driver\driver_clk.o
 .rela.text.gap.rau.mode
                0x0000000010012a14        0x0 Output\obj\driver\driver_clk.o
 .rela.text.sm.run
                0x0000000010012a14        0x0 Output\obj\driver\driver_clk.o
 .rela.text.sm.pdu
                0x0000000010012a14        0x0 Output\obj\driver\driver_clk.o
 .rela.text.sm.event
                0x0000000010012a14        0x0 Output\obj\driver\driver_clk.o
 .rela.text.gap.rau_set
                0x0000000010012a14        0x0 Output\obj\driver\driver_clk.o
 .rela.text.gap.adv
                0x0000000010012a14        0x0 Output\obj\driver\driver_clk.o
 .rela.text.sm.delete_bonding
                0x0000000010012a14        0x0 Output\obj\driver\driver_clk.o
 .rela.text.le.db.get
                0x0000000010012a14        0x0 Output\obj\driver\driver_clk.o
 .rela.text.le.db.set
                0x0000000010012a14        0x0 Output\obj\driver\driver_clk.o
 .rela.text.le.db.read
                0x0000000010012a14        0x0 Output\obj\driver\driver_clk.o
 .rela.text.le.db.init
                0x0000000010012a14        0x0 Output\obj\driver\driver_clk.o
 .rela.text.le.db.remove
                0x0000000010012a14        0x0 Output\obj\driver\driver_clk.o
 .rela.text.le.db.remove_all
                0x0000000010012a14        0x0 Output\obj\driver\driver_clk.o
 .rela.text.le.db.add
                0x0000000010012a14        0x0 Output\obj\driver\driver_clk.o
 .rela.text.le.db
                0x0000000010012a14        0x0 Output\obj\driver\driver_clk.o
 .rela.text.le.db.dump
                0x0000000010012a14        0x0 Output\obj\driver\driver_clk.o
 .rela.text.stack.send.ntf_do
                0x0000000010012a14        0x0 Output\obj\driver\driver_clk.o
 .rela.text.stack.send.ntf
                0x0000000010012a14        0x0 Output\obj\driver\driver_clk.o
 .rela.text.ble.indicate
                0x0000000010012a14        0x0 Output\obj\driver\driver_clk.o
 .rela.text.stack.send.server
                0x0000000010012a14        0x0 Output\obj\driver\driver_clk.o
 .rela.text.client.request_can_send
                0x0000000010012a14        0x0 Output\obj\driver\driver_clk.o
 .rela.text.client.write_req
                0x0000000010012a14        0x0 Output\obj\driver\driver_clk.o
 .rela.text.sm.client
                0x0000000010012a14        0x0 Output\obj\driver\driver_clk.o
 .rela.text.client.deserialize_service
                0x0000000010012a14        0x0 Output\obj\driver\driver_clk.o
 .rela.text.client.deserialize_characteristic
                0x0000000010012a14        0x0 Output\obj\driver\driver_clk.o
 .rela.text.client.deserialize_characteristic_descriptor
                0x0000000010012a14        0x0 Output\obj\driver\driver_clk.o
 .rela.text.stack.send.client
                0x0000000010012a14        0x0 Output\obj\driver\driver_clk.o
 .rela.text.client.find_services_uuid16
                0x0000000010012a14        0x0 Output\obj\driver\driver_clk.o
 .rela.text.client.find_character_uuid16
                0x0000000010012a14        0x0 Output\obj\driver\driver_clk.o
 .rela.text.client.read_value_uuid16
                0x0000000010012a14        0x0 Output\obj\driver\driver_clk.o
 .rela.text.sm.server
                0x0000000010012a14        0x0 Output\obj\driver\driver_clk.o
 .rela.text.server.init
                0x0000000010012a14        0x0 Output\obj\driver\driver_clk.o
 .rela.text.server.packet_handler
                0x0000000010012a14        0x0 Output\obj\driver\driver_clk.o
 .rela.text.att.event_handler
                0x0000000010012a14        0x0 Output\obj\driver\driver_clk.o
 .rela.text.server.indicate
                0x0000000010012a14        0x0 Output\obj\driver\driver_clk.o
 .rela.text.server.mtu_get
                0x0000000010012a14        0x0 Output\obj\driver\driver_clk.o
 .rela.text.att.register_client
                0x0000000010012a14        0x0 Output\obj\driver\driver_clk.o
 .rela.text.att.register_server
                0x0000000010012a14        0x0 Output\obj\driver\driver_clk.o
 .rela.text.att.dispatch_server
                0x0000000010012a14        0x0 Output\obj\driver\driver_clk.o
 .rela.text.att.dispatch_client
                0x0000000010012a14        0x0 Output\obj\driver\driver_clk.o
 .rela.text.stack.send.dispatch_server
                0x0000000010012a14        0x0 Output\obj\driver\driver_clk.o
 .rela.text.att.dump
                0x0000000010012a14        0x0 Output\obj\driver\driver_clk.o
 .rela.text.att.mtu_request
                0x0000000010012a14        0x0 Output\obj\driver\driver_clk.o
 .rela.text.att_server.mtu_rsp
                0x0000000010012a14        0x0 Output\obj\driver\driver_clk.o
 .rela.text.gatt.get_client_config
                0x0000000010012a14        0x0 Output\obj\driver\driver_clk.o
 .rela.text.ble.hci
                0x0000000010012a14        0x0 Output\obj\driver\driver_clk.o
 .rela.text.stack.setup
                0x0000000010012a14        0x0 Output\obj\driver\driver_clk.o
 .rela.text.stack.api
                0x0000000010012a14        0x0 Output\obj\driver\driver_clk.o
 .rela.text.ble.api.conn.update
                0x0000000010012a14        0x0 Output\obj\driver\driver_clk.o
 .rela.text.ble.api.max_mtu
                0x0000000010012a14        0x0 Output\obj\driver\driver_clk.o
 .rela.text.ble.api.adv_is_en
                0x0000000010012a14        0x0 Output\obj\driver\driver_clk.o
 .rela.text.ble.api.adv_data.set
                0x0000000010012a14        0x0 Output\obj\driver\driver_clk.o
 .rela.text.ble.api.scan
                0x0000000010012a14        0x0 Output\obj\driver\driver_clk.o
 .rela.text.ble.api.adv_interval.set
                0x0000000010012a14        0x0 Output\obj\driver\driver_clk.o
 .rela.text.ble.api.adv.adv_interval.get
                0x0000000010012a14        0x0 Output\obj\driver\driver_clk.o
 .rela.text.ble.api.conn_param.get
                0x0000000010012a14        0x0 Output\obj\driver\driver_clk.o
 .rela.text.ble.api.latency.dis
                0x0000000010012a14        0x0 Output\obj\driver\driver_clk.o
 .rela.text.ble.api.latency.en
                0x0000000010012a14        0x0 Output\obj\driver\driver_clk.o
 .rela.text.ble.api.adv_param.set
                0x0000000010012a14        0x0 Output\obj\driver\driver_clk.o
 .rela.text.ble.api.regist
                0x0000000010012a14        0x0 Output\obj\driver\driver_clk.o
 .rela.text.ble.set_static_addr
                0x0000000010012a14        0x0 Output\obj\driver\driver_clk.o
 .rela.text.ble.single_mode
                0x0000000010012a14        0x0 Output\obj\driver\driver_clk.o
 .rela.text.bb.aes.ecpy
                0x0000000010012a14        0x0 Output\obj\driver\driver_clk.o
 .rela.text.rf.tx_tone
                0x0000000010012a14        0x0 Output\obj\driver\driver_clk.o
 .rela.com_text.ble.isr.con.end
                0x0000000010012a14        0x0 Output\obj\driver\driver_clk.o
 .rela.com_text.ble.isr.con.rx_desc
                0x0000000010012a14        0x0 Output\obj\driver\driver_clk.o
 .rela.com_text.bb.buf
                0x0000000010012a14        0x0 Output\obj\driver\driver_clk.o
 .rela.text.le.stack
                0x0000000010012a14        0x0 Output\obj\driver\driver_clk.o
 .rela.text.ble.var.init
                0x0000000010012a14        0x0 Output\obj\driver\driver_clk.o
 .rela.rodata   0x0000000010012a14        0x0 Output\obj\driver\driver_clk.o
 .rela.text.stk.l2cap.txreq
                0x0000000010012a14        0x0 Output\obj\driver\driver_clk.o
 .rela.text.stack.l2cap
                0x0000000010012a14        0x0 Output\obj\driver\driver_clk.o
 .rela.text.stack.handler.l2cap
                0x0000000010012a14        0x0 Output\obj\driver\driver_clk.o
 .rela.text.stack.l2cap.gap
                0x0000000010012a14        0x0 Output\obj\driver\driver_clk.o
 .rela.text.stack.send.l2cap
                0x0000000010012a14        0x0 Output\obj\driver\driver_clk.o
 .rela.text.stack.l2cap.connectionless
                0x0000000010012a14        0x0 Output\obj\driver\driver_clk.o
 .rela.text.stack.hci_send
                0x0000000010012a14        0x0 Output\obj\driver\driver_clk.o
 .rela.text.stack.hci_init
                0x0000000010012a14        0x0 Output\obj\driver\driver_clk.o
 .rela.text.stack.hci
                0x0000000010012a14        0x0 Output\obj\driver\driver_clk.o
 .rela.text.stack.hci.conn
                0x0000000010012a14        0x0 Output\obj\driver\driver_clk.o
 .rela.text.stack.send.hci
                0x0000000010012a14        0x0 Output\obj\driver\driver_clk.o
 .rela.com_text.stack.hci_recv
                0x0000000010012a14        0x0 Output\obj\driver\driver_clk.o
 .rela.text.stack.h3c
                0x0000000010012a14        0x0 Output\obj\driver\driver_clk.o
 .rela.com_text.stack.h3c
                0x0000000010012a14        0x0 Output\obj\driver\driver_clk.o
 .rela.com_text.stack.util
                0x0000000010012a14        0x0 Output\obj\driver\driver_clk.o
 .rela.text.btstack.hci.h3c.init
                0x0000000010012a14        0x0 Output\obj\driver\driver_clk.o
 .rela.text.stack.ble.setup
                0x0000000010012a14        0x0 Output\obj\driver\driver_clk.o
 .rela.com_text.stack.uart_isr
                0x0000000010012a14        0x0 Output\obj\driver\driver_clk.o
 .rela.text.stack.hal
                0x0000000010012a14        0x0 Output\obj\driver\driver_clk.o
 .rela.com_text.bb.prog
                0x0000000010012a14        0x0 Output\obj\driver\driver_clk.o
 .rela.text.rfphy.other
                0x0000000010012a14        0x0 Output\obj\driver\driver_clk.o
 .rela.com_sleep.rfphy.init
                0x0000000010012a14        0x0 Output\obj\driver\driver_clk.o
 .rela.com_text.ble.isr
                0x0000000010012a14        0x0 Output\obj\driver\driver_clk.o
 .rela.text.le.mgr
                0x0000000010012a14        0x0 Output\obj\driver\driver_clk.o
 .rela.rodata.le.mgr_cntl.tbl
                0x0000000010012a14        0x0 Output\obj\driver\driver_clk.o
 .rela.text.le.ll_adv.con
                0x0000000010012a14        0x0 Output\obj\driver\driver_clk.o
 .rela.text.le.ll_adv
                0x0000000010012a14        0x0 Output\obj\driver\driver_clk.o
 .rela.text.le.ll_cntl.pdu
                0x0000000010012a14        0x0 Output\obj\driver\driver_clk.o
 .rela.com_text.ble.isr.con
                0x0000000010012a14        0x0 Output\obj\driver\driver_clk.o
 .rela.text.le.ll_cntl.send
                0x0000000010012a14        0x0 Output\obj\driver\driver_clk.o
 .rela.rodata.le.ll_cntl.tbl
                0x0000000010012a14        0x0 Output\obj\driver\driver_clk.o
 .rela.text.le.ll_cntl
                0x0000000010012a14        0x0 Output\obj\driver\driver_clk.o
 .rela.text.le.ll_cntl.start
                0x0000000010012a14        0x0 Output\obj\driver\driver_clk.o
 .rela.text.bb.ble.test.start
                0x0000000010012a14        0x0 Output\obj\driver\driver_clk.o
 .rela.text.bb.vs.fcc
                0x0000000010012a14        0x0 Output\obj\driver\driver_clk.o
 .rela.com_rodata.bb.tbl
                0x0000000010012a14        0x0 Output\obj\driver\driver_clk.o
                0x0000000010012a14        0x4 LONG 0x0
                0x0000000010012c00                . = ALIGN (0x200)
 *fill*         0x0000000010012a18      0x1e8 

.stack          0x0000000000010800      0x400
                0x0000000000010800                __irq_stack_start = .
                0x0000000000000400                . = 0x400
 *fill*         0x0000000000010800      0x400 
                0x0000000000010c00                __irq_stack = .
                0x0000000000000400                __irq_stack_size = (__irq_stack - __irq_stack_start)
                0x0000000000011600                __bank_size = SIZEOF (.flash)
                0x0000000010000200                __comm_lma = LOADADDR (.comm)
                0x0000000000001100                __comm_size = SIZEOF (.comm)
                0x0000000010001300                __pdn_comm_lma = LOADADDR (.pdn_comm)
                0x0000000000000200                __pdn_comm_size = SIZEOF (.pdn_comm)
LOAD ..\..\libs\cpu\libplatform.a
LOAD ..\..\libs\cpu\libm.a
LOAD ..\..\libs\cpu\libc.a
LOAD ..\..\libs\cpu\libgcc.a
LOAD ..\..\libs\ble\libbtstack.a
OUTPUT(Output\bin\app.rv32 elf32-littleriscv)

.comment        0x0000000000000000       0x23
 .comment       0x0000000000000000       0x11 Output\obj\driver\driver_clk.o
                                         0x12 (size before relaxing)
 .comment       0x0000000000000011       0x12 Output\obj\driver\driver_gpio.o
 .comment       0x0000000000000011       0x12 Output\obj\driver\driver_lowpwr.o
 .comment       0x0000000000000011       0x12 Output\obj\driver\driver_pwm.o
 .comment       0x0000000000000011       0x12 Output\obj\driver\driver_saradc.o
 .comment       0x0000000000000011       0x12 Output\obj\project\ble_peripheral\app\func.o
 .comment       0x0000000000000011       0x12 Output\obj\project\ble_peripheral\app\func_bt.o
 .comment       0x0000000000000011       0x12 Output\obj\project\ble_peripheral\app\func_idle.o
 .comment       0x0000000000000011       0x12 Output\obj\project\ble_peripheral\app\func_lowpwr.o
 .comment       0x0000000000000011       0x12 Output\obj\project\ble_peripheral\ble\ble_adv.o
 .comment       0x0000000000000011       0x12 Output\obj\project\ble_peripheral\ble\ble_alarm.o
 .comment       0x0000000000000011       0x12 Output\obj\project\ble_peripheral\ble\ble_fota_service.o
 .comment       0x0000000000000011       0x12 Output\obj\project\ble_peripheral\ble\ble_init.o
 .comment       0x0000000000000011       0x12 Output\obj\project\ble_peripheral\ble\ble_proc.o
 .comment       0x0000000000000011       0x12 Output\obj\project\ble_peripheral\ble\ble_profile.o
 .comment       0x0000000000000011       0x12 Output\obj\project\ble_peripheral\ble\ble_service.o
 .comment       0x0000000000000011       0x12 Output\obj\project\ble_peripheral\ble\ble_user_service.o
 .comment       0x0000000000000011       0x12 Output\obj\project\ble_peripheral\bsp\bsp_param.o
 .comment       0x0000000000000011       0x12 Output\obj\project\ble_peripheral\bsp\bsp_sys.o
 .comment       0x0000000000000011       0x12 Output\obj\project\ble_peripheral\bsp\pwm.o
 .comment       0x0000000000000011       0x12 Output\obj\project\ble_peripheral\main.o
 .comment       0x0000000000000011       0x12 Output\obj\project\ble_peripheral\prod_test\prod_test.o
 .comment       0x0000000000000011       0x12 Output\obj\project\ble_peripheral\strong_ble.o
 .comment       0x0000000000000011       0x12 Output\obj\project\ble_peripheral\strong_symbol.o
 .comment       0x0000000000000011       0x12 ..\..\libs\cpu\libplatform.a(cm.o)
                                         0x13 (size before relaxing)
 .comment       0x0000000000000023       0x13 ..\..\libs\cpu\libplatform.a(os_flash.o)
 .comment       0x0000000000000023       0x13 ..\..\libs\cpu\libplatform.a(xcfg.o)
 .comment       0x0000000000000023       0x13 ..\..\libs\cpu\libplatform.a(main.o)
 .comment       0x0000000000000023       0x13 ..\..\libs\cpu\libplatform.a(interrupt.o)
 .comment       0x0000000000000023       0x13 ..\..\libs\cpu\libplatform.a(startup.o)
 .comment       0x0000000000000023       0x13 ..\..\libs\cpu\libplatform.a(sys_hook.o)
 .comment       0x0000000000000023       0x13 ..\..\libs\cpu\libplatform.a(pll.o)
 .comment       0x0000000000000023       0x13 ..\..\libs\cpu\libplatform.a(pmu.o)
 .comment       0x0000000000000023       0x13 ..\..\libs\cpu\libplatform.a(debug.o)
 .comment       0x0000000000000023       0x13 ..\..\libs\cpu\libplatform.a(fot_pack.o)
 .comment       0x0000000000000023       0x13 ..\..\libs\cpu\libplatform.a(lock.o)
 .comment       0x0000000000000023       0x13 ..\..\libs\cpu\libplatform.a(patch.o)
 .comment       0x0000000000000023       0x13 ..\..\libs\cpu\libplatform.a(sys.o)
 .comment       0x0000000000000023       0x13 ..\..\libs\cpu\libplatform.a(sys_clk.o)
 .comment       0x0000000000000023       0x13 ..\..\libs\cpu\libplatform.a(voltage_trim.o)
 .comment       0x0000000000000023       0x13 ..\..\libs\cpu\libplatform.a(weak_symbol.o)
 .comment       0x0000000000000023       0x13 ..\..\libs\cpu\libplatform.a(bt.o)
 .comment       0x0000000000000023       0x13 ..\..\libs\cpu\libplatform.a(freq_det.o)
 .comment       0x0000000000000023       0x13 ..\..\libs\ble\libbtstack.a(bb_api.o)
 .comment       0x0000000000000023       0x13 ..\..\libs\ble\libbtstack.a(bb_int.o)
 .comment       0x0000000000000023       0x13 ..\..\libs\ble\libbtstack.a(bb_alarm.o)
 .comment       0x0000000000000023       0x13 ..\..\libs\ble\libbtstack.a(txpkt.o)
 .comment       0x0000000000000023       0x13 ..\..\libs\ble\libbtstack.a(sm.o)
 .comment       0x0000000000000023       0x13 ..\..\libs\ble\libbtstack.a(le_device_db_memory.o)
 .comment       0x0000000000000023       0x13 ..\..\libs\ble\libbtstack.a(gatt_server.o)
 .comment       0x0000000000000023       0x13 ..\..\libs\ble\libbtstack.a(gatt_client.o)
 .comment       0x0000000000000023       0x13 ..\..\libs\ble\libbtstack.a(att_server.o)
 .comment       0x0000000000000023       0x13 ..\..\libs\ble\libbtstack.a(att_dispatch.o)
 .comment       0x0000000000000023       0x13 ..\..\libs\ble\libbtstack.a(att_db.o)
 .comment       0x0000000000000023       0x13 ..\..\libs\ble\libbtstack.a(btstack_api.o)
 .comment       0x0000000000000023       0x13 ..\..\libs\ble\libbtstack.a(ble_api.o)
 .comment       0x0000000000000023       0x13 ..\..\libs\ble\libbtstack.a(txpkt.o)
 .comment       0x0000000000000023       0x13 ..\..\libs\ble\libbtstack.a(aes.o)
 .comment       0x0000000000000023       0x13 ..\..\libs\ble\libbtstack.a(extern.o)
 .comment       0x0000000000000023       0x13 ..\..\libs\ble\libbtstack.a(rf.o)
 .comment       0x0000000000000023       0x13 ..\..\libs\ble\libbtstack.a(ble_con.o)
 .comment       0x0000000000000023       0x13 ..\..\libs\ble\libbtstack.a(ble_buf.o)
 .comment       0x0000000000000023       0x13 ..\..\libs\ble\libbtstack.a(ble.o)
 .comment       0x0000000000000023       0x13 ..\..\libs\ble\libbtstack.a(bb_utils.o)
 .comment       0x0000000000000023       0x13 ..\..\libs\ble\libbtstack.a(bb.o)
 .comment       0x0000000000000023       0x13 ..\..\libs\ble\libbtstack.a(platform.o)
 .comment       0x0000000000000023       0x13 ..\..\libs\ble\libbtstack.a(extern_ble.o)
 .comment       0x0000000000000023       0x13 ..\..\libs\ble\libbtstack.a(l2cap.o)
 .comment       0x0000000000000023       0x13 ..\..\libs\ble\libbtstack.a(hci_dump.o)
 .comment       0x0000000000000023       0x13 ..\..\libs\ble\libbtstack.a(hci_cmd.o)
 .comment       0x0000000000000023       0x13 ..\..\libs\ble\libbtstack.a(hci.o)
 .comment       0x0000000000000023       0x13 ..\..\libs\ble\libbtstack.a(btstack_util.o)
 .comment       0x0000000000000023       0x13 ..\..\libs\ble\libbtstack.a(btstack_run_loop.o)
 .comment       0x0000000000000023       0x13 ..\..\libs\ble\libbtstack.a(hci_transport_h3_controller.o)
 .comment       0x0000000000000023       0x13 ..\..\libs\ble\libbtstack.a(hci_transport_dummy.o)
 .comment       0x0000000000000023       0x13 ..\..\libs\ble\libbtstack.a(btstack_main.o)
 .comment       0x0000000000000023       0x13 ..\..\libs\ble\libbtstack.a(btstack_hal.o)
 .comment       0x0000000000000023       0x13 ..\..\libs\ble\libbtstack.a(nanos.o)
 .comment       0x0000000000000023       0x13 ..\..\libs\ble\libbtstack.a(bb_sche.o)
 .comment       0x0000000000000023       0x13 ..\..\libs\ble\libbtstack.a(patch.o)
 .comment       0x0000000000000023       0x13 ..\..\libs\ble\libbtstack.a(bb_dbg.o)
 .comment       0x0000000000000023       0x13 ..\..\libs\ble\libbtstack.a(bb_clk.o)
 .comment       0x0000000000000023       0x13 ..\..\libs\ble\libbtstack.a(vs.o)
 .comment       0x0000000000000023       0x13 ..\..\libs\ble\libbtstack.a(rf_mate.o)
 .comment       0x0000000000000023       0x13 ..\..\libs\ble\libbtstack.a(ble_hook.o)
 .comment       0x0000000000000023       0x13 ..\..\libs\ble\libbtstack.a(hct_proc.o)
 .comment       0x0000000000000023       0x13 ..\..\libs\ble\libbtstack.a(hct.o)
 .comment       0x0000000000000023       0x13 ..\..\libs\ble\libbtstack.a(mgr_hci.o)
 .comment       0x0000000000000023       0x13 ..\..\libs\ble\libbtstack.a(mgr.o)
 .comment       0x0000000000000023       0x13 ..\..\libs\ble\libbtstack.a(ll_adv.o)
 .comment       0x0000000000000023       0x13 ..\..\libs\ble\libbtstack.a(ll_tbox_freq_cal.o)
 .comment       0x0000000000000023       0x13 ..\..\libs\ble\libbtstack.a(ll_con_upd.o)
 .comment       0x0000000000000023       0x13 ..\..\libs\ble\libbtstack.a(ll_cntl.o)
 .comment       0x0000000000000023       0x13 ..\..\libs\ble\libbtstack.a(ll_clk_acc.o)
 .comment       0x0000000000000023       0x13 ..\..\libs\ble\libbtstack.a(ll_chmap_upd.o)
 .comment       0x0000000000000023       0x13 ..\..\libs\ble\libbtstack.a(ll.o)
 .comment       0x0000000000000023       0x13 ..\..\libs\ble\libbtstack.a(ble_test.o)
 .comment       0x0000000000000023       0x13 ..\..\libs\ble\libbtstack.a(ble_sync.o)
 .comment       0x0000000000000023       0x13 ..\..\libs\ble\libbtstack.a(ble_scan.o)
 .comment       0x0000000000000023       0x13 ..\..\libs\ble\libbtstack.a(ble_init.o)
 .comment       0x0000000000000023       0x13 ..\..\libs\ble\libbtstack.a(ble_hal.o)
 .comment       0x0000000000000023       0x13 ..\..\libs\ble\libbtstack.a(ble_adv.o)
 .comment       0x0000000000000023       0x13 ..\..\libs\ble\libbtstack.a(l2cap_signaling.o)
 .comment       0x0000000000000023       0x13 ..\..\libs\ble\libbtstack.a(platform.o)
 .comment       0x0000000000000023       0x13 ..\..\libs\ble\libbtstack.a(vs_proc.o)
 .comment       0x0000000000000023       0x13 ..\..\libs\ble\libbtstack.a(vs_fcc.o)
 .comment       0x0000000000000023       0x13 ..\..\libs\ble\libbtstack.a(adv_hook.o)
 .comment       0x0000000000000023       0x13 ..\..\libs\ble\libbtstack.a(hct_msg.o)
 .comment       0x0000000000000023       0x13 ..\..\libs\ble\libbtstack.a(mgr_test.o)
 .comment       0x0000000000000023       0x13 ..\..\libs\ble\libbtstack.a(mgr_proc.o)
 .comment       0x0000000000000023       0x13 ..\..\libs\ble\libbtstack.a(ll_version.o)
 .comment       0x0000000000000023       0x13 ..\..\libs\ble\libbtstack.a(ll_tbox_prod_test.o)
 .comment       0x0000000000000023       0x13 ..\..\libs\ble\libbtstack.a(ll_tbox_feature.o)
 .comment       0x0000000000000023       0x13 ..\..\libs\ble\libbtstack.a(ll_proc.o)
 .comment       0x0000000000000023       0x13 ..\..\libs\ble\libbtstack.a(ll_phy_upd.o)
 .comment       0x0000000000000023       0x13 ..\..\libs\ble\libbtstack.a(ll_length.o)
 .comment       0x0000000000000023       0x13 ..\..\libs\ble\libbtstack.a(ll_feature.o)
 .comment       0x0000000000000023       0x13 ..\..\libs\ble\libbtstack.a(ll_encrypt.o)
 .comment       0x0000000000000023       0x13 ..\..\libs\ble\libbtstack.a(ll_disconnect.o)

.riscv.attributes
                0x0000000000000000     0x1322
 .riscv.attributes
                0x0000000000000000       0x32 ..\..\libs\cpu\libplatform.a(cm.o)
 .riscv.attributes
                0x0000000000000032       0x32 ..\..\libs\cpu\libplatform.a(os_flash.o)
 .riscv.attributes
                0x0000000000000064       0x32 ..\..\libs\cpu\libplatform.a(xcfg.o)
 .riscv.attributes
                0x0000000000000096       0x32 ..\..\libs\cpu\libplatform.a(main.o)
 .riscv.attributes
                0x00000000000000c8       0x32 ..\..\libs\cpu\libplatform.a(interrupt.o)
 .riscv.attributes
                0x00000000000000fa       0x32 ..\..\libs\cpu\libplatform.a(startup.o)
 .riscv.attributes
                0x000000000000012c       0x32 ..\..\libs\cpu\libplatform.a(sys_hook.o)
 .riscv.attributes
                0x000000000000015e       0x32 ..\..\libs\cpu\libplatform.a(pll.o)
 .riscv.attributes
                0x0000000000000190       0x32 ..\..\libs\cpu\libplatform.a(pmu.o)
 .riscv.attributes
                0x00000000000001c2       0x34 ..\..\libs\cpu\libplatform.a(reset.o)
 .riscv.attributes
                0x00000000000001f6       0x32 ..\..\libs\cpu\libplatform.a(debug.o)
 .riscv.attributes
                0x0000000000000228       0x32 ..\..\libs\cpu\libplatform.a(fot_pack.o)
 .riscv.attributes
                0x000000000000025a       0x32 ..\..\libs\cpu\libplatform.a(lock.o)
 .riscv.attributes
                0x000000000000028c       0x32 ..\..\libs\cpu\libplatform.a(patch.o)
 .riscv.attributes
                0x00000000000002be       0x30 ..\..\libs\cpu\libplatform.a(s_sys.o)
 .riscv.attributes
                0x00000000000002ee       0x32 ..\..\libs\cpu\libplatform.a(sys.o)
 .riscv.attributes
                0x0000000000000320       0x32 ..\..\libs\cpu\libplatform.a(sys_clk.o)
 .riscv.attributes
                0x0000000000000352       0x32 ..\..\libs\cpu\libplatform.a(voltage_trim.o)
 .riscv.attributes
                0x0000000000000384       0x32 ..\..\libs\cpu\libplatform.a(weak_symbol.o)
 .riscv.attributes
                0x00000000000003b6       0x32 ..\..\libs\cpu\libplatform.a(bt.o)
 .riscv.attributes
                0x00000000000003e8       0x32 ..\..\libs\cpu\libplatform.a(freq_det.o)
 .riscv.attributes
                0x000000000000041a       0x32 ..\..\libs\ble\libbtstack.a(bb_api.o)
 .riscv.attributes
                0x000000000000044c       0x32 ..\..\libs\ble\libbtstack.a(bb_int.o)
 .riscv.attributes
                0x000000000000047e       0x32 ..\..\libs\ble\libbtstack.a(bb_alarm.o)
 .riscv.attributes
                0x00000000000004b0       0x32 ..\..\libs\ble\libbtstack.a(txpkt.o)
 .riscv.attributes
                0x00000000000004e2       0x32 ..\..\libs\ble\libbtstack.a(sm.o)
 .riscv.attributes
                0x0000000000000514       0x32 ..\..\libs\ble\libbtstack.a(le_device_db_memory.o)
 .riscv.attributes
                0x0000000000000546       0x32 ..\..\libs\ble\libbtstack.a(gatt_server.o)
 .riscv.attributes
                0x0000000000000578       0x32 ..\..\libs\ble\libbtstack.a(gatt_client.o)
 .riscv.attributes
                0x00000000000005aa       0x32 ..\..\libs\ble\libbtstack.a(att_server.o)
 .riscv.attributes
                0x00000000000005dc       0x32 ..\..\libs\ble\libbtstack.a(att_dispatch.o)
 .riscv.attributes
                0x000000000000060e       0x32 ..\..\libs\ble\libbtstack.a(att_db.o)
 .riscv.attributes
                0x0000000000000640       0x32 ..\..\libs\ble\libbtstack.a(btstack_api.o)
 .riscv.attributes
                0x0000000000000672       0x32 ..\..\libs\ble\libbtstack.a(ble_api.o)
 .riscv.attributes
                0x00000000000006a4       0x32 ..\..\libs\ble\libbtstack.a(txpkt.o)
 .riscv.attributes
                0x00000000000006d6       0x32 ..\..\libs\ble\libbtstack.a(aes.o)
 .riscv.attributes
                0x0000000000000708       0x32 ..\..\libs\ble\libbtstack.a(extern.o)
 .riscv.attributes
                0x000000000000073a       0x32 ..\..\libs\ble\libbtstack.a(rf.o)
 .riscv.attributes
                0x000000000000076c       0x32 ..\..\libs\ble\libbtstack.a(ble_con.o)
 .riscv.attributes
                0x000000000000079e       0x32 ..\..\libs\ble\libbtstack.a(ble_buf.o)
 .riscv.attributes
                0x00000000000007d0       0x32 ..\..\libs\ble\libbtstack.a(ble.o)
 .riscv.attributes
                0x0000000000000802       0x32 ..\..\libs\ble\libbtstack.a(bb_utils.o)
 .riscv.attributes
                0x0000000000000834       0x32 ..\..\libs\ble\libbtstack.a(bb.o)
 .riscv.attributes
                0x0000000000000866       0x32 ..\..\libs\ble\libbtstack.a(platform.o)
 .riscv.attributes
                0x0000000000000898       0x32 ..\..\libs\ble\libbtstack.a(extern_ble.o)
 .riscv.attributes
                0x00000000000008ca       0x32 ..\..\libs\ble\libbtstack.a(l2cap.o)
 .riscv.attributes
                0x00000000000008fc       0x32 ..\..\libs\ble\libbtstack.a(hci_dump.o)
 .riscv.attributes
                0x000000000000092e       0x32 ..\..\libs\ble\libbtstack.a(hci_cmd.o)
 .riscv.attributes
                0x0000000000000960       0x32 ..\..\libs\ble\libbtstack.a(hci.o)
 .riscv.attributes
                0x0000000000000992       0x32 ..\..\libs\ble\libbtstack.a(btstack_util.o)
 .riscv.attributes
                0x00000000000009c4       0x32 ..\..\libs\ble\libbtstack.a(btstack_run_loop.o)
 .riscv.attributes
                0x00000000000009f6       0x32 ..\..\libs\ble\libbtstack.a(hci_transport_h3_controller.o)
 .riscv.attributes
                0x0000000000000a28       0x32 ..\..\libs\ble\libbtstack.a(hci_transport_dummy.o)
 .riscv.attributes
                0x0000000000000a5a       0x32 ..\..\libs\ble\libbtstack.a(btstack_main.o)
 .riscv.attributes
                0x0000000000000a8c       0x32 ..\..\libs\ble\libbtstack.a(btstack_hal.o)
 .riscv.attributes
                0x0000000000000abe       0x32 ..\..\libs\ble\libbtstack.a(nanos.o)
 .riscv.attributes
                0x0000000000000af0       0x32 ..\..\libs\ble\libbtstack.a(bb_sche.o)
 .riscv.attributes
                0x0000000000000b22       0x32 ..\..\libs\ble\libbtstack.a(patch.o)
 .riscv.attributes
                0x0000000000000b54       0x32 ..\..\libs\ble\libbtstack.a(bb_dbg.o)
 .riscv.attributes
                0x0000000000000b86       0x32 ..\..\libs\ble\libbtstack.a(bb_clk.o)
 .riscv.attributes
                0x0000000000000bb8       0x32 ..\..\libs\ble\libbtstack.a(vs.o)
 .riscv.attributes
                0x0000000000000bea       0x32 ..\..\libs\ble\libbtstack.a(rf_mate.o)
 .riscv.attributes
                0x0000000000000c1c       0x32 ..\..\libs\ble\libbtstack.a(ble_hook.o)
 .riscv.attributes
                0x0000000000000c4e       0x32 ..\..\libs\ble\libbtstack.a(hct_proc.o)
 .riscv.attributes
                0x0000000000000c80       0x32 ..\..\libs\ble\libbtstack.a(hct.o)
 .riscv.attributes
                0x0000000000000cb2       0x32 ..\..\libs\ble\libbtstack.a(mgr_hci.o)
 .riscv.attributes
                0x0000000000000ce4       0x32 ..\..\libs\ble\libbtstack.a(mgr.o)
 .riscv.attributes
                0x0000000000000d16       0x32 ..\..\libs\ble\libbtstack.a(ll_adv.o)
 .riscv.attributes
                0x0000000000000d48       0x32 ..\..\libs\ble\libbtstack.a(ll_tbox_freq_cal.o)
 .riscv.attributes
                0x0000000000000d7a       0x32 ..\..\libs\ble\libbtstack.a(ll_con_upd.o)
 .riscv.attributes
                0x0000000000000dac       0x32 ..\..\libs\ble\libbtstack.a(ll_cntl.o)
 .riscv.attributes
                0x0000000000000dde       0x32 ..\..\libs\ble\libbtstack.a(ll_clk_acc.o)
 .riscv.attributes
                0x0000000000000e10       0x32 ..\..\libs\ble\libbtstack.a(ll_chmap_upd.o)
 .riscv.attributes
                0x0000000000000e42       0x32 ..\..\libs\ble\libbtstack.a(ll.o)
 .riscv.attributes
                0x0000000000000e74       0x32 ..\..\libs\ble\libbtstack.a(ble_test.o)
 .riscv.attributes
                0x0000000000000ea6       0x32 ..\..\libs\ble\libbtstack.a(ble_sync.o)
 .riscv.attributes
                0x0000000000000ed8       0x32 ..\..\libs\ble\libbtstack.a(ble_scan.o)
 .riscv.attributes
                0x0000000000000f0a       0x32 ..\..\libs\ble\libbtstack.a(ble_init.o)
 .riscv.attributes
                0x0000000000000f3c       0x32 ..\..\libs\ble\libbtstack.a(ble_hal.o)
 .riscv.attributes
                0x0000000000000f6e       0x32 ..\..\libs\ble\libbtstack.a(ble_adv.o)
 .riscv.attributes
                0x0000000000000fa0       0x32 ..\..\libs\ble\libbtstack.a(l2cap_signaling.o)
 .riscv.attributes
                0x0000000000000fd2       0x30 ..\..\libs\ble\libbtstack.a(patch_asm.o)
 .riscv.attributes
                0x0000000000001002       0x32 ..\..\libs\ble\libbtstack.a(platform.o)
 .riscv.attributes
                0x0000000000001034       0x32 ..\..\libs\ble\libbtstack.a(vs_proc.o)
 .riscv.attributes
                0x0000000000001066       0x32 ..\..\libs\ble\libbtstack.a(vs_fcc.o)
 .riscv.attributes
                0x0000000000001098       0x32 ..\..\libs\ble\libbtstack.a(adv_hook.o)
 .riscv.attributes
                0x00000000000010ca       0x32 ..\..\libs\ble\libbtstack.a(hct_msg.o)
 .riscv.attributes
                0x00000000000010fc       0x32 ..\..\libs\ble\libbtstack.a(mgr_test.o)
 .riscv.attributes
                0x000000000000112e       0x32 ..\..\libs\ble\libbtstack.a(mgr_proc.o)
 .riscv.attributes
                0x0000000000001160       0x32 ..\..\libs\ble\libbtstack.a(ll_version.o)
 .riscv.attributes
                0x0000000000001192       0x32 ..\..\libs\ble\libbtstack.a(ll_tbox_prod_test.o)
 .riscv.attributes
                0x00000000000011c4       0x32 ..\..\libs\ble\libbtstack.a(ll_tbox_feature.o)
 .riscv.attributes
                0x00000000000011f6       0x32 ..\..\libs\ble\libbtstack.a(ll_proc.o)
 .riscv.attributes
                0x0000000000001228       0x32 ..\..\libs\ble\libbtstack.a(ll_phy_upd.o)
 .riscv.attributes
                0x000000000000125a       0x32 ..\..\libs\ble\libbtstack.a(ll_length.o)
 .riscv.attributes
                0x000000000000128c       0x32 ..\..\libs\ble\libbtstack.a(ll_feature.o)
 .riscv.attributes
                0x00000000000012be       0x32 ..\..\libs\ble\libbtstack.a(ll_encrypt.o)
 .riscv.attributes
                0x00000000000012f0       0x32 ..\..\libs\ble\libbtstack.a(ll_disconnect.o)
