Archive member included to satisfy reference by file (symbol)

..\..\..\libs\cpu\libplatform.a(audio_mic.o)
                              Output\obj\driver\driver_saradc.o (audio_mic_analog_init)
..\..\..\libs\cpu\libplatform.a(audio_mic_trim.o)
                              ..\..\..\libs\cpu\libplatform.a(audio_mic.o) (audio_mic_trim_sta_set)
..\..\..\libs\cpu\libplatform.a(cm.o)
                              Output\obj\project\solution\ble_usb_dongle\bsp\bsp_param.o (cm_sync)
..\..\..\libs\cpu\libplatform.a(os_flash.o)
                              ..\..\..\libs\cpu\libplatform.a(cm.o) (os_spiflash_program)
..\..\..\libs\cpu\libplatform.a(xcfg.o)
                              Output\obj\project\solution\ble_usb_dongle\bsp\bsp_sys.o (xcfg_init)
..\..\..\libs\cpu\libplatform.a(device.o)
                              Output\obj\project\solution\ble_usb_dongle\bsp\bsp_sys.o (dev_init)
..\..\..\libs\cpu\libplatform.a(main.o)
                              Output\obj\driver\driver_lowpwr.o (delay_us)
..\..\..\libs\cpu\libplatform.a(interrupt.o)
                              Output\obj\driver\driver_gpio.o (sys_irq_init)
..\..\..\libs\cpu\libplatform.a(startup.o)
                              ..\..\..\libs\cpu\libplatform.a(interrupt.o) (soft_timer_isr_en)
..\..\..\libs\cpu\libplatform.a(sys_hook.o)
                              ..\..\..\libs\cpu\libplatform.a(startup.o) (sys_hook_init)
..\..\..\libs\cpu\libplatform.a(thread_driver.o)
                              Output\obj\project\solution\ble_usb_dongle\usb\usb_cdc.o (thread_driver_user_msg_post)
..\..\..\libs\cpu\libplatform.a(pll.o)
                              ..\..\..\libs\cpu\libplatform.a(main.o) (pll0_disable)
..\..\..\libs\cpu\libplatform.a(pmu.o)
                              Output\obj\driver\driver_lowpwr.o (pmu_get_vddcore)
..\..\..\libs\cpu\libplatform.a(reset.o)
                              (_start)
..\..\..\libs\cpu\libplatform.a(context.o)
                              Output\obj\driver\driver_lowpwr.o (lp_sleep)
..\..\..\libs\cpu\libplatform.a(debug.o)
                              ..\..\..\libs\cpu\libplatform.a(reset.o) (exception_isr)
..\..\..\libs\cpu\libplatform.a(key.o)
                              Output\obj\project\solution\ble_usb_dongle\bsp\bsp_key.o (multiple_key_init)
..\..\..\libs\cpu\libplatform.a(lock.o)
                              ..\..\..\libs\cpu\libplatform.a(main.o) (lock_init)
..\..\..\libs\cpu\libplatform.a(patch.o)
                              ..\..\..\libs\cpu\libplatform.a(main.o) (patch_init)
..\..\..\libs\cpu\libplatform.a(s_sys.o)
                              ..\..\..\libs\cpu\libplatform.a(startup.o) (dummy_func)
..\..\..\libs\cpu\libplatform.a(sleep.o)
                              Output\obj\driver\driver_lowpwr.o (lowpwr_sleep_sfr_save)
..\..\..\libs\cpu\libplatform.a(sys.o)
                              Output\obj\project\solution\ble_usb_dongle\main.o (sys_rst_init)
..\..\..\libs\cpu\libplatform.a(sys_clk.o)
                              ..\..\..\libs\cpu\libplatform.a(audio_mic.o) (sys_clk_get_cur)
..\..\..\libs\cpu\libplatform.a(voltage_trim.o)
                              ..\..\..\libs\cpu\libplatform.a(pll.o) (sys_trim)
..\..\..\libs\cpu\libplatform.a(weak_symbol.o)
                              ..\..\..\libs\cpu\libplatform.a(main.o) (xosc_24m_div_get)
..\..\..\libs\cpu\libplatform.a(bt.o)
                              ..\..\..\libs\cpu\libplatform.a(startup.o) (thread_btstack_entry)
..\..\..\libs\cpu\libplatform.a(freq_det.o)
                              ..\..\..\libs\cpu\libplatform.a(sleep.o) (freq_det_kick)
..\..\..\libs\ble\libbtstack_central.a(bb_api.o)
                              Output\obj\project\solution\ble_usb_dongle\ble\ble_alarm.o (ble_alarm_timer_init)
..\..\..\libs\ble\libbtstack_central.a(bb_int.o)
                              ..\..\..\libs\ble\libbtstack_central.a(bb_api.o) (bb_sleep)
..\..\..\libs\ble\libbtstack_central.a(bb_alarm.o)
                              ..\..\..\libs\ble\libbtstack_central.a(bb_api.o) (bb_timer_queue_check)
..\..\..\libs\ble\libbtstack_central.a(txpkt.o)
                              Output\obj\project\solution\ble_usb_dongle\ble\ble_init.o (txpkt_init)
..\..\..\libs\ble\libbtstack_central.a(sm.o)
                              Output\obj\project\solution\ble_usb_dongle\ble\ble_init.o (ble_sm_init)
..\..\..\libs\ble\libbtstack_central.a(le_device_db_memory.o)
                              ..\..\..\libs\ble\libbtstack_central.a(sm.o) (le_device_db_count)
..\..\..\libs\ble\libbtstack_central.a(gatt_client.o)
                              Output\obj\project\solution\ble_usb_dongle\ble\ble_client.o (att_client_register_handler)
..\..\..\libs\ble\libbtstack_central.a(att_server.o)
                              ..\..\..\libs\ble\libbtstack_central.a(gatt_client.o) (att_server_request_can_send_now_event)
..\..\..\libs\ble\libbtstack_central.a(att_dispatch.o)
                              ..\..\..\libs\ble\libbtstack_central.a(gatt_client.o) (att_dispatch_register_client)
..\..\..\libs\ble\libbtstack_central.a(att_db.o)
                              ..\..\..\libs\ble\libbtstack_central.a(att_server.o) (att_set_db)
..\..\..\libs\ble\libbtstack_central.a(btstack_api.o)
                              Output\obj\project\solution\ble_usb_dongle\ble\ble_init.o (btstack_init)
..\..\..\libs\ble\libbtstack_central.a(ble_api.o)
                              ..\..\..\libs\ble\libbtstack_central.a(btstack_api.o) (ble_msg_free_prepare)
..\..\..\libs\ble\libbtstack_central.a(txpkt.o)
                              ..\..\..\libs\ble\libbtstack_central.a(txpkt.o) (txpkt_mem_init)
..\..\..\libs\ble\libbtstack_central.a(aes.o)
                              ..\..\..\libs\ble\libbtstack_central.a(bb_int.o) (aes_result_handler)
..\..\..\libs\ble\libbtstack_central.a(extern.o)
                              ..\..\..\libs\ble\libbtstack_central.a(bb_int.o) (sys_sleep_cb)
..\..\..\libs\ble\libbtstack_central.a(rf.o)
                              ..\..\..\libs\ble\libbtstack_central.a(bb_int.o) (rf_sleep)
..\..\..\libs\ble\libbtstack_central.a(hct_tl.o)
                              ..\..\..\libs\ble\libbtstack_central.a(bb_int.o) (hct_queue_is_empty)
..\..\..\libs\ble\libbtstack_central.a(ble_con.o)
                              ..\..\..\libs\ble\libbtstack_central.a(btstack_api.o) (ble_get_con_rssi)
..\..\..\libs\ble\libbtstack_central.a(ble_buf.o)
                              ..\..\..\libs\ble\libbtstack_central.a(ble_api.o) (ble_msg_malloc)
..\..\..\libs\ble\libbtstack_central.a(ble.o)
                              ..\..\..\libs\ble\libbtstack_central.a(bb_int.o) (ble_isr)
..\..\..\libs\ble\libbtstack_central.a(bb_utils.o)
                              ..\..\..\libs\ble\libbtstack_central.a(ble_con.o) (bb_sca2ppm)
..\..\..\libs\ble\libbtstack_central.a(bb_sleep.o)
                              ..\..\..\libs\ble\libbtstack_central.a(bb_int.o) (bb_sleep_suspend)
..\..\..\libs\ble\libbtstack_central.a(bb.o)
                              ..\..\..\libs\ble\libbtstack_central.a(ble.o) (bb_rand_init)
..\..\..\libs\ble\libbtstack_central.a(platform.o)
                              ..\..\..\libs\ble\libbtstack_central.a(bb.o) (dummy_void)
..\..\..\libs\ble\libbtstack_central.a(extern_ble.o)
                              ..\..\..\libs\ble\libbtstack_central.a(le_device_db_memory.o) (ble_sync_link_info)
..\..\..\libs\ble\libbtstack_central.a(l2cap.o)
                              ..\..\..\libs\ble\libbtstack_central.a(sm.o) (l2cap_request_can_send_fix_channel_now_event)
..\..\..\libs\ble\libbtstack_central.a(hci_dump.o)
                              ..\..\..\libs\ble\libbtstack_central.a(btstack_api.o) (hci_dump_open)
..\..\..\libs\ble\libbtstack_central.a(hci_cmd.o)
                              ..\..\..\libs\ble\libbtstack_central.a(sm.o) (hci_le_rand)
..\..\..\libs\ble\libbtstack_central.a(hci.o)
                              ..\..\..\libs\ble\libbtstack_central.a(sm.o) (hci_get_state)
..\..\..\libs\ble\libbtstack_central.a(btstack_util.o)
                              ..\..\..\libs\ble\libbtstack_central.a(hci.o) (bd_addr_copy)
..\..\..\libs\ble\libbtstack_central.a(btstack_run_loop.o)
                              ..\..\..\libs\ble\libbtstack_central.a(sm.o) (btstack_run_loop_set_timer_handler)
..\..\..\libs\ble\libbtstack_central.a(btstack_memory.o)
                              ..\..\..\libs\ble\libbtstack_central.a(gatt_client.o) (btstack_memory_gatt_client_get)
..\..\..\libs\ble\libbtstack_central.a(gatt_server.o)
                              ..\..\..\libs\ble\libbtstack_central.a(att_server.o) (att_event_server_txpkt_send)
..\..\..\libs\ble\libbtstack_central.a(hci_transport_h3_controller.o)
                              ..\..\..\libs\ble\libbtstack_central.a(btstack_run_loop.o) (hci_is_sleep)
..\..\..\libs\ble\libbtstack_central.a(hci_transport_dummy.o)
                              ..\..\..\libs\ble\libbtstack_central.a(btstack_api.o) (hci_iodm_init)
..\..\..\libs\ble\libbtstack_central.a(btstack_main.o)
                              ..\..\..\libs\ble\libbtstack_central.a(ble_api.o) (btstack_ble_set_init_callback)
..\..\..\libs\ble\libbtstack_central.a(btstack_hal.o)
                              ..\..\..\libs\ble\libbtstack_central.a(btstack_run_loop.o) (hal_tick_init)
..\..\..\libs\ble\libbtstack_central.a(nanos.o)
                              ..\..\..\libs\ble\libbtstack_central.a(bb.o) (nanos_init)
..\..\..\libs\ble\libbtstack_central.a(bb_sche.o)
                              ..\..\..\libs\ble\libbtstack_central.a(bb.o) (bb_sche_init)
..\..\..\libs\ble\libbtstack_central.a(patch.o)
                              ..\..\..\libs\ble\libbtstack_central.a(bb.o) (bb_patch_dummy)
..\..\..\libs\ble\libbtstack_central.a(bb_dbg.o)
                              ..\..\..\libs\ble\libbtstack_central.a(bb.o) (bb_dbg_init)
..\..\..\libs\ble\libbtstack_central.a(bb_clk.o)
                              ..\..\..\libs\ble\libbtstack_central.a(bb.o) (bb_lpcycles_2_hus_hook)
..\..\..\libs\ble\libbtstack_central.a(vs.o)
                              ..\..\..\libs\ble\libbtstack_central.a(bb.o) (vs_init)
..\..\..\libs\ble\libbtstack_central.a(rf_mate.o)
                              ..\..\..\libs\ble\libbtstack_central.a(rf.o) (rfphy_sw_ctrl)
..\..\..\libs\ble\libbtstack_central.a(ble_hook.o)
                              ..\..\..\libs\ble\libbtstack_central.a(bb.o) (ble_isr_hook)
..\..\..\libs\ble\libbtstack_central.a(hct_proc.o)
                              ..\..\..\libs\ble\libbtstack_central.a(hci.o) (hct_register_handler_evt)
..\..\..\libs\ble\libbtstack_central.a(hct.o)
                              ..\..\..\libs\ble\libbtstack_central.a(bb.o) (hct_init)
..\..\..\libs\ble\libbtstack_central.a(mgr_hci.o)
                              ..\..\..\libs\ble\libbtstack_central.a(hci.o) (hci_le_rd_buff_size)
..\..\..\libs\ble\libbtstack_central.a(mgr.o)
                              ..\..\..\libs\ble\libbtstack_central.a(mgr_hci.o) (mgr_cmd_cmp_send)
..\..\..\libs\ble\libbtstack_central.a(ll_scan.o)
                              ..\..\..\libs\ble\libbtstack_central.a(mgr_hci.o) (hci_le_set_scan_param_cmd_func)
..\..\..\libs\ble\libbtstack_central.a(ll_cntl.o)
                              ..\..\..\libs\ble\libbtstack_central.a(bb.o) (ll_cntl_pdu_tbl)
..\..\..\libs\ble\libbtstack_central.a(ll_clk_acc.o)
                              ..\..\..\libs\ble\libbtstack_central.a(ll_cntl.o) (ll_clk_acc_req_func)
..\..\..\libs\ble\libbtstack_central.a(ll_chmap_upd.o)
                              ..\..\..\libs\ble\libbtstack_central.a(ll_cntl.o) (ll_channel_map_ind_func)
..\..\..\libs\ble\libbtstack_central.a(ll.o)
                              ..\..\..\libs\ble\libbtstack_central.a(ble.o) (ll_init)
..\..\..\libs\ble\libbtstack_central.a(ble_test.o)
                              ..\..\..\libs\ble\libbtstack_central.a(ble.o) (ble_get_test_var)
..\..\..\libs\ble\libbtstack_central.a(ble_sync.o)
                              ..\..\..\libs\ble\libbtstack_central.a(ble.o) (ble_get_sync_var)
..\..\..\libs\ble\libbtstack_central.a(ble_scan.o)
                              ..\..\..\libs\ble\libbtstack_central.a(ble.o) (ble_get_scan_var)
..\..\..\libs\ble\libbtstack_central.a(ble_init.o)
                              ..\..\..\libs\ble\libbtstack_central.a(ble.o) (ble_get_init_var)
..\..\..\libs\ble\libbtstack_central.a(ble_hal.o)
                              ..\..\..\libs\ble\libbtstack_central.a(ble.o) (ble_get_rslv_var)
..\..\..\libs\ble\libbtstack_central.a(periph.o)
                              ..\..\..\libs\ble\libbtstack_central.a(btstack_hal.o) (bt_uart_init)
..\..\..\libs\ble\libbtstack_central.a(l2cap_signaling.o)
                              ..\..\..\libs\ble\libbtstack_central.a(l2cap.o) (l2cap_create_signaling_le)
..\..\..\libs\ble\libbtstack_central.a(btstack_memory_pool.o)
                              ..\..\..\libs\ble\libbtstack_central.a(btstack_memory.o) (btstack_memory_pool_get)
..\..\..\libs\ble\libbtstack_central.a(patch_asm.o)
                              ..\..\..\libs\ble\libbtstack_central.a(patch.o) (bb_patch2)
..\..\..\libs\ble\libbtstack_central.a(platform.o)
                              ..\..\..\libs\ble\libbtstack_central.a(ble_hook.o) (bb_ll_tx_cb)
..\..\..\libs\ble\libbtstack_central.a(vs_proc.o)
                              ..\..\..\libs\ble\libbtstack_central.a(vs.o) (vs_env)
..\..\..\libs\ble\libbtstack_central.a(vs_fcc.o)
                              ..\..\..\libs\ble\libbtstack_central.a(vs_proc.o) (vs_fcc_test_cmd)
..\..\..\libs\ble\libbtstack_central.a(scan_hook.o)
                              ..\..\..\libs\ble\libbtstack_central.a(ll_scan.o) (ble_scan_end_ind_hook)
..\..\..\libs\ble\libbtstack_central.a(hct_msg.o)
                              ..\..\..\libs\ble\libbtstack_central.a(hct.o) (hci_look_for_cmd_desc)
..\..\..\libs\ble\libbtstack_central.a(mgr_test.o)
                              ..\..\..\libs\ble\libbtstack_central.a(mgr_hci.o) (hci_le_rx_test_v1_cmd_func)
..\..\..\libs\ble\libbtstack_central.a(mgr_proc.o)
                              ..\..\..\libs\ble\libbtstack_central.a(mgr.o) (mgr_msg_env)
..\..\..\libs\ble\libbtstack_central.a(mgr_init.o)
                              ..\..\..\libs\ble\libbtstack_central.a(mgr_hci.o) (hci_le_create_con_cmd_func)
..\..\..\libs\ble\libbtstack_central.a(ll_version.o)
                              ..\..\..\libs\ble\libbtstack_central.a(ll_cntl.o) (ll_version_ind_func)
..\..\..\libs\ble\libbtstack_central.a(ll_proc.o)
                              ..\..\..\libs\ble\libbtstack_central.a(ll.o) (ll_msg_env)
..\..\..\libs\ble\libbtstack_central.a(ll_phy_upd.o)
                              ..\..\..\libs\ble\libbtstack_central.a(ll_cntl.o) (ll_phy_req_func)
..\..\..\libs\ble\libbtstack_central.a(ll_length.o)
                              ..\..\..\libs\ble\libbtstack_central.a(ll_cntl.o) (ll_length_req_func)
..\..\..\libs\ble\libbtstack_central.a(ll_feature.o)
                              ..\..\..\libs\ble\libbtstack_central.a(ll_cntl.o) (ll_feature_req_func)
..\..\..\libs\ble\libbtstack_central.a(ll_encrypt.o)
                              ..\..\..\libs\ble\libbtstack_central.a(ll_cntl.o) (ll_pause_enc_req_func)
..\..\..\libs\ble\libbtstack_central.a(ll_disconnect.o)
                              ..\..\..\libs\ble\libbtstack_central.a(ll_proc.o) (ll_stopped_ind_func)
..\..\..\libs\ble\libbtstack_central.a(ll_con_upd.o)
                              ..\..\..\libs\ble\libbtstack_central.a(ll_cntl.o) (ll_con_update_ind_func)
..\..\..\libs\usb\libusb.a(usb_comm.o)
                              Output\obj\project\solution\ble_usb_dongle\usb\usb_com.o (usb_handler_register)
..\..\..\libs\usb\libusb.a(usb_detect.o)
                              ..\..\..\libs\usb\libusb.a(usb_comm.o) (usbchk_switch_otg_device)
..\..\..\libs\usb\libusb.a(usb_device_enum.o)
                              Output\obj\project\solution\ble_usb_dongle\usb\usb_cdc.o (usb_ep0_transfer)
..\..\..\libs\usb\libusb.a(usb_device_ep.o)
                              ..\..\..\libs\usb\libusb.a(usb_device_enum.o) (usb_set_cur_ep)
..\..\..\libs\usb\libusb.a(usb_device_run_loop.o)
                              Output\obj\project\solution\ble_usb_dongle\app\func.o (usb_device_enter)
..\..\..\libs\modules\notch_iir\libnotch_iir.a(notch_iir.o)
                              Output\obj\modules\notch_iir\notch_iir.o (eq_init)

Allocating common symbols
Common symbol       size              file

ude_cb              0x3               Output\obj\project\solution\ble_usb_dongle\usb\usb_dev_enum.o
tmr5ms_cnt          0x2               Output\obj\project\solution\ble_usb_dongle\bsp\bsp_sys.o
ep_cb               0x20              Output\obj\project\solution\ble_usb_dongle\usb\usb_com.o
usb_handler_cb      0x8               Output\obj\project\solution\ble_usb_dongle\usb\usb_com.o
alarm_handle        0x4               Output\obj\project\solution\ble_usb_dongle\ble\ble_alarm.o
xcfg_cb             0x34              Output\obj\project\solution\ble_usb_dongle\bsp\bsp_sys.o

Discarded input sections

 .text          0x0000000000000000        0x0 Output\obj\driver\driver_clk.o
 .data          0x0000000000000000        0x0 Output\obj\driver\driver_clk.o
 .bss           0x0000000000000000        0x0 Output\obj\driver\driver_clk.o
 .text.clk_gate1_cmd
                0x0000000000000000       0x16 Output\obj\driver\driver_clk.o
 .text.clk_gate2_cmd
                0x0000000000000000       0x16 Output\obj\driver\driver_clk.o
 .text.clk_clkout_set
                0x0000000000000000       0x4e Output\obj\driver\driver_clk.o
 .text.clk_clk32k_rtc_set
                0x0000000000000000       0x28 Output\obj\driver\driver_clk.o
 .text.clk_clk32k_rtc_get
                0x0000000000000000       0x46 Output\obj\driver\driver_clk.o
 .text.clk_hsut0_clk_set
                0x0000000000000000       0x18 Output\obj\driver\driver_clk.o
 .text.clk_hsut0_clk_get
                0x0000000000000000       0x1e Output\obj\driver\driver_clk.o
 .text.clk_saradc_clk_set
                0x0000000000000000       0x18 Output\obj\driver\driver_clk.o
 .text.clk_saradc_clk_get
                0x0000000000000000       0x3e Output\obj\driver\driver_clk.o
 .text.clk_clk2m_ks_set
                0x0000000000000000       0x2e Output\obj\driver\driver_clk.o
 .text.clk_clk2m_ks_get
                0x0000000000000000       0x3e Output\obj\driver\driver_clk.o
 .text.clk_ledc_clk_set
                0x0000000000000000       0x18 Output\obj\driver\driver_clk.o
 .text.clk_ledc_clk_get
                0x0000000000000000       0x24 Output\obj\driver\driver_clk.o
 .text.clk_irtx_mod_clk_set
                0x0000000000000000       0x16 Output\obj\driver\driver_clk.o
 .text.clk_irtx_mod_clk_get
                0x0000000000000000       0x24 Output\obj\driver\driver_clk.o
 .text.clk_irrx_clk_set
                0x0000000000000000       0x16 Output\obj\driver\driver_clk.o
 .text.clk_irtx_clk_set
                0x0000000000000000        0x8 Output\obj\driver\driver_clk.o
 .text.clk_irrx_clk_get
                0x0000000000000000       0x34 Output\obj\driver\driver_clk.o
 .text.clk_irtx_clk_get
                0x0000000000000000        0x8 Output\obj\driver\driver_clk.o
 .rodata        0x0000000000000000       0x20 Output\obj\driver\driver_clk.o
 .text          0x0000000000000000        0x0 Output\obj\driver\driver_gpio.o
 .data          0x0000000000000000        0x0 Output\obj\driver\driver_gpio.o
 .bss           0x0000000000000000        0x0 Output\obj\driver\driver_gpio.o
 .text.gpio_deinit
                0x0000000000000000       0x10 Output\obj\driver\driver_gpio.o
 .com_periph.gpio.dir
                0x0000000000000000       0x12 Output\obj\driver\driver_gpio.o
 .com_periph.gpio.set
                0x0000000000000000        0x4 Output\obj\driver\driver_gpio.o
 .com_periph.gpio.reset
                0x0000000000000000        0x4 Output\obj\driver\driver_gpio.o
 .com_periph.gpio.write
                0x0000000000000000        0x4 Output\obj\driver\driver_gpio.o
 .com_periph.gpio.toggle
                0x0000000000000000        0x8 Output\obj\driver\driver_gpio.o
 .com_periph.gpio.read_data
                0x0000000000000000        0x8 Output\obj\driver\driver_gpio.o
 .com_periph.gpio.read_bit
                0x0000000000000000        0xa Output\obj\driver\driver_gpio.o
 .text.gpio_func_mapping_clear
                0x0000000000000000       0x7e Output\obj\driver\driver_gpio.o
 .text.wk0_edge_capture_config
                0x0000000000000000       0x7a Output\obj\driver\driver_gpio.o
 .text.gpio_edge_capture_config
                0x0000000000000000       0xe8 Output\obj\driver\driver_gpio.o
 .text.gpio_edge_capture_config_custom
                0x0000000000000000      0x116 Output\obj\driver\driver_gpio.o
 .text.gpio_set_reset_pin
                0x0000000000000000       0x4c Output\obj\driver\driver_gpio.o
 .text.gpio_get_edge_pin
                0x0000000000000000        0x8 Output\obj\driver\driver_gpio.o
 .com_periph.gpio.rise.src
                0x0000000000000000        0x8 Output\obj\driver\driver_gpio.o
 .com_periph.gpio.fall.src
                0x0000000000000000        0xc Output\obj\driver\driver_gpio.o
 .com_periph.gpio.pending_clr
                0x0000000000000000        0xc Output\obj\driver\driver_gpio.o
 .com_periph.gpio.pending_is
                0x0000000000000000       0x12 Output\obj\driver\driver_gpio.o
 .text.gpio_edge_pic_config
                0x0000000000000000       0x54 Output\obj\driver\driver_gpio.o
 .text          0x0000000000000000        0x0 Output\obj\driver\driver_hsuart.o
 .data          0x0000000000000000        0x0 Output\obj\driver\driver_hsuart.o
 .bss           0x0000000000000000        0x0 Output\obj\driver\driver_hsuart.o
 .text.hsuart_init
                0x0000000000000000       0xa0 Output\obj\driver\driver_hsuart.o
 .text.hsuart_deinit
                0x0000000000000000       0x14 Output\obj\driver\driver_hsuart.o
 .text.hsuart_cmd
                0x0000000000000000       0x16 Output\obj\driver\driver_hsuart.o
 .com_periph.hsuart.send
                0x0000000000000000       0x1a Output\obj\driver\driver_hsuart.o
 .com_periph.hsuart.recv
                0x0000000000000000        0xa Output\obj\driver\driver_hsuart.o
 .com_periph.hsuart.receive_data
                0x0000000000000000       0x44 Output\obj\driver\driver_hsuart.o
 .com_periph.hsuart.fifo_get
                0x0000000000000000        0xa Output\obj\driver\driver_hsuart.o
 .text.hsuart_clear_fifo_counter
                0x0000000000000000        0xe Output\obj\driver\driver_hsuart.o
 .text.hsuart_baud_config
                0x0000000000000000       0x2c Output\obj\driver\driver_hsuart.o
 .text.hsuart_pic_config
                0x0000000000000000       0x92 Output\obj\driver\driver_hsuart.o
 .com_periph.hsuart.get_flag
                0x0000000000000000       0x3e Output\obj\driver\driver_hsuart.o
 .com_periph.hsuart.clear
                0x0000000000000000       0x38 Output\obj\driver\driver_hsuart.o
 .text.hsuart_rx_idle_config
                0x0000000000000000       0x1e Output\obj\driver\driver_hsuart.o
 .com_periph.hsuart.dma
                0x0000000000000000       0x20 Output\obj\driver\driver_hsuart.o
 .com_periph.hsuart.stop
                0x0000000000000000       0x18 Output\obj\driver\driver_hsuart.o
 .com_periph.hsuart.hfc
                0x0000000000000000       0x32 Output\obj\driver\driver_hsuart.o
 .comment       0x0000000000000000       0x12 Output\obj\driver\driver_hsuart.o
 .text          0x0000000000000000        0x0 Output\obj\driver\driver_ledc.o
 .data          0x0000000000000000        0x0 Output\obj\driver\driver_ledc.o
 .bss           0x0000000000000000        0x0 Output\obj\driver\driver_ledc.o
 .text.ledc_init
                0x0000000000000000       0x3c Output\obj\driver\driver_ledc.o
 .text.ledc_timing_init
                0x0000000000000000       0x5c Output\obj\driver\driver_ledc.o
 .text.ledc_deinit
                0x0000000000000000       0x20 Output\obj\driver\driver_ledc.o
 .text.ledc_cmd
                0x0000000000000000       0x16 Output\obj\driver\driver_ledc.o
 .com_periph.ledc.transport
                0x0000000000000000       0x20 Output\obj\driver\driver_ledc.o
 .text.ledc_pic_config
                0x0000000000000000       0x44 Output\obj\driver\driver_ledc.o
 .com_periph.ledc.flag
                0x0000000000000000       0x42 Output\obj\driver\driver_ledc.o
 .text.ledc_set_frame_length
                0x0000000000000000        0xe Output\obj\driver\driver_ledc.o
 .text.ledc_set_loop_number
                0x0000000000000000        0xc Output\obj\driver\driver_ledc.o
 .text.ledc_get_frame_length
                0x0000000000000000       0x10 Output\obj\driver\driver_ledc.o
 .text.ledc_get_loop_number
                0x0000000000000000        0xc Output\obj\driver\driver_ledc.o
 .comment       0x0000000000000000       0x12 Output\obj\driver\driver_ledc.o
 .text          0x0000000000000000        0x0 Output\obj\driver\driver_lowpwr.o
 .data          0x0000000000000000        0x0 Output\obj\driver\driver_lowpwr.o
 .bss           0x0000000000000000       0x5c Output\obj\driver\driver_lowpwr.o
 .com_pwroff.mode2
                0x0000000000000000      0x190 Output\obj\driver\driver_lowpwr.o
 .com_sleep.sys
                0x0000000000000000       0x8e Output\obj\driver\driver_lowpwr.o
 .com_sleep.lp_proc
                0x0000000000000000       0xc6 Output\obj\driver\driver_lowpwr.o
 .com_sleep.lp_wakeup
                0x0000000000000000      0x146 Output\obj\driver\driver_lowpwr.o
 .text.lowpwr_wakeup_disable
                0x0000000000000000       0x38 Output\obj\driver\driver_lowpwr.o
 .text.lowpwr_clr_wakeup_pending
                0x0000000000000000       0x1c Output\obj\driver\driver_lowpwr.o
 .text.lowpwr_wk0_wakeup_config
                0x0000000000000000       0x8c Output\obj\driver\driver_lowpwr.o
 .text.lowpwr_gpio_wakeup_config
                0x0000000000000000       0x4a Output\obj\driver\driver_lowpwr.o
 .text.lowpwr_gpio_wakeup_config_custom
                0x0000000000000000       0x4a Output\obj\driver\driver_lowpwr.o
 .text.lowpwr_wakeup_config
                0x0000000000000000       0xec Output\obj\driver\driver_lowpwr.o
 .text.lowpwr_wakeup_source_enable
                0x0000000000000000       0x7c Output\obj\driver\driver_lowpwr.o
 .text.lowpwr_wakeup_source_disable
                0x0000000000000000       0x92 Output\obj\driver\driver_lowpwr.o
 .com_pwroff.mode1
                0x0000000000000000       0xba Output\obj\driver\driver_lowpwr.o
 .com_sleep.sfr_save
                0x0000000000000000        0x2 Output\obj\driver\driver_lowpwr.o
 .com_sleep.sfr_resume
                0x0000000000000000        0x2 Output\obj\driver\driver_lowpwr.o
 .com_sleep.proc_do
                0x0000000000000000       0xb4 Output\obj\driver\driver_lowpwr.o
 .com_sleep.sleep
                0x0000000000000000        0x8 Output\obj\driver\driver_lowpwr.o
 .text          0x0000000000000000        0x0 Output\obj\driver\driver_saradc.o
 .data          0x0000000000000000        0x0 Output\obj\driver\driver_saradc.o
 .bss           0x0000000000000000        0x0 Output\obj\driver\driver_saradc.o
 .text.saradc_mic_init
                0x0000000000000000       0x64 Output\obj\driver\driver_saradc.o
 .text.saradc_mic_cmd
                0x0000000000000000       0x1a Output\obj\driver\driver_saradc.o
 .text.saradc_mic_dma_cmd
                0x0000000000000000       0x38 Output\obj\driver\driver_saradc.o
 .text.saradc_init
                0x0000000000000000       0x88 Output\obj\driver\driver_saradc.o
 .text.saradc_add_channel
                0x0000000000000000      0x12a Output\obj\driver\driver_saradc.o
 .text.saradc_remove_channel
                0x0000000000000000       0xac Output\obj\driver\driver_saradc.o
 .text.saradc_deinit
                0x0000000000000000       0xdc Output\obj\driver\driver_saradc.o
 .text.saradc_cmd
                0x0000000000000000       0x16 Output\obj\driver\driver_saradc.o
 .com_periph.saradc.kick
                0x0000000000000000       0x2e Output\obj\driver\driver_saradc.o
 .text.saradc_set_baud
                0x0000000000000000       0x2e Output\obj\driver\driver_saradc.o
 .text.saradc_pic_config
                0x0000000000000000       0x70 Output\obj\driver\driver_saradc.o
 .com_periph.saradc.get
                0x0000000000000000       0x3a Output\obj\driver\driver_saradc.o
 .com_periph.saradc.clear
                0x0000000000000000       0x2e Output\obj\driver\driver_saradc.o
 .com_text.saradc.done
                0x0000000000000000       0x34 Output\obj\driver\driver_saradc.o
 .com_periph.saradc.get_data
                0x0000000000000000       0xa0 Output\obj\driver\driver_saradc.o
 .bss.periph.saradc
                0x0000000000000000       0x24 Output\obj\driver\driver_saradc.o
 .comment       0x0000000000000000       0x12 Output\obj\driver\driver_saradc.o
 .text          0x0000000000000000        0x0 Output\obj\driver\driver_uart.o
 .data          0x0000000000000000        0x0 Output\obj\driver\driver_uart.o
 .bss           0x0000000000000000        0x0 Output\obj\driver\driver_uart.o
 .text.uart_deinit
                0x0000000000000000        0xe Output\obj\driver\driver_uart.o
 .com_periph.uart.send
                0x0000000000000000        0x8 Output\obj\driver\driver_uart.o
 .com_periph.uart.recv
                0x0000000000000000       0x14 Output\obj\driver\driver_uart.o
 .text.uart_pic_config
                0x0000000000000000       0x5c Output\obj\driver\driver_uart.o
 .com_periph.uart.get_flag
                0x0000000000000000       0x18 Output\obj\driver\driver_uart.o
 .com_periph.uart.clear_flag
                0x0000000000000000       0x2a Output\obj\driver\driver_uart.o
 .text          0x0000000000000000        0x0 Output\obj\driver\driver_wdt.o
 .data          0x0000000000000000        0x0 Output\obj\driver\driver_wdt.o
 .bss           0x0000000000000000        0x0 Output\obj\driver\driver_wdt.o
 .text.wdt_cmd  0x0000000000000000       0x18 Output\obj\driver\driver_wdt.o
 .text.wdt_reset_cmd
                0x0000000000000000       0x1e Output\obj\driver\driver_wdt.o
 .text.wdt_it_cmd
                0x0000000000000000       0x16 Output\obj\driver\driver_wdt.o
 .text.wdt_clk_select
                0x0000000000000000       0x1a Output\obj\driver\driver_wdt.o
 .text.wdt_time_select
                0x0000000000000000       0x1a Output\obj\driver\driver_wdt.o
 .text.wdt_get_flag
                0x0000000000000000        0x8 Output\obj\driver\driver_wdt.o
 .text.wdt_clear
                0x0000000000000000        0xe Output\obj\driver\driver_wdt.o
 .comment       0x0000000000000000       0x12 Output\obj\driver\driver_wdt.o
 .text          0x0000000000000000        0x0 Output\obj\modules\notch_iir\notch_iir.o
 .data          0x0000000000000000        0x0 Output\obj\modules\notch_iir\notch_iir.o
 .bss           0x0000000000000000        0x0 Output\obj\modules\notch_iir\notch_iir.o
 .text.notch_iir.init
                0x0000000000000000       0x12 Output\obj\modules\notch_iir\notch_iir.o
 .notch_iir.buf
                0x0000000000000000       0x20 Output\obj\modules\notch_iir\notch_iir.o
 .comment       0x0000000000000000       0x12 Output\obj\modules\notch_iir\notch_iir.o
 .text          0x0000000000000000        0x0 Output\obj\project\solution\ble_usb_dongle\app\func.o
 .data          0x0000000000000000        0x0 Output\obj\project\solution\ble_usb_dongle\app\func.o
 .bss           0x0000000000000000        0x0 Output\obj\project\solution\ble_usb_dongle\app\func.o
 .text          0x0000000000000000        0x0 Output\obj\project\solution\ble_usb_dongle\app\func_bt.o
 .data          0x0000000000000000        0x0 Output\obj\project\solution\ble_usb_dongle\app\func_bt.o
 .bss           0x0000000000000000        0x0 Output\obj\project\solution\ble_usb_dongle\app\func_bt.o
 .text          0x0000000000000000        0x0 Output\obj\project\solution\ble_usb_dongle\app\func_idle.o
 .data          0x0000000000000000        0x0 Output\obj\project\solution\ble_usb_dongle\app\func_idle.o
 .bss           0x0000000000000000        0x0 Output\obj\project\solution\ble_usb_dongle\app\func_idle.o
 .comment       0x0000000000000000       0x12 Output\obj\project\solution\ble_usb_dongle\app\func_idle.o
 .text          0x0000000000000000        0x0 Output\obj\project\solution\ble_usb_dongle\app\func_iodm.o
 .data          0x0000000000000000        0x0 Output\obj\project\solution\ble_usb_dongle\app\func_iodm.o
 .bss           0x0000000000000000        0x0 Output\obj\project\solution\ble_usb_dongle\app\func_iodm.o
 .comment       0x0000000000000000       0x12 Output\obj\project\solution\ble_usb_dongle\app\func_iodm.o
 .text          0x0000000000000000        0x0 Output\obj\project\solution\ble_usb_dongle\app\func_le_bqb_rf.o
 .data          0x0000000000000000        0x0 Output\obj\project\solution\ble_usb_dongle\app\func_le_bqb_rf.o
 .bss           0x0000000000000000        0x0 Output\obj\project\solution\ble_usb_dongle\app\func_le_bqb_rf.o
 .comment       0x0000000000000000       0x12 Output\obj\project\solution\ble_usb_dongle\app\func_le_bqb_rf.o
 .text          0x0000000000000000        0x0 Output\obj\project\solution\ble_usb_dongle\app\func_le_fcc.o
 .data          0x0000000000000000        0x0 Output\obj\project\solution\ble_usb_dongle\app\func_le_fcc.o
 .bss           0x0000000000000000        0x0 Output\obj\project\solution\ble_usb_dongle\app\func_le_fcc.o
 .comment       0x0000000000000000       0x12 Output\obj\project\solution\ble_usb_dongle\app\func_le_fcc.o
 .text          0x0000000000000000        0x0 Output\obj\project\solution\ble_usb_dongle\ble\ble_alarm.o
 .data          0x0000000000000000        0x0 Output\obj\project\solution\ble_usb_dongle\ble\ble_alarm.o
 .bss           0x0000000000000000        0x0 Output\obj\project\solution\ble_usb_dongle\ble\ble_alarm.o
 .text          0x0000000000000000        0x0 Output\obj\project\solution\ble_usb_dongle\ble\ble_app.o
 .data          0x0000000000000000        0x0 Output\obj\project\solution\ble_usb_dongle\ble\ble_app.o
 .bss           0x0000000000000000        0x0 Output\obj\project\solution\ble_usb_dongle\ble\ble_app.o
 .text          0x0000000000000000        0x0 Output\obj\project\solution\ble_usb_dongle\ble\ble_client.o
 .data          0x0000000000000000        0x0 Output\obj\project\solution\ble_usb_dongle\ble\ble_client.o
 .text.ble_get_server_info
                0x0000000000000000       0x14 Output\obj\project\solution\ble_usb_dongle\ble\ble_client.o
 .text          0x0000000000000000        0x0 Output\obj\project\solution\ble_usb_dongle\ble\ble_init.o
 .data          0x0000000000000000        0x0 Output\obj\project\solution\ble_usb_dongle\ble\ble_init.o
 .bss           0x0000000000000000        0x0 Output\obj\project\solution\ble_usb_dongle\ble\ble_init.o
 .text.ble_get_work_mode
                0x0000000000000000        0xa Output\obj\project\solution\ble_usb_dongle\ble\ble_init.o
 .text          0x0000000000000000        0x0 Output\obj\project\solution\ble_usb_dongle\ble\ble_profile.o
 .data          0x0000000000000000        0x0 Output\obj\project\solution\ble_usb_dongle\ble\ble_profile.o
 .bss           0x0000000000000000        0x0 Output\obj\project\solution\ble_usb_dongle\ble\ble_profile.o
 .text.ble_get_profile_data
                0x0000000000000000        0xa Output\obj\project\solution\ble_usb_dongle\ble\ble_profile.o
 .rodata        0x0000000000000000       0x40 Output\obj\project\solution\ble_usb_dongle\ble\ble_profile.o
 .comment       0x0000000000000000       0x12 Output\obj\project\solution\ble_usb_dongle\ble\ble_profile.o
 .text          0x0000000000000000        0x0 Output\obj\project\solution\ble_usb_dongle\ble\ble_voice.o
 .data          0x0000000000000000        0x0 Output\obj\project\solution\ble_usb_dongle\ble\ble_voice.o
 .bss           0x0000000000000000        0x0 Output\obj\project\solution\ble_usb_dongle\ble\ble_voice.o
 .text.ble_voice_remote_cmd_proc
                0x0000000000000000        0x2 Output\obj\project\solution\ble_usb_dongle\ble\ble_voice.o
 .text.ble_voice_audio_dec_proc
                0x0000000000000000        0x2 Output\obj\project\solution\ble_usb_dongle\ble\ble_voice.o
 .comment       0x0000000000000000       0x12 Output\obj\project\solution\ble_usb_dongle\ble\ble_voice.o
 .text          0x0000000000000000        0x0 Output\obj\project\solution\ble_usb_dongle\bsp\bsp_audio_dec.o
 .data          0x0000000000000000        0x0 Output\obj\project\solution\ble_usb_dongle\bsp\bsp_audio_dec.o
 .bss           0x0000000000000000        0x0 Output\obj\project\solution\ble_usb_dongle\bsp\bsp_audio_dec.o
 .text.audio_dec
                0x0000000000000000        0x4 Output\obj\project\solution\ble_usb_dongle\bsp\bsp_audio_dec.o
 .com_text.audio_dec
                0x0000000000000000        0x2 Output\obj\project\solution\ble_usb_dongle\bsp\bsp_audio_dec.o
 .comment       0x0000000000000000       0x12 Output\obj\project\solution\ble_usb_dongle\bsp\bsp_audio_dec.o
 .text          0x0000000000000000        0x0 Output\obj\project\solution\ble_usb_dongle\bsp\bsp_huart.o
 .data          0x0000000000000000        0x0 Output\obj\project\solution\ble_usb_dongle\bsp\bsp_huart.o
 .bss           0x0000000000000000        0x0 Output\obj\project\solution\ble_usb_dongle\bsp\bsp_huart.o
 .comment       0x0000000000000000       0x12 Output\obj\project\solution\ble_usb_dongle\bsp\bsp_huart.o
 .text          0x0000000000000000        0x0 Output\obj\project\solution\ble_usb_dongle\bsp\bsp_huart_iodm.o
 .data          0x0000000000000000        0x0 Output\obj\project\solution\ble_usb_dongle\bsp\bsp_huart_iodm.o
 .bss           0x0000000000000000        0x0 Output\obj\project\solution\ble_usb_dongle\bsp\bsp_huart_iodm.o
 .comment       0x0000000000000000       0x12 Output\obj\project\solution\ble_usb_dongle\bsp\bsp_huart_iodm.o
 .text          0x0000000000000000        0x0 Output\obj\project\solution\ble_usb_dongle\bsp\bsp_io_key.o
 .data          0x0000000000000000        0x0 Output\obj\project\solution\ble_usb_dongle\bsp\bsp_io_key.o
 .bss           0x0000000000000000        0x0 Output\obj\project\solution\ble_usb_dongle\bsp\bsp_io_key.o
 .text          0x0000000000000000        0x0 Output\obj\project\solution\ble_usb_dongle\bsp\bsp_key.o
 .data          0x0000000000000000        0x0 Output\obj\project\solution\ble_usb_dongle\bsp\bsp_key.o
 .bss           0x0000000000000000        0x0 Output\obj\project\solution\ble_usb_dongle\bsp\bsp_key.o
 .text.bsp_key_set_power_on_flag
                0x0000000000000000        0xa Output\obj\project\solution\ble_usb_dongle\bsp\bsp_key.o
 .text          0x0000000000000000        0x0 Output\obj\project\solution\ble_usb_dongle\bsp\bsp_param.o
 .data          0x0000000000000000        0x0 Output\obj\project\solution\ble_usb_dongle\bsp\bsp_param.o
 .bss           0x0000000000000000        0x0 Output\obj\project\solution\ble_usb_dongle\bsp\bsp_param.o
 .text.bsp.param.fota
                0x0000000000000000       0xc0 Output\obj\project\solution\ble_usb_dongle\bsp\bsp_param.o
 .text          0x0000000000000000        0x0 Output\obj\project\solution\ble_usb_dongle\bsp\bsp_saradc_mic.o
 .data          0x0000000000000000        0x0 Output\obj\project\solution\ble_usb_dongle\bsp\bsp_saradc_mic.o
 .bss           0x0000000000000000        0x0 Output\obj\project\solution\ble_usb_dongle\bsp\bsp_saradc_mic.o
 .comment       0x0000000000000000       0x12 Output\obj\project\solution\ble_usb_dongle\bsp\bsp_saradc_mic.o
 .text          0x0000000000000000        0x0 Output\obj\project\solution\ble_usb_dongle\bsp\bsp_sys.o
 .data          0x0000000000000000        0x0 Output\obj\project\solution\ble_usb_dongle\bsp\bsp_sys.o
 .bss           0x0000000000000000        0x0 Output\obj\project\solution\ble_usb_dongle\bsp\bsp_sys.o
 .text.bsp_periph_init
                0x0000000000000000        0x8 Output\obj\project\solution\ble_usb_dongle\bsp\bsp_sys.o
 .text          0x0000000000000000        0x0 Output\obj\project\solution\ble_usb_dongle\bsp\bsp_uart_debug.o
 .data          0x0000000000000000        0x0 Output\obj\project\solution\ble_usb_dongle\bsp\bsp_uart_debug.o
 .bss           0x0000000000000000        0x0 Output\obj\project\solution\ble_usb_dongle\bsp\bsp_uart_debug.o
 .text          0x0000000000000000        0x0 Output\obj\project\solution\ble_usb_dongle\main.o
 .data          0x0000000000000000        0x0 Output\obj\project\solution\ble_usb_dongle\main.o
 .bss           0x0000000000000000        0x0 Output\obj\project\solution\ble_usb_dongle\main.o
 .text          0x0000000000000000        0x0 Output\obj\project\solution\ble_usb_dongle\prod_test\iodm\prod_test_iodm.o
 .data          0x0000000000000000        0x0 Output\obj\project\solution\ble_usb_dongle\prod_test\iodm\prod_test_iodm.o
 .bss           0x0000000000000000        0x0 Output\obj\project\solution\ble_usb_dongle\prod_test\iodm\prod_test_iodm.o
 .comment       0x0000000000000000       0x12 Output\obj\project\solution\ble_usb_dongle\prod_test\iodm\prod_test_iodm.o
 .text          0x0000000000000000        0x0 Output\obj\project\solution\ble_usb_dongle\prod_test\prod_test.o
 .data          0x0000000000000000        0x0 Output\obj\project\solution\ble_usb_dongle\prod_test\prod_test.o
 .bss           0x0000000000000000        0x0 Output\obj\project\solution\ble_usb_dongle\prod_test\prod_test.o
 .text          0x0000000000000000        0x0 Output\obj\project\solution\ble_usb_dongle\strong_ble.o
 .data          0x0000000000000000        0x0 Output\obj\project\solution\ble_usb_dongle\strong_ble.o
 .bss           0x0000000000000000        0x0 Output\obj\project\solution\ble_usb_dongle\strong_ble.o
 .text.ble_sm_send_security_req_time_get
                0x0000000000000000        0x6 Output\obj\project\solution\ble_usb_dongle\strong_ble.o
 .text.ble_sm_pairing_support
                0x0000000000000000        0x4 Output\obj\project\solution\ble_usb_dongle\strong_ble.o
 .text.ble_disconnected_restart_adv
                0x0000000000000000        0x4 Output\obj\project\solution\ble_usb_dongle\strong_ble.o
 .text          0x0000000000000000        0x0 Output\obj\project\solution\ble_usb_dongle\strong_symbol.o
 .data          0x0000000000000000        0x0 Output\obj\project\solution\ble_usb_dongle\strong_symbol.o
 .bss           0x0000000000000000        0x0 Output\obj\project\solution\ble_usb_dongle\strong_symbol.o
 .text.param_xosc_write
                0x0000000000000000       0x24 Output\obj\project\solution\ble_usb_dongle\strong_symbol.o
 .com_text.timer
                0x0000000000000000        0x8 Output\obj\project\solution\ble_usb_dongle\strong_symbol.o
 .sbss          0x0000000000000000        0x1 Output\obj\project\solution\ble_usb_dongle\strong_symbol.o
 .text          0x0000000000000000        0x0 Output\obj\project\solution\ble_usb_dongle\usb\usb_audio.o
 .data          0x0000000000000000        0x0 Output\obj\project\solution\ble_usb_dongle\usb\usb_audio.o
 .bss           0x0000000000000000        0x0 Output\obj\project\solution\ble_usb_dongle\usb\usb_audio.o
 .comment       0x0000000000000000       0x12 Output\obj\project\solution\ble_usb_dongle\usb\usb_audio.o
 .text          0x0000000000000000        0x0 Output\obj\project\solution\ble_usb_dongle\usb\usb_audio_desc.o
 .data          0x0000000000000000        0x0 Output\obj\project\solution\ble_usb_dongle\usb\usb_audio_desc.o
 .bss           0x0000000000000000        0x0 Output\obj\project\solution\ble_usb_dongle\usb\usb_audio_desc.o
 .comment       0x0000000000000000       0x12 Output\obj\project\solution\ble_usb_dongle\usb\usb_audio_desc.o
 .text          0x0000000000000000        0x0 Output\obj\project\solution\ble_usb_dongle\usb\usb_cdc.o
 .data          0x0000000000000000        0x0 Output\obj\project\solution\ble_usb_dongle\usb\usb_cdc.o
 .bss           0x0000000000000000        0x0 Output\obj\project\solution\ble_usb_dongle\usb\usb_cdc.o
 .text.usb_cdc_bulk_in_send
                0x0000000000000000        0xa Output\obj\project\solution\ble_usb_dongle\usb\usb_cdc.o
 .text          0x0000000000000000        0x0 Output\obj\project\solution\ble_usb_dongle\usb\usb_cdc_desc.o
 .data          0x0000000000000000        0x0 Output\obj\project\solution\ble_usb_dongle\usb\usb_cdc_desc.o
 .bss           0x0000000000000000        0x0 Output\obj\project\solution\ble_usb_dongle\usb\usb_cdc_desc.o
 .text          0x0000000000000000        0x0 Output\obj\project\solution\ble_usb_dongle\usb\usb_com.o
 .data          0x0000000000000000        0x0 Output\obj\project\solution\ble_usb_dongle\usb\usb_com.o
 .bss           0x0000000000000000        0x0 Output\obj\project\solution\ble_usb_dongle\usb\usb_com.o
 .text          0x0000000000000000        0x0 Output\obj\project\solution\ble_usb_dongle\usb\usb_desc.o
 .data          0x0000000000000000        0x0 Output\obj\project\solution\ble_usb_dongle\usb\usb_desc.o
 .bss           0x0000000000000000        0x0 Output\obj\project\solution\ble_usb_dongle\usb\usb_desc.o
 .text          0x0000000000000000        0x0 Output\obj\project\solution\ble_usb_dongle\usb\usb_dev_enum.o
 .data          0x0000000000000000        0x0 Output\obj\project\solution\ble_usb_dongle\usb\usb_dev_enum.o
 .bss           0x0000000000000000        0x0 Output\obj\project\solution\ble_usb_dongle\usb\usb_dev_enum.o
 .text          0x0000000000000000        0x0 Output\obj\project\solution\ble_usb_dongle\usb\usb_hid.o
 .data          0x0000000000000000        0x0 Output\obj\project\solution\ble_usb_dongle\usb\usb_hid.o
 .bss           0x0000000000000000        0x0 Output\obj\project\solution\ble_usb_dongle\usb\usb_hid.o
 .text          0x0000000000000000        0x0 Output\obj\project\solution\ble_usb_dongle\usb\usb_hid_desc.o
 .data          0x0000000000000000        0x0 Output\obj\project\solution\ble_usb_dongle\usb\usb_hid_desc.o
 .bss           0x0000000000000000        0x0 Output\obj\project\solution\ble_usb_dongle\usb\usb_hid_desc.o
 .text          0x0000000000000000        0x0 Output\obj\project\solution\ble_usb_dongle\usb\usb_usr_cdc.o
 .bss           0x0000000000000000        0x0 Output\obj\project\solution\ble_usb_dongle\usb\usb_usr_cdc.o
 .text          0x0000000000000000        0x0 Output\obj\project\solution\ble_usb_dongle\usb\usb_vendor.o
 .data          0x0000000000000000        0x0 Output\obj\project\solution\ble_usb_dongle\usb\usb_vendor.o
 .bss           0x0000000000000000        0x0 Output\obj\project\solution\ble_usb_dongle\usb\usb_vendor.o
 .comment       0x0000000000000000       0x12 Output\obj\project\solution\ble_usb_dongle\usb\usb_vendor.o
 .text          0x0000000000000000        0x0 Output\obj\project\solution\ble_usb_dongle\usb\usb_vendor_desc.o
 .data          0x0000000000000000        0x0 Output\obj\project\solution\ble_usb_dongle\usb\usb_vendor_desc.o
 .bss           0x0000000000000000        0x0 Output\obj\project\solution\ble_usb_dongle\usb\usb_vendor_desc.o
 .comment       0x0000000000000000       0x12 Output\obj\project\solution\ble_usb_dongle\usb\usb_vendor_desc.o
 .text          0x0000000000000000        0x0 ..\..\..\libs\cpu\libplatform.a(audio_mic.o)
 .data          0x0000000000000000        0x0 ..\..\..\libs\cpu\libplatform.a(audio_mic.o)
 .bss           0x0000000000000000       0x18 ..\..\..\libs\cpu\libplatform.a(audio_mic.o)
 .text.audio_mic_get_mic_type
                0x0000000000000000        0xa ..\..\..\libs\cpu\libplatform.a(audio_mic.o)
 .text.audio_mic_get_mic_gain
                0x0000000000000000        0xa ..\..\..\libs\cpu\libplatform.a(audio_mic.o)
 .text.audio_mic_get_mic_trim
                0x0000000000000000        0xa ..\..\..\libs\cpu\libplatform.a(audio_mic.o)
 .text.audio_mic_pb10_pdpu
                0x0000000000000000       0x2e ..\..\..\libs\cpu\libplatform.a(audio_mic.o)
 .text.audio_mic_power
                0x0000000000000000      0x102 ..\..\..\libs\cpu\libplatform.a(audio_mic.o)
 .text.audio_mic_analog_init
                0x0000000000000000      0x2cc ..\..\..\libs\cpu\libplatform.a(audio_mic.o)
 .comment       0x0000000000000000       0x13 ..\..\..\libs\cpu\libplatform.a(audio_mic.o)
 .riscv.attributes
                0x0000000000000000       0x32 ..\..\..\libs\cpu\libplatform.a(audio_mic.o)
 .text          0x0000000000000000        0x0 ..\..\..\libs\cpu\libplatform.a(audio_mic_trim.o)
 .data          0x0000000000000000        0x0 ..\..\..\libs\cpu\libplatform.a(audio_mic_trim.o)
 .bss           0x0000000000000000       0x18 ..\..\..\libs\cpu\libplatform.a(audio_mic_trim.o)
 .text.audio_mic_trim_sta_set
                0x0000000000000000        0xa ..\..\..\libs\cpu\libplatform.a(audio_mic_trim.o)
 .text.audio_mic_trim_sta_get
                0x0000000000000000        0xa ..\..\..\libs\cpu\libplatform.a(audio_mic_trim.o)
 .text.audio_mic_dbg
                0x0000000000000000       0x9e ..\..\..\libs\cpu\libplatform.a(audio_mic_trim.o)
 .text.audio_micdc_trim_step0_init
                0x0000000000000000       0x42 ..\..\..\libs\cpu\libplatform.a(audio_mic_trim.o)
 .text.audio_micdc_trim_step0_waiting
                0x0000000000000000       0x14 ..\..\..\libs\cpu\libplatform.a(audio_mic_trim.o)
 .rodata.str1.4
                0x0000000000000000       0x40 ..\..\..\libs\cpu\libplatform.a(audio_mic_trim.o)
 .text.audio_micdc_trim_step0_run
                0x0000000000000000      0x146 ..\..\..\libs\cpu\libplatform.a(audio_mic_trim.o)
 .text.audio_micdc_trim_step1_init
                0x0000000000000000       0x20 ..\..\..\libs\cpu\libplatform.a(audio_mic_trim.o)
 .text.audio_micdc_trim_step1_waiting
                0x0000000000000000       0x12 ..\..\..\libs\cpu\libplatform.a(audio_mic_trim.o)
 .text.audio_micdc_trim_step1_run
                0x0000000000000000       0x26 ..\..\..\libs\cpu\libplatform.a(audio_mic_trim.o)
 .text.audio_micdc_trim_step2_init
                0x0000000000000000        0x8 ..\..\..\libs\cpu\libplatform.a(audio_mic_trim.o)
 .text.audio_micdc_trim_step2_waiting
                0x0000000000000000        0x8 ..\..\..\libs\cpu\libplatform.a(audio_mic_trim.o)
 .text.audio_micdc_trim_step2_run
                0x0000000000000000        0xe ..\..\..\libs\cpu\libplatform.a(audio_mic_trim.o)
 .text.micin_config
                0x0000000000000000       0x64 ..\..\..\libs\cpu\libplatform.a(audio_mic_trim.o)
 .text.audio_micin_trim_step0_init
                0x0000000000000000       0x3a ..\..\..\libs\cpu\libplatform.a(audio_mic_trim.o)
 .text.audio_micin_trim_step0_waiting
                0x0000000000000000       0x14 ..\..\..\libs\cpu\libplatform.a(audio_mic_trim.o)
 .text.audio_micin_trim_step0_run
                0x0000000000000000       0x60 ..\..\..\libs\cpu\libplatform.a(audio_mic_trim.o)
 .text.audio_micin_trim_step1_init
                0x0000000000000000       0x2e ..\..\..\libs\cpu\libplatform.a(audio_mic_trim.o)
 .text.audio_micin_trim_step1_waiting
                0x0000000000000000        0x8 ..\..\..\libs\cpu\libplatform.a(audio_mic_trim.o)
 .text.audio_micin_trim_step1_run
                0x0000000000000000       0x4c ..\..\..\libs\cpu\libplatform.a(audio_mic_trim.o)
 .text.audio_micin_trim_step2_run
                0x0000000000000000       0x64 ..\..\..\libs\cpu\libplatform.a(audio_mic_trim.o)
 .text.audio_mic_trim_proc
                0x0000000000000000      0x180 ..\..\..\libs\cpu\libplatform.a(audio_mic_trim.o)
 .text.audio_mic_trim_is_finish
                0x0000000000000000       0x10 ..\..\..\libs\cpu\libplatform.a(audio_mic_trim.o)
 .rodata        0x0000000000000000       0x98 ..\..\..\libs\cpu\libplatform.a(audio_mic_trim.o)
 .comment       0x0000000000000000       0x13 ..\..\..\libs\cpu\libplatform.a(audio_mic_trim.o)
 .riscv.attributes
                0x0000000000000000       0x32 ..\..\..\libs\cpu\libplatform.a(audio_mic_trim.o)
 .text          0x0000000000000000        0x0 ..\..\..\libs\cpu\libplatform.a(cm.o)
 .data          0x0000000000000000        0x0 ..\..\..\libs\cpu\libplatform.a(cm.o)
 .text.cm_move_allpages
                0x0000000000000000      0x13e ..\..\..\libs\cpu\libplatform.a(cm.o)
 .text.cm_get_startaddr
                0x0000000000000000        0xa ..\..\..\libs\cpu\libplatform.a(cm.o)
 .text.cm_get_area
                0x0000000000000000       0x14 ..\..\..\libs\cpu\libplatform.a(cm.o)
 .text.cm_release_all
                0x0000000000000000       0x8c ..\..\..\libs\cpu\libplatform.a(cm.o)
 .text.cm_read8
                0x0000000000000000       0x28 ..\..\..\libs\cpu\libplatform.a(cm.o)
 .text.cm_read16
                0x0000000000000000       0x28 ..\..\..\libs\cpu\libplatform.a(cm.o)
 .text.cm_read32
                0x0000000000000000       0x24 ..\..\..\libs\cpu\libplatform.a(cm.o)
 .text.cm_write8
                0x0000000000000000       0x28 ..\..\..\libs\cpu\libplatform.a(cm.o)
 .text.cm_write16
                0x0000000000000000       0x28 ..\..\..\libs\cpu\libplatform.a(cm.o)
 .text.cm_write32
                0x0000000000000000       0x24 ..\..\..\libs\cpu\libplatform.a(cm.o)
 .text.cm_clear
                0x0000000000000000       0x60 ..\..\..\libs\cpu\libplatform.a(cm.o)
 .text          0x0000000000000000        0x0 ..\..\..\libs\cpu\libplatform.a(os_flash.o)
 .data          0x0000000000000000        0x0 ..\..\..\libs\cpu\libplatform.a(os_flash.o)
 .bss           0x0000000000000000        0x0 ..\..\..\libs\cpu\libplatform.a(os_flash.o)
 .com_text.spiflash.id
                0x0000000000000000        0x8 ..\..\..\libs\cpu\libplatform.a(os_flash.o)
 .text          0x0000000000000000        0x0 ..\..\..\libs\cpu\libplatform.a(xcfg.o)
 .data          0x0000000000000000        0x0 ..\..\..\libs\cpu\libplatform.a(xcfg.o)
 .bss           0x0000000000000000        0x0 ..\..\..\libs\cpu\libplatform.a(xcfg.o)
 .text          0x0000000000000000        0x0 ..\..\..\libs\cpu\libplatform.a(device.o)
 .data          0x0000000000000000        0x0 ..\..\..\libs\cpu\libplatform.a(device.o)
 .bss           0x0000000000000000        0x0 ..\..\..\libs\cpu\libplatform.a(device.o)
 .text          0x0000000000000000        0x0 ..\..\..\libs\cpu\libplatform.a(main.o)
 .data          0x0000000000000000        0x0 ..\..\..\libs\cpu\libplatform.a(main.o)
 .text          0x0000000000000000        0x0 ..\..\..\libs\cpu\libplatform.a(interrupt.o)
 .data          0x0000000000000000        0x0 ..\..\..\libs\cpu\libplatform.a(interrupt.o)
 .bss           0x0000000000000000        0x0 ..\..\..\libs\cpu\libplatform.a(interrupt.o)
 .com_text.irq.wpt
                0x0000000000000000       0x3e ..\..\..\libs\cpu\libplatform.a(interrupt.o)
 .text.sys_irq_init
                0x0000000000000000       0x96 ..\..\..\libs\cpu\libplatform.a(interrupt.o)
 .rodata.str1.4
                0x0000000000000000       0x28 ..\..\..\libs\cpu\libplatform.a(interrupt.o)
 .text.watch_point_set
                0x0000000000000000       0x5c ..\..\..\libs\cpu\libplatform.a(interrupt.o)
 .text.wdt_init
                0x0000000000000000       0x3a ..\..\..\libs\cpu\libplatform.a(interrupt.o)
 .com_rodata.irq.wpt
                0x0000000000000000       0x1b ..\..\..\libs\cpu\libplatform.a(interrupt.o)
 .text          0x0000000000000000        0x0 ..\..\..\libs\cpu\libplatform.a(startup.o)
 .data          0x0000000000000000        0x0 ..\..\..\libs\cpu\libplatform.a(startup.o)
 .bss           0x0000000000000000        0x0 ..\..\..\libs\cpu\libplatform.a(startup.o)
 .com_text.timer
                0x0000000000000000       0x16 ..\..\..\libs\cpu\libplatform.a(startup.o)
 .text.mem_heap_size_get
                0x0000000000000000        0x6 ..\..\..\libs\cpu\libplatform.a(startup.o)
 .text.thread_cfg_get
                0x0000000000000000        0x4 ..\..\..\libs\cpu\libplatform.a(startup.o)
 .text.thread_timer_create
                0x0000000000000000       0x76 ..\..\..\libs\cpu\libplatform.a(startup.o)
 .text.thread_create_callback
                0x0000000000000000       0x28 ..\..\..\libs\cpu\libplatform.a(startup.o)
 .bss.timer     0x0000000000000000       0x28 ..\..\..\libs\cpu\libplatform.a(startup.o)
 .osmem         0x0000000000000000      0x600 ..\..\..\libs\cpu\libplatform.a(startup.o)
 .text          0x0000000000000000        0x0 ..\..\..\libs\cpu\libplatform.a(sys_hook.o)
 .data          0x0000000000000000        0x0 ..\..\..\libs\cpu\libplatform.a(sys_hook.o)
 .bss           0x0000000000000000        0x0 ..\..\..\libs\cpu\libplatform.a(sys_hook.o)
 .text          0x0000000000000000        0x0 ..\..\..\libs\cpu\libplatform.a(thread_driver.o)
 .data          0x0000000000000000        0x0 ..\..\..\libs\cpu\libplatform.a(thread_driver.o)
 .bss           0x0000000000000000        0x0 ..\..\..\libs\cpu\libplatform.a(thread_driver.o)
 .text          0x0000000000000000        0x0 ..\..\..\libs\cpu\libplatform.a(pll.o)
 .data          0x0000000000000000        0x0 ..\..\..\libs\cpu\libplatform.a(pll.o)
 .bss           0x0000000000000000        0x0 ..\..\..\libs\cpu\libplatform.a(pll.o)
 .text.pll_clk_nhz_get
                0x0000000000000000        0xa ..\..\..\libs\cpu\libplatform.a(pll.o)
 .text.pll_ext_init
                0x0000000000000000      0x204 ..\..\..\libs\cpu\libplatform.a(pll.o)
 .text          0x0000000000000000        0x0 ..\..\..\libs\cpu\libplatform.a(pmu.o)
 .data          0x0000000000000000        0x0 ..\..\..\libs\cpu\libplatform.a(pmu.o)
 .bss           0x0000000000000000        0x0 ..\..\..\libs\cpu\libplatform.a(pmu.o)
 .com_text.trim.vddio_get
                0x0000000000000000        0xa ..\..\..\libs\cpu\libplatform.a(pmu.o)
 .com_text.trim.vddio_set
                0x0000000000000000       0x2c ..\..\..\libs\cpu\libplatform.a(pmu.o)
 .com_text.trim.core_get
                0x0000000000000000        0xa ..\..\..\libs\cpu\libplatform.a(pmu.o)
 .com_text.trim.core_set
                0x0000000000000000       0x16 ..\..\..\libs\cpu\libplatform.a(pmu.o)
 .com_text.trim.lvd_get
                0x0000000000000000        0xa ..\..\..\libs\cpu\libplatform.a(pmu.o)
 .com_text.pmu.vddbt_set
                0x0000000000000000        0xe ..\..\..\libs\cpu\libplatform.a(pmu.o)
 .com_text.pmu.vddbt_get
                0x0000000000000000        0x8 ..\..\..\libs\cpu\libplatform.a(pmu.o)
 .text          0x0000000000000000        0x0 ..\..\..\libs\cpu\libplatform.a(reset.o)
 .data          0x0000000000000000        0x0 ..\..\..\libs\cpu\libplatform.a(reset.o)
 .bss           0x0000000000000000        0x0 ..\..\..\libs\cpu\libplatform.a(reset.o)
 .com_text.irq  0x0000000000000000        0xe ..\..\..\libs\cpu\libplatform.a(reset.o)
 .text          0x0000000000000000        0x0 ..\..\..\libs\cpu\libplatform.a(context.o)
 .data          0x0000000000000000        0x0 ..\..\..\libs\cpu\libplatform.a(context.o)
 .bss           0x0000000000000000        0x0 ..\..\..\libs\cpu\libplatform.a(context.o)
 .riscv.attributes
                0x0000000000000000       0x30 ..\..\..\libs\cpu\libplatform.a(context.o)
 .text          0x0000000000000000        0x0 ..\..\..\libs\cpu\libplatform.a(debug.o)
 .data          0x0000000000000000        0x0 ..\..\..\libs\cpu\libplatform.a(debug.o)
 .bss           0x0000000000000000        0x0 ..\..\..\libs\cpu\libplatform.a(debug.o)
 .text.debug_dump_info_nanos_schedule
                0x0000000000000000        0x2 ..\..\..\libs\cpu\libplatform.a(debug.o)
 .text.debug_dump_info_nanos_timer
                0x0000000000000000        0x2 ..\..\..\libs\cpu\libplatform.a(debug.o)
 .text          0x0000000000000000        0x0 ..\..\..\libs\cpu\libplatform.a(key.o)
 .data          0x0000000000000000        0x0 ..\..\..\libs\cpu\libplatform.a(key.o)
 .bss           0x0000000000000000        0x0 ..\..\..\libs\cpu\libplatform.a(key.o)
 .text          0x0000000000000000        0x0 ..\..\..\libs\cpu\libplatform.a(lock.o)
 .data          0x0000000000000000        0x0 ..\..\..\libs\cpu\libplatform.a(lock.o)
 .bss           0x0000000000000000        0x0 ..\..\..\libs\cpu\libplatform.a(lock.o)
 .text          0x0000000000000000        0x0 ..\..\..\libs\cpu\libplatform.a(patch.o)
 .data          0x0000000000000000        0x0 ..\..\..\libs\cpu\libplatform.a(patch.o)
 .bss           0x0000000000000000        0x0 ..\..\..\libs\cpu\libplatform.a(patch.o)
 .text          0x0000000000000000        0x0 ..\..\..\libs\cpu\libplatform.a(s_sys.o)
 .data          0x0000000000000000        0x0 ..\..\..\libs\cpu\libplatform.a(s_sys.o)
 .bss           0x0000000000000000        0x0 ..\..\..\libs\cpu\libplatform.a(s_sys.o)
 .com_text.sys.alu
                0x0000000000000000       0x66 ..\..\..\libs\cpu\libplatform.a(s_sys.o)
 .text          0x0000000000000000        0x0 ..\..\..\libs\cpu\libplatform.a(sleep.o)
 .data          0x0000000000000000        0x0 ..\..\..\libs\cpu\libplatform.a(sleep.o)
 .bss           0x0000000000000000        0x0 ..\..\..\libs\cpu\libplatform.a(sleep.o)
 .com_sleep.lp.sleep
                0x0000000000000000       0x7e ..\..\..\libs\cpu\libplatform.a(sleep.o)
 .comment       0x0000000000000000       0x13 ..\..\..\libs\cpu\libplatform.a(sleep.o)
 .riscv.attributes
                0x0000000000000000       0x32 ..\..\..\libs\cpu\libplatform.a(sleep.o)
 .text          0x0000000000000000        0x0 ..\..\..\libs\cpu\libplatform.a(sys.o)
 .data          0x0000000000000000        0x0 ..\..\..\libs\cpu\libplatform.a(sys.o)
 .bss           0x0000000000000000        0x0 ..\..\..\libs\cpu\libplatform.a(sys.o)
 .text.dbg_clk_out
                0x0000000000000000       0x46 ..\..\..\libs\cpu\libplatform.a(sys.o)
 .text.rc2m_clk_nhz_get
                0x0000000000000000       0x30 ..\..\..\libs\cpu\libplatform.a(sys.o)
 .com_text.sys  0x0000000000000000       0x1e ..\..\..\libs\cpu\libplatform.a(sys.o)
 .text.sw_reset_source_get
                0x0000000000000000       0x2a ..\..\..\libs\cpu\libplatform.a(sys.o)
 .text.random_init
                0x0000000000000000        0xa ..\..\..\libs\cpu\libplatform.a(sys.o)
 .text.sys_get_rand_key
                0x0000000000000000       0x6c ..\..\..\libs\cpu\libplatform.a(sys.o)
 .text.get_random
                0x0000000000000000       0x26 ..\..\..\libs\cpu\libplatform.a(sys.o)
 .text.bsp.param
                0x0000000000000000       0x32 ..\..\..\libs\cpu\libplatform.a(sys.o)
 .text.bt_restore_xosc_cap
                0x0000000000000000        0x8 ..\..\..\libs\cpu\libplatform.a(sys.o)
 .text.bt_get_xosc_cap
                0x0000000000000000        0xc ..\..\..\libs\cpu\libplatform.a(sys.o)
 .text.bt_set_xosc_cap
                0x0000000000000000       0x18 ..\..\..\libs\cpu\libplatform.a(sys.o)
 .text.bt_adj_xosc_cap
                0x0000000000000000       0x72 ..\..\..\libs\cpu\libplatform.a(sys.o)
 .text.__divdi3
                0x0000000000000000       0x5c ..\..\..\libs\cpu\libplatform.a(sys.o)
 .text.__umoddi3
                0x0000000000000000       0x30 ..\..\..\libs\cpu\libplatform.a(sys.o)
 .text          0x0000000000000000        0x0 ..\..\..\libs\cpu\libplatform.a(sys_clk.o)
 .data          0x0000000000000000        0x0 ..\..\..\libs\cpu\libplatform.a(sys_clk.o)
 .bss           0x0000000000000000        0x0 ..\..\..\libs\cpu\libplatform.a(sys_clk.o)
 .text.periph_cacl_clkdiv
                0x0000000000000000        0x2 ..\..\..\libs\cpu\libplatform.a(sys_clk.o)
 .text.sys_clk_nhz_get
                0x0000000000000000       0x5e ..\..\..\libs\cpu\libplatform.a(sys_clk.o)
 .text.sys_clk_get
                0x0000000000000000        0xa ..\..\..\libs\cpu\libplatform.a(sys_clk.o)
 .text.sys_clk_lower_limit_lock
                0x0000000000000000       0x84 ..\..\..\libs\cpu\libplatform.a(sys_clk.o)
 .text.sys_clk_lower_limit_unlock
                0x0000000000000000       0x6c ..\..\..\libs\cpu\libplatform.a(sys_clk.o)
 .text.sys_clk_lower_limit_all_unlock
                0x0000000000000000       0x50 ..\..\..\libs\cpu\libplatform.a(sys_clk.o)
 .sbss          0x0000000000000000        0x1 ..\..\..\libs\cpu\libplatform.a(sys_clk.o)
 .srodata       0x0000000000000000        0x4 ..\..\..\libs\cpu\libplatform.a(sys_clk.o)
 .text          0x0000000000000000        0x0 ..\..\..\libs\cpu\libplatform.a(voltage_trim.o)
 .data          0x0000000000000000        0x0 ..\..\..\libs\cpu\libplatform.a(voltage_trim.o)
 .bss           0x0000000000000000        0x0 ..\..\..\libs\cpu\libplatform.a(voltage_trim.o)
 .text.pmu_get_vbg_mv
                0x0000000000000000        0xe ..\..\..\libs\cpu\libplatform.a(voltage_trim.o)
 .text.pmu_get_vbatdet
                0x0000000000000000       0x46 ..\..\..\libs\cpu\libplatform.a(voltage_trim.o)
 .rodata.str1.4
                0x0000000000000000       0x63 ..\..\..\libs\cpu\libplatform.a(voltage_trim.o)
 .text.voltage_trim_value_dump
                0x0000000000000000       0x8c ..\..\..\libs\cpu\libplatform.a(voltage_trim.o)
 .text          0x0000000000000000        0x0 ..\..\..\libs\cpu\libplatform.a(weak_symbol.o)
 .data          0x0000000000000000        0x0 ..\..\..\libs\cpu\libplatform.a(weak_symbol.o)
 .bss           0x0000000000000000       0x20 ..\..\..\libs\cpu\libplatform.a(weak_symbol.o)
 .text.xosc_get_xcfg
                0x0000000000000000        0x2 ..\..\..\libs\cpu\libplatform.a(weak_symbol.o)
 .text.param_xosc_read
                0x0000000000000000        0x2 ..\..\..\libs\cpu\libplatform.a(weak_symbol.o)
 .text.param_xosc_write
                0x0000000000000000        0x2 ..\..\..\libs\cpu\libplatform.a(weak_symbol.o)
 .text.sys_clk_change_callback
                0x0000000000000000        0x2 ..\..\..\libs\cpu\libplatform.a(weak_symbol.o)
 .text.uart_debug_init_callback
                0x0000000000000000        0x2 ..\..\..\libs\cpu\libplatform.a(weak_symbol.o)
 .text.nanos_var_init
                0x0000000000000000       0x1a ..\..\..\libs\cpu\libplatform.a(weak_symbol.o)
 .text.btstack_message
                0x0000000000000000        0x4 ..\..\..\libs\cpu\libplatform.a(weak_symbol.o)
 .com_text.stack.api
                0x0000000000000000        0x4 ..\..\..\libs\cpu\libplatform.a(weak_symbol.o)
 .com_text.ret.stack.thread
                0x0000000000000000        0x2 ..\..\..\libs\cpu\libplatform.a(weak_symbol.o)
 .com_text.bb.isr
                0x0000000000000000        0x6 ..\..\..\libs\cpu\libplatform.a(weak_symbol.o)
 .com_text.isr  0x0000000000000000        0x2 ..\..\..\libs\cpu\libplatform.a(weak_symbol.o)
 .text.btstack_var_init
                0x0000000000000000        0x2 ..\..\..\libs\cpu\libplatform.a(weak_symbol.o)
 .com_text.stack.run_loop
                0x0000000000000000        0x2 ..\..\..\libs\cpu\libplatform.a(weak_symbol.o)
 .text.bb_patch_init
                0x0000000000000000        0x4 ..\..\..\libs\cpu\libplatform.a(weak_symbol.o)
 .text.bb_nanos_mem_init
                0x0000000000000000        0x2 ..\..\..\libs\cpu\libplatform.a(weak_symbol.o)
 .text          0x0000000000000000        0x0 ..\..\..\libs\cpu\libplatform.a(bt.o)
 .data          0x0000000000000000        0x0 ..\..\..\libs\cpu\libplatform.a(bt.o)
 .bss           0x0000000000000000        0x0 ..\..\..\libs\cpu\libplatform.a(bt.o)
 .text          0x0000000000000000        0x0 ..\..\..\libs\cpu\libplatform.a(freq_det.o)
 .data          0x0000000000000000        0x0 ..\..\..\libs\cpu\libplatform.a(freq_det.o)
 .bss           0x0000000000000000        0x0 ..\..\..\libs\cpu\libplatform.a(freq_det.o)
 .com_sleep.sleep.rc
                0x0000000000000000       0x44 ..\..\..\libs\cpu\libplatform.a(freq_det.o)
 .data          0x0000000000000000        0x0 ..\..\..\libs\ble\libbtstack_central.a(bb_api.o)
 .bss           0x0000000000000000        0x0 ..\..\..\libs\ble\libbtstack_central.a(bb_api.o)
 .com_text.bt.timer
                0x0000000000000000       0xc0 ..\..\..\libs\ble\libbtstack_central.a(bb_api.o)
 .com_text.sleep
                0x0000000000000000        0x8 ..\..\..\libs\ble\libbtstack_central.a(bb_api.o)
 .com_sleep.sleep
                0x0000000000000000        0x8 ..\..\..\libs\ble\libbtstack_central.a(bb_api.o)
 .data          0x0000000000000000        0x0 ..\..\..\libs\ble\libbtstack_central.a(bb_int.o)
 .bss           0x0000000000000000        0x0 ..\..\..\libs\ble\libbtstack_central.a(bb_int.o)
 .com_text.bb.hs_get
                0x0000000000000000       0x22 ..\..\..\libs\ble\libbtstack_central.a(bb_int.o)
 .com_sleep.bb  0x0000000000000000      0x1c0 ..\..\..\libs\ble\libbtstack_central.a(bb_int.o)
 .text          0x0000000000000000        0x0 ..\..\..\libs\ble\libbtstack_central.a(bb_alarm.o)
 .data          0x0000000000000000        0x0 ..\..\..\libs\ble\libbtstack_central.a(bb_alarm.o)
 .bss           0x0000000000000000        0x0 ..\..\..\libs\ble\libbtstack_central.a(bb_alarm.o)
 .com_text.bb.isr.nest
                0x0000000000000000        0xa ..\..\..\libs\ble\libbtstack_central.a(bb_alarm.o)
 .data          0x0000000000000000        0x0 ..\..\..\libs\ble\libbtstack_central.a(txpkt.o)
 .bss           0x0000000000000000        0x0 ..\..\..\libs\ble\libbtstack_central.a(txpkt.o)
 .data          0x0000000000000000        0x0 ..\..\..\libs\ble\libbtstack_central.a(sm.o)
 .text.sm.cmac  0x0000000000000000       0x82 ..\..\..\libs\ble\libbtstack_central.a(sm.o)
 .text.sm.irk.set
                0x0000000000000000       0x2e ..\..\..\libs\ble\libbtstack_central.a(sm.o)
 .text.sm.auth.sta
                0x0000000000000000       0x30 ..\..\..\libs\ble\libbtstack_central.a(sm.o)
 .text.sm.auth_decline
                0x0000000000000000       0x38 ..\..\..\libs\ble\libbtstack_central.a(sm.o)
 .text.sm.auth_grant
                0x0000000000000000       0x38 ..\..\..\libs\ble\libbtstack_central.a(sm.o)
 .text.sm.bonding_decline
                0x0000000000000000       0x60 ..\..\..\libs\ble\libbtstack_central.a(sm.o)
 .text.sm.passkey.set
                0x0000000000000000       0x3e ..\..\..\libs\ble\libbtstack_central.a(sm.o)
 .text.sm.identity_resolving_state
                0x0000000000000000       0x20 ..\..\..\libs\ble\libbtstack_central.a(sm.o)
 .text.gap.adv  0x0000000000000000        0x2 ..\..\..\libs\ble\libbtstack_central.a(sm.o)
 .text.sm.irk_get
                0x0000000000000000        0xa ..\..\..\libs\ble\libbtstack_central.a(sm.o)
 .text.sm.delete_bonding
                0x0000000000000000       0x6e ..\..\..\libs\ble\libbtstack_central.a(sm.o)
 .data          0x0000000000000000        0x0 ..\..\..\libs\ble\libbtstack_central.a(le_device_db_memory.o)
 .bss           0x0000000000000000        0x0 ..\..\..\libs\ble\libbtstack_central.a(le_device_db_memory.o)
 .text.le.db.get
                0x0000000000000000       0x3e ..\..\..\libs\ble\libbtstack_central.a(le_device_db_memory.o)
 .text.le.db.remove_all
                0x0000000000000000       0x60 ..\..\..\libs\ble\libbtstack_central.a(le_device_db_memory.o)
 .text.le.db.dump
                0x0000000000000000       0x6a ..\..\..\libs\ble\libbtstack_central.a(le_device_db_memory.o)
 .text.le.db.get_index
                0x0000000000000000       0x1c ..\..\..\libs\ble\libbtstack_central.a(le_device_db_memory.o)
 .data          0x0000000000000000        0x0 ..\..\..\libs\ble\libbtstack_central.a(gatt_client.o)
 .bss           0x0000000000000000        0x0 ..\..\..\libs\ble\libbtstack_central.a(gatt_client.o)
 .text.client.set.sm_level
                0x0000000000000000        0xa ..\..\..\libs\ble\libbtstack_central.a(gatt_client.o)
 .text.client.stop_listening
                0x0000000000000000       0x14 ..\..\..\libs\ble\libbtstack_central.a(gatt_client.o)
 .text.client.deserialize_characteristic_descriptor
                0x0000000000000000       0x4e ..\..\..\libs\ble\libbtstack_central.a(gatt_client.o)
 .text.client.get_character_uuid16
                0x0000000000000000       0x22 ..\..\..\libs\ble\libbtstack_central.a(gatt_client.o)
 .text.client.get_character_uuid128
                0x0000000000000000       0x42 ..\..\..\libs\ble\libbtstack_central.a(gatt_client.o)
 .text.client.write_cmd
                0x0000000000000000       0x24 ..\..\..\libs\ble\libbtstack_central.a(gatt_client.o)
 .text.client.read_req
                0x0000000000000000       0x44 ..\..\..\libs\ble\libbtstack_central.a(gatt_client.o)
 .text.client.read_blob
                0x0000000000000000       0x22 ..\..\..\libs\ble\libbtstack_central.a(gatt_client.o)
 .text.client.discover_secondary_services
                0x0000000000000000       0x4c ..\..\..\libs\ble\libbtstack_central.a(gatt_client.o)
 .text.client.find_services_uuid16
                0x0000000000000000       0x6a ..\..\..\libs\ble\libbtstack_central.a(gatt_client.o)
 .text.client.find_services_uuid128
                0x0000000000000000       0x6e ..\..\..\libs\ble\libbtstack_central.a(gatt_client.o)
 .text.client.find_included_services
                0x0000000000000000       0x4e ..\..\..\libs\ble\libbtstack_central.a(gatt_client.o)
 .text.client.find_character_uuid16
                0x0000000000000000       0x90 ..\..\..\libs\ble\libbtstack_central.a(gatt_client.o)
 .text.client.find_character_uuid128
                0x0000000000000000       0x92 ..\..\..\libs\ble\libbtstack_central.a(gatt_client.o)
 .text.client.discover_characteristic_descriptors
                0x0000000000000000       0x5e ..\..\..\libs\ble\libbtstack_central.a(gatt_client.o)
 .text.client.read_value
                0x0000000000000000        0xc ..\..\..\libs\ble\libbtstack_central.a(gatt_client.o)
 .text.client.read_value_uuid16
                0x0000000000000000       0x66 ..\..\..\libs\ble\libbtstack_central.a(gatt_client.o)
 .text.client.read_value_uuid128
                0x0000000000000000       0x68 ..\..\..\libs\ble\libbtstack_central.a(gatt_client.o)
 .text.client.read_long_value
                0x0000000000000000       0x16 ..\..\..\libs\ble\libbtstack_central.a(gatt_client.o)
 .text.client.read_multiple
                0x0000000000000000       0x48 ..\..\..\libs\ble\libbtstack_central.a(gatt_client.o)
 .text.client.write_long_value
                0x0000000000000000       0x62 ..\..\..\libs\ble\libbtstack_central.a(gatt_client.o)
 .text.client.reliable_write_long
                0x0000000000000000       0x52 ..\..\..\libs\ble\libbtstack_central.a(gatt_client.o)
 .text.client.read_characteristic
                0x0000000000000000       0x50 ..\..\..\libs\ble\libbtstack_central.a(gatt_client.o)
 .text.client.read_long_characteristic_descriptor
                0x0000000000000000       0x62 ..\..\..\libs\ble\libbtstack_central.a(gatt_client.o)
 .text.client.write_character_desc
                0x0000000000000000       0x60 ..\..\..\libs\ble\libbtstack_central.a(gatt_client.o)
 .text.client.write_long_character_desc
                0x0000000000000000       0x70 ..\..\..\libs\ble\libbtstack_central.a(gatt_client.o)
 .text.client.prepare_write
                0x0000000000000000       0x56 ..\..\..\libs\ble\libbtstack_central.a(gatt_client.o)
 .text.client.execute_write
                0x0000000000000000       0x3c ..\..\..\libs\ble\libbtstack_central.a(gatt_client.o)
 .text.client.cancel_write
                0x0000000000000000       0x3c ..\..\..\libs\ble\libbtstack_central.a(gatt_client.o)
 .ble_buf.read  0x0000000000000000        0x6 ..\..\..\libs\ble\libbtstack_central.a(gatt_client.o)
 .data          0x0000000000000000        0x0 ..\..\..\libs\ble\libbtstack_central.a(att_server.o)
 .bss           0x0000000000000000        0x0 ..\..\..\libs\ble\libbtstack_central.a(att_server.o)
 .text.sm.server
                0x0000000000000000      0x210 ..\..\..\libs\ble\libbtstack_central.a(att_server.o)
 .text.server.register_service
                0x0000000000000000       0x42 ..\..\..\libs\ble\libbtstack_central.a(att_server.o)
 .text.server.init
                0x0000000000000000       0x84 ..\..\..\libs\ble\libbtstack_central.a(att_server.o)
 .text.server.packet_handler
                0x0000000000000000      0x1dc ..\..\..\libs\ble\libbtstack_central.a(att_server.o)
 .text.att.event_handler
                0x0000000000000000      0x190 ..\..\..\libs\ble\libbtstack_central.a(att_server.o)
 .com_text.att.event_handler
                0x0000000000000000       0x26 ..\..\..\libs\ble\libbtstack_central.a(att_server.o)
 .ble_buf.att   0x0000000000000000       0x10 ..\..\..\libs\ble\libbtstack_central.a(att_server.o)
 .data          0x0000000000000000        0x0 ..\..\..\libs\ble\libbtstack_central.a(att_dispatch.o)
 .bss           0x0000000000000000        0x0 ..\..\..\libs\ble\libbtstack_central.a(att_dispatch.o)
 .text.att.is_register_client
                0x0000000000000000        0xe ..\..\..\libs\ble\libbtstack_central.a(att_dispatch.o)
 .text.att.register_server
                0x0000000000000000       0x1a ..\..\..\libs\ble\libbtstack_central.a(att_dispatch.o)
 .text.att.server_mtu
                0x0000000000000000       0x14 ..\..\..\libs\ble\libbtstack_central.a(att_dispatch.o)
 .data          0x0000000000000000        0x0 ..\..\..\libs\ble\libbtstack_central.a(att_db.o)
 .bss           0x0000000000000000        0x0 ..\..\..\libs\ble\libbtstack_central.a(att_db.o)
 .text.att.dump
                0x0000000000000000       0x5c ..\..\..\libs\ble\libbtstack_central.a(att_db.o)
 .text.gatt.get_client_config
                0x0000000000000000      0x122 ..\..\..\libs\ble\libbtstack_central.a(att_db.o)
 .data          0x0000000000000000        0x0 ..\..\..\libs\ble\libbtstack_central.a(btstack_api.o)
 .bss           0x0000000000000000        0x0 ..\..\..\libs\ble\libbtstack_central.a(btstack_api.o)
 .com_text.ret.bb.sleep
                0x0000000000000000       0x1e ..\..\..\libs\ble\libbtstack_central.a(btstack_api.o)
 .com_sleep.sleep
                0x0000000000000000        0x8 ..\..\..\libs\ble\libbtstack_central.a(btstack_api.o)
 .data          0x0000000000000000        0x0 ..\..\..\libs\ble\libbtstack_central.a(ble_api.o)
 .bss           0x0000000000000000        0x0 ..\..\..\libs\ble\libbtstack_central.a(ble_api.o)
 .text.ble.api.conn.update
                0x0000000000000000       0xb0 ..\..\..\libs\ble\libbtstack_central.a(ble_api.o)
 .text.stack.sleep
                0x0000000000000000       0xac ..\..\..\libs\ble\libbtstack_central.a(ble_api.o)
 .text.ble.api.max_mtu
                0x0000000000000000        0x8 ..\..\..\libs\ble\libbtstack_central.a(ble_api.o)
 .text.ble.api.adv_dis
                0x0000000000000000        0x2 ..\..\..\libs\ble\libbtstack_central.a(ble_api.o)
 .text.ble.api.adv_en
                0x0000000000000000        0x2 ..\..\..\libs\ble\libbtstack_central.a(ble_api.o)
 .text.ble.api.adv_is_en
                0x0000000000000000        0x8 ..\..\..\libs\ble\libbtstack_central.a(ble_api.o)
 .text.ble.api.discon
                0x0000000000000000        0xe ..\..\..\libs\ble\libbtstack_central.a(ble_api.o)
 .text.ble.api.adv_data.set
                0x0000000000000000        0x4 ..\..\..\libs\ble\libbtstack_central.a(ble_api.o)
 .text.ble.api.scan
                0x0000000000000000        0x4 ..\..\..\libs\ble\libbtstack_central.a(ble_api.o)
 .text.ble.api.adv_interval.set
                0x0000000000000000        0x4 ..\..\..\libs\ble\libbtstack_central.a(ble_api.o)
 .text.ble.api.adv.adv_interval.get
                0x0000000000000000        0x4 ..\..\..\libs\ble\libbtstack_central.a(ble_api.o)
 .text.ble.api.conn_param.get
                0x0000000000000000        0x8 ..\..\..\libs\ble\libbtstack_central.a(ble_api.o)
 .text.ble.api.latency.dis
                0x0000000000000000        0x4 ..\..\..\libs\ble\libbtstack_central.a(ble_api.o)
 .text.ble.api.latency.en
                0x0000000000000000        0x4 ..\..\..\libs\ble\libbtstack_central.a(ble_api.o)
 .text.ble.api.adv_param.set
                0x0000000000000000        0x4 ..\..\..\libs\ble\libbtstack_central.a(ble_api.o)
 .text.ble.api.adv
                0x0000000000000000        0x4 ..\..\..\libs\ble\libbtstack_central.a(ble_api.o)
 .text.ble.api.rpa
                0x0000000000000000        0x2 ..\..\..\libs\ble\libbtstack_central.a(ble_api.o)
 .text.ble.api.rpa_en
                0x0000000000000000        0x2 ..\..\..\libs\ble\libbtstack_central.a(ble_api.o)
 .text.ble.api.rpa_add
                0x0000000000000000        0x2 ..\..\..\libs\ble\libbtstack_central.a(ble_api.o)
 .text.ble.api.rpa_dev
                0x0000000000000000        0x2 ..\..\..\libs\ble\libbtstack_central.a(ble_api.o)
 .text.ble.api.wlist_add
                0x0000000000000000        0x2 ..\..\..\libs\ble\libbtstack_central.a(ble_api.o)
 .text.ble.api.wlist_dev
                0x0000000000000000        0x2 ..\..\..\libs\ble\libbtstack_central.a(ble_api.o)
 .text.ble.api.wlist
                0x0000000000000000        0x4 ..\..\..\libs\ble\libbtstack_central.a(ble_api.o)
 .text.ble.api.sm.passkey
                0x0000000000000000       0x2c ..\..\..\libs\ble\libbtstack_central.a(ble_api.o)
 .text.ble.api.sm_req
                0x0000000000000000        0xe ..\..\..\libs\ble\libbtstack_central.a(ble_api.o)
 .text.ble.bond.delete_addr
                0x0000000000000000        0x8 ..\..\..\libs\ble\libbtstack_central.a(ble_api.o)
 .text.ble.bond.delete_index
                0x0000000000000000        0x8 ..\..\..\libs\ble\libbtstack_central.a(ble_api.o)
 .text.ble.bond.delete_all
                0x0000000000000000        0x8 ..\..\..\libs\ble\libbtstack_central.a(ble_api.o)
 .text.ble.bond.get_cnt
                0x0000000000000000       0x1c ..\..\..\libs\ble\libbtstack_central.a(ble_api.o)
 .text.ble.bond.get_info
                0x0000000000000000        0x8 ..\..\..\libs\ble\libbtstack_central.a(ble_api.o)
 .text.ble.bond.get_index
                0x0000000000000000        0x8 ..\..\..\libs\ble\libbtstack_central.a(ble_api.o)
 .text.ble.api.get_rssi
                0x0000000000000000        0x8 ..\..\..\libs\ble\libbtstack_central.a(ble_api.o)
 .text.ble.set_static_addr
                0x0000000000000000       0x48 ..\..\..\libs\ble\libbtstack_central.a(ble_api.o)
 .text.ble.single_mode
                0x0000000000000000       0x48 ..\..\..\libs\ble\libbtstack_central.a(ble_api.o)
 .data          0x0000000000000000        0x0 ..\..\..\libs\ble\libbtstack_central.a(txpkt.o)
 .bss           0x0000000000000000        0x0 ..\..\..\libs\ble\libbtstack_central.a(txpkt.o)
 .text          0x0000000000000000        0x0 ..\..\..\libs\ble\libbtstack_central.a(aes.o)
 .data          0x0000000000000000        0x0 ..\..\..\libs\ble\libbtstack_central.a(aes.o)
 .com_text.bb.isr
                0x0000000000000000       0x28 ..\..\..\libs\ble\libbtstack_central.a(aes.o)
 .text.bb.aes.ecpy
                0x0000000000000000       0xe8 ..\..\..\libs\ble\libbtstack_central.a(aes.o)
 .data          0x0000000000000000        0x0 ..\..\..\libs\ble\libbtstack_central.a(extern.o)
 .bss           0x0000000000000000        0x0 ..\..\..\libs\ble\libbtstack_central.a(extern.o)
 .text.bsp.param
                0x0000000000000000        0x2 ..\..\..\libs\ble\libbtstack_central.a(extern.o)
 .com_sleep.sleep
                0x0000000000000000        0x2 ..\..\..\libs\ble\libbtstack_central.a(extern.o)
 .com_text.ble.phy
                0x0000000000000000        0x4 ..\..\..\libs\ble\libbtstack_central.a(extern.o)
 .sdata         0x0000000000000000        0x4 ..\..\..\libs\ble\libbtstack_central.a(extern.o)
 .data          0x0000000000000000        0x0 ..\..\..\libs\ble\libbtstack_central.a(rf.o)
 .bss           0x0000000000000000        0x0 ..\..\..\libs\ble\libbtstack_central.a(rf.o)
 .com_text.bb.isr.lv
                0x0000000000000000       0x3e ..\..\..\libs\ble\libbtstack_central.a(rf.o)
 .com_text.bb.isr.dbm
                0x0000000000000000       0x12 ..\..\..\libs\ble\libbtstack_central.a(rf.o)
 .com_sleep.bb  0x0000000000000000       0xae ..\..\..\libs\ble\libbtstack_central.a(rf.o)
 .btmem.rf.dc   0x0000000000000000       0x48 ..\..\..\libs\ble\libbtstack_central.a(rf.o)
 .com_rodata.bb.tbl
                0x0000000000000000        0x8 ..\..\..\libs\ble\libbtstack_central.a(rf.o)
 .sbss          0x0000000000000000        0x1 ..\..\..\libs\ble\libbtstack_central.a(rf.o)
 .text          0x0000000000000000        0x0 ..\..\..\libs\ble\libbtstack_central.a(hct_tl.o)
 .data          0x0000000000000000        0x0 ..\..\..\libs\ble\libbtstack_central.a(hct_tl.o)
 .bss           0x0000000000000000        0x0 ..\..\..\libs\ble\libbtstack_central.a(hct_tl.o)
 .com_text.bb.sleep
                0x0000000000000000        0x4 ..\..\..\libs\ble\libbtstack_central.a(hct_tl.o)
 .comment       0x0000000000000000       0x13 ..\..\..\libs\ble\libbtstack_central.a(hct_tl.o)
 .riscv.attributes
                0x0000000000000000       0x32 ..\..\..\libs\ble\libbtstack_central.a(hct_tl.o)
 .data          0x0000000000000000        0x0 ..\..\..\libs\ble\libbtstack_central.a(ble_con.o)
 .bss           0x0000000000000000        0x0 ..\..\..\libs\ble\libbtstack_central.a(ble_con.o)
 .com_rodata.bb.tbl
                0x0000000000000000       0x10 ..\..\..\libs\ble\libbtstack_central.a(ble_con.o)
 .data          0x0000000000000000        0x0 ..\..\..\libs\ble\libbtstack_central.a(ble_buf.o)
 .data          0x0000000000000000        0x0 ..\..\..\libs\ble\libbtstack_central.a(ble.o)
 .bss           0x0000000000000000        0x0 ..\..\..\libs\ble\libbtstack_central.a(ble.o)
 .text          0x0000000000000000       0x3e ..\..\..\libs\ble\libbtstack_central.a(bb_utils.o)
 .data          0x0000000000000000        0x0 ..\..\..\libs\ble\libbtstack_central.a(bb_utils.o)
 .bss           0x0000000000000000        0x0 ..\..\..\libs\ble\libbtstack_central.a(bb_utils.o)
 .com_rodata.bb.tbl.r2m
                0x0000000000000000        0x4 ..\..\..\libs\ble\libbtstack_central.a(bb_utils.o)
 .com_rodata.bb.tbl.rate.dur
                0x0000000000000000        0x5 ..\..\..\libs\ble\libbtstack_central.a(bb_utils.o)
 .srodata       0x0000000000000000        0x5 ..\..\..\libs\ble\libbtstack_central.a(bb_utils.o)
 .text          0x0000000000000000        0x0 ..\..\..\libs\ble\libbtstack_central.a(bb_sleep.o)
 .data          0x0000000000000000        0x0 ..\..\..\libs\ble\libbtstack_central.a(bb_sleep.o)
 .bss           0x0000000000000000        0x0 ..\..\..\libs\ble\libbtstack_central.a(bb_sleep.o)
 .com_sleep.bb  0x0000000000000000       0xa2 ..\..\..\libs\ble\libbtstack_central.a(bb_sleep.o)
 .comment       0x0000000000000000       0x13 ..\..\..\libs\ble\libbtstack_central.a(bb_sleep.o)
 .riscv.attributes
                0x0000000000000000       0x32 ..\..\..\libs\ble\libbtstack_central.a(bb_sleep.o)
 .data          0x0000000000000000        0x0 ..\..\..\libs\ble\libbtstack_central.a(bb.o)
 .bss           0x0000000000000000        0x0 ..\..\..\libs\ble\libbtstack_central.a(bb.o)
 .text          0x0000000000000000        0x0 ..\..\..\libs\ble\libbtstack_central.a(platform.o)
 .data          0x0000000000000000        0x0 ..\..\..\libs\ble\libbtstack_central.a(platform.o)
 .bss           0x0000000000000000        0x0 ..\..\..\libs\ble\libbtstack_central.a(platform.o)
 .com_text.cpu.sfr
                0x0000000000000000       0x3c ..\..\..\libs\ble\libbtstack_central.a(platform.o)
 .data          0x0000000000000000        0x0 ..\..\..\libs\ble\libbtstack_central.a(extern_ble.o)
 .bss           0x0000000000000000        0x0 ..\..\..\libs\ble\libbtstack_central.a(extern_ble.o)
 .sbss          0x0000000000000000        0x1 ..\..\..\libs\ble\libbtstack_central.a(extern_ble.o)
 .data          0x0000000000000000        0x0 ..\..\..\libs\ble\libbtstack_central.a(l2cap.o)
 .bss           0x0000000000000000        0x0 ..\..\..\libs\ble\libbtstack_central.a(l2cap.o)
 .text.l2cap.mtu_max
                0x0000000000000000        0x6 ..\..\..\libs\ble\libbtstack_central.a(l2cap.o)
 .text.l2cap.mtu_set
                0x0000000000000000       0x18 ..\..\..\libs\ble\libbtstack_central.a(l2cap.o)
 .text          0x0000000000000000       0x18 ..\..\..\libs\ble\libbtstack_central.a(hci_dump.o)
 .data          0x0000000000000000        0xc ..\..\..\libs\ble\libbtstack_central.a(hci_dump.o)
 .bss           0x0000000000000000        0x0 ..\..\..\libs\ble\libbtstack_central.a(hci_dump.o)
 .rodata.str1.4
                0x0000000000000000       0x12 ..\..\..\libs\ble\libbtstack_central.a(hci_dump.o)
 .text.stack.util
                0x0000000000000000       0x82 ..\..\..\libs\ble\libbtstack_central.a(hci_dump.o)
 .text          0x0000000000000000        0x0 ..\..\..\libs\ble\libbtstack_central.a(hci_cmd.o)
 .data          0x0000000000000000        0x0 ..\..\..\libs\ble\libbtstack_central.a(hci_cmd.o)
 .bss           0x0000000000000000        0x0 ..\..\..\libs\ble\libbtstack_central.a(hci_cmd.o)
 .rodata.stack.hci_send.ch
                0x0000000000000000        0x8 ..\..\..\libs\ble\libbtstack_central.a(hci_cmd.o)
 .rodata.stack.hci_send.chm
                0x0000000000000000        0x8 ..\..\..\libs\ble\libbtstack_central.a(hci_cmd.o)
 .rodata.stack.hci_send.featrue
                0x0000000000000000        0x8 ..\..\..\libs\ble\libbtstack_central.a(hci_cmd.o)
 .rodata.stack.hci_send.read_sugg_len
                0x0000000000000000        0x8 ..\..\..\libs\ble\libbtstack_central.a(hci_cmd.o)
 .rodata.stack.hci_send.rx_test
                0x0000000000000000        0x8 ..\..\..\libs\ble\libbtstack_central.a(hci_cmd.o)
 .rodata.stack.hci_send.set_len
                0x0000000000000000        0x8 ..\..\..\libs\ble\libbtstack_central.a(hci_cmd.o)
 .rodata.stack.hci_send.sup_sta
                0x0000000000000000        0x8 ..\..\..\libs\ble\libbtstack_central.a(hci_cmd.o)
 .rodata.stack.hci_send.test_end
                0x0000000000000000        0x8 ..\..\..\libs\ble\libbtstack_central.a(hci_cmd.o)
 .rodata.stack.hci_send.tx_test
                0x0000000000000000        0x8 ..\..\..\libs\ble\libbtstack_central.a(hci_cmd.o)
 .srodata       0x0000000000000000        0x8 ..\..\..\libs\ble\libbtstack_central.a(hci_cmd.o)
 .data          0x0000000000000000        0x0 ..\..\..\libs\ble\libbtstack_central.a(hci.o)
 .bss           0x0000000000000000        0x0 ..\..\..\libs\ble\libbtstack_central.a(hci.o)
 .text.stack.hci.le.adv
                0x0000000000000000        0x2 ..\..\..\libs\ble\libbtstack_central.a(hci.o)
 .text.hci.adv.is_enable
                0x0000000000000000        0x4 ..\..\..\libs\ble\libbtstack_central.a(hci.o)
 .com_text.stack.hci_recv
                0x0000000000000000       0x10 ..\..\..\libs\ble\libbtstack_central.a(hci.o)
 .data          0x0000000000000000        0x0 ..\..\..\libs\ble\libbtstack_central.a(btstack_util.o)
 .bss           0x0000000000000000        0x0 ..\..\..\libs\ble\libbtstack_central.a(btstack_util.o)
 .data          0x0000000000000000        0x0 ..\..\..\libs\ble\libbtstack_central.a(btstack_run_loop.o)
 .bss           0x0000000000000000        0x0 ..\..\..\libs\ble\libbtstack_central.a(btstack_run_loop.o)
 .data          0x0000000000000000        0x0 ..\..\..\libs\ble\libbtstack_central.a(btstack_memory.o)
 .text.stack.memory
                0x0000000000000000       0x12 ..\..\..\libs\ble\libbtstack_central.a(btstack_memory.o)
 .text.stack.setup
                0x0000000000000000        0x2 ..\..\..\libs\ble\libbtstack_central.a(btstack_memory.o)
 .data          0x0000000000000000        0x0 ..\..\..\libs\ble\libbtstack_central.a(gatt_server.o)
 .bss           0x0000000000000000        0x0 ..\..\..\libs\ble\libbtstack_central.a(gatt_server.o)
 .text.stack.send.ntf_kick
                0x0000000000000000        0x8 ..\..\..\libs\ble\libbtstack_central.a(gatt_server.o)
 .data          0x0000000000000000        0x0 ..\..\..\libs\ble\libbtstack_central.a(hci_transport_h3_controller.o)
 .bss           0x0000000000000000       0x20 ..\..\..\libs\ble\libbtstack_central.a(hci_transport_h3_controller.o)
 .text.stack.h3c
                0x0000000000000000      0x1dc ..\..\..\libs\ble\libbtstack_central.a(hci_transport_h3_controller.o)
 .rodata.str1.4
                0x0000000000000000       0x16 ..\..\..\libs\ble\libbtstack_central.a(hci_transport_h3_controller.o)
 .com_text.stack.h3c
                0x0000000000000000       0x48 ..\..\..\libs\ble\libbtstack_central.a(hci_transport_h3_controller.o)
 .com_text.stack.util
                0x0000000000000000      0x136 ..\..\..\libs\ble\libbtstack_central.a(hci_transport_h3_controller.o)
 .text.btstack.hci.h3c.init
                0x0000000000000000       0x12 ..\..\..\libs\ble\libbtstack_central.a(hci_transport_h3_controller.o)
 .rodata        0x0000000000000000       0x20 ..\..\..\libs\ble\libbtstack_central.a(hci_transport_h3_controller.o)
 .com_rodata.stack.h3
                0x0000000000000000        0x2 ..\..\..\libs\ble\libbtstack_central.a(hci_transport_h3_controller.o)
 .hci.h3.huart  0x0000000000000000      0x10c ..\..\..\libs\ble\libbtstack_central.a(hci_transport_h3_controller.o)
 .sbss          0x0000000000000000       0x1c ..\..\..\libs\ble\libbtstack_central.a(hci_transport_h3_controller.o)
 .data          0x0000000000000000        0x0 ..\..\..\libs\ble\libbtstack_central.a(hci_transport_dummy.o)
 .bss           0x0000000000000000        0x0 ..\..\..\libs\ble\libbtstack_central.a(hci_transport_dummy.o)
 .data          0x0000000000000000        0x0 ..\..\..\libs\ble\libbtstack_central.a(btstack_main.o)
 .bss           0x0000000000000000        0x0 ..\..\..\libs\ble\libbtstack_central.a(btstack_main.o)
 .data          0x0000000000000000        0x0 ..\..\..\libs\ble\libbtstack_central.a(btstack_hal.o)
 .bss           0x0000000000000000        0x0 ..\..\..\libs\ble\libbtstack_central.a(btstack_hal.o)
 .com_text.stack.uart_isr
                0x0000000000000000       0x6c ..\..\..\libs\ble\libbtstack_central.a(btstack_hal.o)
 .text.stack.hal
                0x0000000000000000       0xa4 ..\..\..\libs\ble\libbtstack_central.a(btstack_hal.o)
 .com_text.stack.util
                0x0000000000000000       0x12 ..\..\..\libs\ble\libbtstack_central.a(btstack_hal.o)
 .sbss          0x0000000000000000        0x8 ..\..\..\libs\ble\libbtstack_central.a(btstack_hal.o)
 .data          0x0000000000000000        0x0 ..\..\..\libs\ble\libbtstack_central.a(nanos.o)
 .bss           0x0000000000000000        0x0 ..\..\..\libs\ble\libbtstack_central.a(nanos.o)
 .com_text.ret.bb
                0x0000000000000000        0x2 ..\..\..\libs\ble\libbtstack_central.a(nanos.o)
 .data          0x0000000000000000        0x0 ..\..\..\libs\ble\libbtstack_central.a(bb_sche.o)
 .com_sleep.bb  0x0000000000000000        0xa ..\..\..\libs\ble\libbtstack_central.a(bb_sche.o)
 .data          0x0000000000000000        0x0 ..\..\..\libs\ble\libbtstack_central.a(patch.o)
 .bss           0x0000000000000000        0x0 ..\..\..\libs\ble\libbtstack_central.a(patch.o)
 .text          0x0000000000000000        0x0 ..\..\..\libs\ble\libbtstack_central.a(bb_dbg.o)
 .data          0x0000000000000000        0x0 ..\..\..\libs\ble\libbtstack_central.a(bb_dbg.o)
 .bss           0x0000000000000000        0x0 ..\..\..\libs\ble\libbtstack_central.a(bb_dbg.o)
 .com_text.spi_init
                0x0000000000000000       0x60 ..\..\..\libs\ble\libbtstack_central.a(bb_dbg.o)
 .com_text.bb.putc
                0x0000000000000000       0x60 ..\..\..\libs\ble\libbtstack_central.a(bb_dbg.o)
 .text          0x0000000000000000        0x0 ..\..\..\libs\ble\libbtstack_central.a(bb_clk.o)
 .data          0x0000000000000000        0x0 ..\..\..\libs\ble\libbtstack_central.a(bb_clk.o)
 .bss           0x0000000000000000        0x0 ..\..\..\libs\ble\libbtstack_central.a(bb_clk.o)
 .data          0x0000000000000000        0x0 ..\..\..\libs\ble\libbtstack_central.a(vs.o)
 .bss           0x0000000000000000        0x0 ..\..\..\libs\ble\libbtstack_central.a(vs.o)
 .bss           0x0000000000000000        0x0 ..\..\..\libs\ble\libbtstack_central.a(rf_mate.o)
 .text.rf.vddvco.set
                0x0000000000000000       0x18 ..\..\..\libs\ble\libbtstack_central.a(rf_mate.o)
 .text.rf.vddvco.get
                0x0000000000000000        0xa ..\..\..\libs\ble\libbtstack_central.a(rf_mate.o)
 .text.rf.pll.set
                0x0000000000000000       0x12 ..\..\..\libs\ble\libbtstack_central.a(rf_mate.o)
 .data          0x0000000000000000        0x0 ..\..\..\libs\ble\libbtstack_central.a(ble_hook.o)
 .bss           0x0000000000000000        0x0 ..\..\..\libs\ble\libbtstack_central.a(ble_hook.o)
 .data          0x0000000000000000        0x0 ..\..\..\libs\ble\libbtstack_central.a(hct_proc.o)
 .bss           0x0000000000000000        0x0 ..\..\..\libs\ble\libbtstack_central.a(hct_proc.o)
 .data          0x0000000000000000        0x0 ..\..\..\libs\ble\libbtstack_central.a(hct.o)
 .bss           0x0000000000000000        0x0 ..\..\..\libs\ble\libbtstack_central.a(hct.o)
 .data          0x0000000000000000        0x0 ..\..\..\libs\ble\libbtstack_central.a(mgr_hci.o)
 .bss           0x0000000000000000        0x0 ..\..\..\libs\ble\libbtstack_central.a(mgr_hci.o)
 .data          0x0000000000000000        0x0 ..\..\..\libs\ble\libbtstack_central.a(mgr.o)
 .bss           0x0000000000000000        0x0 ..\..\..\libs\ble\libbtstack_central.a(mgr.o)
 .data          0x0000000000000000        0x0 ..\..\..\libs\ble\libbtstack_central.a(ll_scan.o)
 .bss           0x0000000000000000        0x0 ..\..\..\libs\ble\libbtstack_central.a(ll_scan.o)
 .data          0x0000000000000000        0x0 ..\..\..\libs\ble\libbtstack_central.a(ll_cntl.o)
 .bss           0x0000000000000000        0x0 ..\..\..\libs\ble\libbtstack_central.a(ll_cntl.o)
 .text          0x0000000000000000        0x0 ..\..\..\libs\ble\libbtstack_central.a(ll_clk_acc.o)
 .data          0x0000000000000000        0x0 ..\..\..\libs\ble\libbtstack_central.a(ll_clk_acc.o)
 .bss           0x0000000000000000        0x0 ..\..\..\libs\ble\libbtstack_central.a(ll_clk_acc.o)
 .data          0x0000000000000000        0x0 ..\..\..\libs\ble\libbtstack_central.a(ll_chmap_upd.o)
 .bss           0x0000000000000000        0x0 ..\..\..\libs\ble\libbtstack_central.a(ll_chmap_upd.o)
 .text          0x0000000000000000        0x0 ..\..\..\libs\ble\libbtstack_central.a(ll.o)
 .data          0x0000000000000000        0x0 ..\..\..\libs\ble\libbtstack_central.a(ll.o)
 .bss           0x0000000000000000        0x0 ..\..\..\libs\ble\libbtstack_central.a(ll.o)
 .data          0x0000000000000000        0x0 ..\..\..\libs\ble\libbtstack_central.a(ble_test.o)
 .bss           0x0000000000000000        0x0 ..\..\..\libs\ble\libbtstack_central.a(ble_test.o)
 .data          0x0000000000000000        0x0 ..\..\..\libs\ble\libbtstack_central.a(ble_sync.o)
 .bss           0x0000000000000000        0x0 ..\..\..\libs\ble\libbtstack_central.a(ble_sync.o)
 .data          0x0000000000000000        0x0 ..\..\..\libs\ble\libbtstack_central.a(ble_scan.o)
 .bss           0x0000000000000000        0x0 ..\..\..\libs\ble\libbtstack_central.a(ble_scan.o)
 .com_rodata.bb.tbl
                0x0000000000000000        0x7 ..\..\..\libs\ble\libbtstack_central.a(ble_scan.o)
 .data          0x0000000000000000        0x0 ..\..\..\libs\ble\libbtstack_central.a(ble_init.o)
 .bss           0x0000000000000000        0x0 ..\..\..\libs\ble\libbtstack_central.a(ble_init.o)
 .com_rodata.bb.tbl
                0x0000000000000000        0x8 ..\..\..\libs\ble\libbtstack_central.a(ble_init.o)
 .data          0x0000000000000000        0x0 ..\..\..\libs\ble\libbtstack_central.a(ble_hal.o)
 .bss           0x0000000000000000        0x0 ..\..\..\libs\ble\libbtstack_central.a(ble_hal.o)
 .text          0x0000000000000000        0x0 ..\..\..\libs\ble\libbtstack_central.a(periph.o)
 .data          0x0000000000000000        0x0 ..\..\..\libs\ble\libbtstack_central.a(periph.o)
 .bss           0x0000000000000000        0x0 ..\..\..\libs\ble\libbtstack_central.a(periph.o)
 .text.huart    0x0000000000000000        0x4 ..\..\..\libs\ble\libbtstack_central.a(periph.o)
 .com_text.huart
                0x0000000000000000       0x10 ..\..\..\libs\ble\libbtstack_central.a(periph.o)
 .comment       0x0000000000000000       0x13 ..\..\..\libs\ble\libbtstack_central.a(periph.o)
 .riscv.attributes
                0x0000000000000000       0x32 ..\..\..\libs\ble\libbtstack_central.a(periph.o)
 .text          0x0000000000000000        0x0 ..\..\..\libs\ble\libbtstack_central.a(l2cap_signaling.o)
 .data          0x0000000000000000        0x0 ..\..\..\libs\ble\libbtstack_central.a(l2cap_signaling.o)
 .bss           0x0000000000000000        0x0 ..\..\..\libs\ble\libbtstack_central.a(l2cap_signaling.o)
 .text          0x0000000000000000        0x0 ..\..\..\libs\ble\libbtstack_central.a(btstack_memory_pool.o)
 .data          0x0000000000000000        0x0 ..\..\..\libs\ble\libbtstack_central.a(btstack_memory_pool.o)
 .bss           0x0000000000000000        0x0 ..\..\..\libs\ble\libbtstack_central.a(btstack_memory_pool.o)
 .text          0x0000000000000000        0x0 ..\..\..\libs\ble\libbtstack_central.a(patch_asm.o)
 .data          0x0000000000000000        0x0 ..\..\..\libs\ble\libbtstack_central.a(patch_asm.o)
 .bss           0x0000000000000000        0x0 ..\..\..\libs\ble\libbtstack_central.a(patch_asm.o)
 .text          0x0000000000000000        0x0 ..\..\..\libs\ble\libbtstack_central.a(platform.o)
 .data          0x0000000000000000        0x0 ..\..\..\libs\ble\libbtstack_central.a(platform.o)
 .bss           0x0000000000000000        0x0 ..\..\..\libs\ble\libbtstack_central.a(platform.o)
 .com_text.bb.dbg.bt21
                0x0000000000000000        0x4 ..\..\..\libs\ble\libbtstack_central.a(platform.o)
 .com_text.bb.utils.dummy
                0x0000000000000000        0x6 ..\..\..\libs\ble\libbtstack_central.a(platform.o)
 .data          0x0000000000000000        0x0 ..\..\..\libs\ble\libbtstack_central.a(vs_proc.o)
 .bss           0x0000000000000000        0x0 ..\..\..\libs\ble\libbtstack_central.a(vs_proc.o)
 .text          0x0000000000000000        0x0 ..\..\..\libs\ble\libbtstack_central.a(vs_fcc.o)
 .data          0x0000000000000000        0x0 ..\..\..\libs\ble\libbtstack_central.a(vs_fcc.o)
 .bss           0x0000000000000000        0x0 ..\..\..\libs\ble\libbtstack_central.a(vs_fcc.o)
 .data          0x0000000000000000        0x0 ..\..\..\libs\ble\libbtstack_central.a(scan_hook.o)
 .bss           0x0000000000000000        0x0 ..\..\..\libs\ble\libbtstack_central.a(scan_hook.o)
 .data          0x0000000000000000        0x0 ..\..\..\libs\ble\libbtstack_central.a(hct_msg.o)
 .bss           0x0000000000000000        0x0 ..\..\..\libs\ble\libbtstack_central.a(hct_msg.o)
 .data          0x0000000000000000        0x0 ..\..\..\libs\ble\libbtstack_central.a(mgr_test.o)
 .bss           0x0000000000000000        0x0 ..\..\..\libs\ble\libbtstack_central.a(mgr_test.o)
 .data          0x0000000000000000        0x0 ..\..\..\libs\ble\libbtstack_central.a(mgr_proc.o)
 .bss           0x0000000000000000        0x0 ..\..\..\libs\ble\libbtstack_central.a(mgr_proc.o)
 .data          0x0000000000000000        0x0 ..\..\..\libs\ble\libbtstack_central.a(mgr_init.o)
 .bss           0x0000000000000000        0x0 ..\..\..\libs\ble\libbtstack_central.a(mgr_init.o)
 .data          0x0000000000000000        0x0 ..\..\..\libs\ble\libbtstack_central.a(ll_version.o)
 .bss           0x0000000000000000        0x0 ..\..\..\libs\ble\libbtstack_central.a(ll_version.o)
 .data          0x0000000000000000        0x0 ..\..\..\libs\ble\libbtstack_central.a(ll_proc.o)
 .bss           0x0000000000000000        0x0 ..\..\..\libs\ble\libbtstack_central.a(ll_proc.o)
 .data          0x0000000000000000        0x0 ..\..\..\libs\ble\libbtstack_central.a(ll_phy_upd.o)
 .bss           0x0000000000000000        0x0 ..\..\..\libs\ble\libbtstack_central.a(ll_phy_upd.o)
 .data          0x0000000000000000        0x0 ..\..\..\libs\ble\libbtstack_central.a(ll_length.o)
 .bss           0x0000000000000000        0x0 ..\..\..\libs\ble\libbtstack_central.a(ll_length.o)
 .data          0x0000000000000000        0x0 ..\..\..\libs\ble\libbtstack_central.a(ll_feature.o)
 .bss           0x0000000000000000        0x0 ..\..\..\libs\ble\libbtstack_central.a(ll_feature.o)
 .data          0x0000000000000000        0x0 ..\..\..\libs\ble\libbtstack_central.a(ll_encrypt.o)
 .bss           0x0000000000000000        0x0 ..\..\..\libs\ble\libbtstack_central.a(ll_encrypt.o)
 .data          0x0000000000000000        0x0 ..\..\..\libs\ble\libbtstack_central.a(ll_disconnect.o)
 .bss           0x0000000000000000        0x0 ..\..\..\libs\ble\libbtstack_central.a(ll_disconnect.o)
 .data          0x0000000000000000        0x0 ..\..\..\libs\ble\libbtstack_central.a(ll_con_upd.o)
 .bss           0x0000000000000000        0x0 ..\..\..\libs\ble\libbtstack_central.a(ll_con_upd.o)
 .text          0x0000000000000000        0x0 ..\..\..\libs\usb\libusb.a(usb_comm.o)
 .data          0x0000000000000000        0x0 ..\..\..\libs\usb\libusb.a(usb_comm.o)
 .bss           0x0000000000000000        0x0 ..\..\..\libs\usb\libusb.a(usb_comm.o)
 .text.usb_sof_hook_register
                0x0000000000000000        0xa ..\..\..\libs\usb\libusb.a(usb_comm.o)
 .text.usb_suspend
                0x0000000000000000        0xe ..\..\..\libs\usb\libusb.a(usb_comm.o)
 .text.usb_device_resume
                0x0000000000000000       0x3e ..\..\..\libs\usb\libusb.a(usb_comm.o)
 .text          0x0000000000000000        0x0 ..\..\..\libs\usb\libusb.a(usb_detect.o)
 .data          0x0000000000000000        0x0 ..\..\..\libs\usb\libusb.a(usb_detect.o)
 .bss           0x0000000000000000        0x0 ..\..\..\libs\usb\libusb.a(usb_detect.o)
 .com_text.usb.dect.otg_host
                0x0000000000000000       0x14 ..\..\..\libs\usb\libusb.a(usb_detect.o)
 .com_text.usb.dect.host
                0x0000000000000000       0x12 ..\..\..\libs\usb\libusb.a(usb_detect.o)
 .com_text.usb.dect.proc
                0x0000000000000000       0xba ..\..\..\libs\usb\libusb.a(usb_detect.o)
 .text          0x0000000000000000        0x0 ..\..\..\libs\usb\libusb.a(usb_device_enum.o)
 .data          0x0000000000000000        0x0 ..\..\..\libs\usb\libusb.a(usb_device_enum.o)
 .bss           0x0000000000000000        0x0 ..\..\..\libs\usb\libusb.a(usb_device_enum.o)
 .text          0x0000000000000000        0x0 ..\..\..\libs\usb\libusb.a(usb_device_ep.o)
 .data          0x0000000000000000        0x0 ..\..\..\libs\usb\libusb.a(usb_device_ep.o)
 .text          0x0000000000000000        0x0 ..\..\..\libs\usb\libusb.a(usb_device_run_loop.o)
 .data          0x0000000000000000        0x0 ..\..\..\libs\usb\libusb.a(usb_device_run_loop.o)
 .bss           0x0000000000000000        0x0 ..\..\..\libs\usb\libusb.a(usb_device_run_loop.o)
 .text          0x0000000000000000        0x0 ..\..\..\libs\modules\notch_iir\libnotch_iir.a(notch_iir.o)
 .data          0x0000000000000000        0x0 ..\..\..\libs\modules\notch_iir\libnotch_iir.a(notch_iir.o)
 .bss           0x0000000000000000        0x0 ..\..\..\libs\modules\notch_iir\libnotch_iir.a(notch_iir.o)
 .notch_iir_text.process
                0x0000000000000000      0x13c ..\..\..\libs\modules\notch_iir\libnotch_iir.a(notch_iir.o)
 .text.eq.init  0x0000000000000000       0x8e ..\..\..\libs\modules\notch_iir\libnotch_iir.a(notch_iir.o)
 .text.notch_iir.init
                0x0000000000000000        0x2 ..\..\..\libs\modules\notch_iir\libnotch_iir.a(notch_iir.o)
 .com_rodata.notch_iir.data
                0x0000000000000000       0x1e ..\..\..\libs\modules\notch_iir\libnotch_iir.a(notch_iir.o)
 .notch_iir.info
                0x0000000000000000       0x24 ..\..\..\libs\modules\notch_iir\libnotch_iir.a(notch_iir.o)
 .comment       0x0000000000000000       0x12 ..\..\..\libs\modules\notch_iir\libnotch_iir.a(notch_iir.o)

Memory Configuration

Name             Origin             Length             Attributes
init             0x0000000010000000 0x0000000000000200
flash            0x0000000010000200 0x000000000001e000 xr
stack            0x0000000000010800 0x0000000000000400
sram             0x0000000000010c00 0x0000000000005400
pdn_comm         0x0000000000010c00 0x0000000000000400
*default*        0x0000000000000000 0xffffffffffffffff

Linker script and memory map

LOAD Output\obj\driver\driver_clk.o
LOAD Output\obj\driver\driver_gpio.o
LOAD Output\obj\driver\driver_hsuart.o
LOAD Output\obj\driver\driver_ledc.o
LOAD Output\obj\driver\driver_lowpwr.o
LOAD Output\obj\driver\driver_saradc.o
LOAD Output\obj\driver\driver_uart.o
LOAD Output\obj\driver\driver_wdt.o
LOAD Output\obj\modules\notch_iir\notch_iir.o
LOAD Output\obj\project\solution\ble_usb_dongle\app\func.o
LOAD Output\obj\project\solution\ble_usb_dongle\app\func_bt.o
LOAD Output\obj\project\solution\ble_usb_dongle\app\func_idle.o
LOAD Output\obj\project\solution\ble_usb_dongle\app\func_iodm.o
LOAD Output\obj\project\solution\ble_usb_dongle\app\func_le_bqb_rf.o
LOAD Output\obj\project\solution\ble_usb_dongle\app\func_le_fcc.o
LOAD Output\obj\project\solution\ble_usb_dongle\ble\ble_alarm.o
LOAD Output\obj\project\solution\ble_usb_dongle\ble\ble_app.o
LOAD Output\obj\project\solution\ble_usb_dongle\ble\ble_client.o
LOAD Output\obj\project\solution\ble_usb_dongle\ble\ble_init.o
LOAD Output\obj\project\solution\ble_usb_dongle\ble\ble_profile.o
LOAD Output\obj\project\solution\ble_usb_dongle\ble\ble_voice.o
LOAD Output\obj\project\solution\ble_usb_dongle\bsp\bsp_audio_dec.o
LOAD Output\obj\project\solution\ble_usb_dongle\bsp\bsp_huart.o
LOAD Output\obj\project\solution\ble_usb_dongle\bsp\bsp_huart_iodm.o
LOAD Output\obj\project\solution\ble_usb_dongle\bsp\bsp_io_key.o
LOAD Output\obj\project\solution\ble_usb_dongle\bsp\bsp_key.o
LOAD Output\obj\project\solution\ble_usb_dongle\bsp\bsp_param.o
LOAD Output\obj\project\solution\ble_usb_dongle\bsp\bsp_saradc_mic.o
LOAD Output\obj\project\solution\ble_usb_dongle\bsp\bsp_sys.o
LOAD Output\obj\project\solution\ble_usb_dongle\bsp\bsp_uart_debug.o
LOAD Output\obj\project\solution\ble_usb_dongle\main.o
LOAD Output\obj\project\solution\ble_usb_dongle\prod_test\iodm\prod_test_iodm.o
LOAD Output\obj\project\solution\ble_usb_dongle\prod_test\prod_test.o
LOAD Output\obj\project\solution\ble_usb_dongle\strong_ble.o
LOAD Output\obj\project\solution\ble_usb_dongle\strong_symbol.o
LOAD Output\obj\project\solution\ble_usb_dongle\usb\usb_audio.o
LOAD Output\obj\project\solution\ble_usb_dongle\usb\usb_audio_desc.o
LOAD Output\obj\project\solution\ble_usb_dongle\usb\usb_cdc.o
LOAD Output\obj\project\solution\ble_usb_dongle\usb\usb_cdc_desc.o
LOAD Output\obj\project\solution\ble_usb_dongle\usb\usb_com.o
LOAD Output\obj\project\solution\ble_usb_dongle\usb\usb_desc.o
LOAD Output\obj\project\solution\ble_usb_dongle\usb\usb_dev_enum.o
LOAD Output\obj\project\solution\ble_usb_dongle\usb\usb_hid.o
LOAD Output\obj\project\solution\ble_usb_dongle\usb\usb_hid_desc.o
LOAD Output\obj\project\solution\ble_usb_dongle\usb\usb_usr_cdc.o
LOAD Output\obj\project\solution\ble_usb_dongle\usb\usb_vendor.o
LOAD Output\obj\project\solution\ble_usb_dongle\usb\usb_vendor_desc.o
                0x000000000001e000                __max_flash_size = 0x1e000
                0x0000000010000000                __base = 0x10000000
                0x0000000000010600                __cache_stack_vma = 0x10600
                0x0000000000000200                __cache_stack_size = 0x200
                0x0000000000010800                __stack_vma = 0x10800
                0x0000000000000400                __stack_ram_size = 0x400
                0x0000000000010c00                __sram_vma = 0x10c00
                0x0000000000005400                __sram_ram_size = 0x5400
                0x0000000000014400                __comm_vma = __comm_start
                0x0000000000000400                __pdn_comm_ram_size = 0x400
                0x0000000000010c00                __pdn_comm_vma = __sram_vma

.init           0x0000000010000000       0x4e
 *(.reset)
 .reset         0x0000000010000000       0x4e ..\..\..\libs\cpu\libplatform.a(reset.o)
                0x0000000010000000                _start

.bss            0x0000000000010c00     0x3800
                0x0000000000010c00                __bss_start = .
 *(.btmem.bthw)
 .btmem.bthw    0x0000000000010c00      0x780 ..\..\..\libs\ble\libbtstack_central.a(bb.o)
                0x0000000000010c00                bthw_mem
 *(.btmem*)
 .btmem.alarm   0x0000000000011380       0x1c Output\obj\project\solution\ble_usb_dongle\ble\ble_alarm.o
                0x0000000000011380                alarm_pool
 .btmem.bb.env  0x000000000001139c       0x60 ..\..\..\libs\ble\libbtstack_central.a(bb_int.o)
                0x000000000001139c                bb_env
 .btmem.bb.timer
                0x00000000000113fc        0x8 ..\..\..\libs\ble\libbtstack_central.a(bb_alarm.o)
 .btmem.ble.con
                0x0000000000011404        0x8 ..\..\..\libs\ble\libbtstack_central.a(ble_con.o)
                0x0000000000011404                ble_con_env
 .btmem.ble.buf
                0x000000000001140c       0x30 ..\..\..\libs\ble\libbtstack_central.a(ble_buf.o)
 .btmem.bb.ble.tbl
                0x000000000001143c       0x10 ..\..\..\libs\ble\libbtstack_central.a(ble.o)
 .btmem.alloc.bb.buf
                0x000000000001144c      0x51c ..\..\..\libs\ble\libbtstack_central.a(bb.o)
 .btmem.bb.buf  0x0000000000011968      0x454 ..\..\..\libs\ble\libbtstack_central.a(bb.o)
 .btmem.bb.rf   0x0000000000011dbc        0x3 ..\..\..\libs\ble\libbtstack_central.a(bb.o)
                0x0000000000011dbc                rf_api
 *fill*         0x0000000000011dbf        0x1 
 .btmem.cache.stack.hci
                0x0000000000011dc0      0x10b ..\..\..\libs\ble\libbtstack_central.a(hci.o)
 *fill*         0x0000000000011ecb        0x1 
 .btmem.stack.hci_buf
                0x0000000000011ecc      0x1e8 ..\..\..\libs\ble\libbtstack_central.a(hci.o)
 .btmem.stack.util
                0x00000000000120b4       0x12 ..\..\..\libs\ble\libbtstack_central.a(btstack_util.o)
 *fill*         0x00000000000120c6        0x2 
 .btmem.stack   0x00000000000120c8       0x14 ..\..\..\libs\ble\libbtstack_central.a(btstack_run_loop.o)
 .btmem.hci.transport.h3
                0x00000000000120dc        0x4 ..\..\..\libs\ble\libbtstack_central.a(hci_transport_h3_controller.o)
                0x00000000000120dc                p_hci_transport
 .btmem.bb.buf  0x00000000000120e0       0x34 ..\..\..\libs\ble\libbtstack_central.a(nanos.o)
 .btmem.hct.env
                0x0000000000012114       0x40 ..\..\..\libs\ble\libbtstack_central.a(hct_proc.o)
 .btmem.bb.hci  0x0000000000012154        0x2 ..\..\..\libs\ble\libbtstack_central.a(hct.o)
                0x0000000000012154                hci_env
 *fill*         0x0000000000012156        0x2 
 .btmem.ble.lm  0x0000000000012158      0x154 ..\..\..\libs\ble\libbtstack_central.a(mgr.o)
                0x0000000000012158                mgr_env
 .btmem.ble.lc  0x00000000000122ac        0x8 ..\..\..\libs\ble\libbtstack_central.a(ll.o)
                0x00000000000122ac                ll_env
 .btmem.ble.test
                0x00000000000122b4        0x4 ..\..\..\libs\ble\libbtstack_central.a(ble_test.o)
 .btmem.ble.scan
                0x00000000000122b8        0x8 ..\..\..\libs\ble\libbtstack_central.a(ble_scan.o)
 .btmem.ble.init
                0x00000000000122c0        0x4 ..\..\..\libs\ble\libbtstack_central.a(ble_init.o)
 .btmem.ble.hal
                0x00000000000122c4      0x127 ..\..\..\libs\ble\libbtstack_central.a(ble_hal.o)
                0x00000000000122c4                ble_env
                0x00000000000123e0                ble_exp_sync_pos_tab
 *fill*         0x00000000000123eb        0x1 
 .btmem.bb.vs   0x00000000000123ec        0xd ..\..\..\libs\ble\libbtstack_central.a(vs_proc.o)
                0x00000000000123ec                vs_env
 *(.osmem*)
 *fill*         0x00000000000123f9        0x3 
 .osmem         0x00000000000123fc     0x1124 Output\obj\project\solution\ble_usb_dongle\strong_symbol.o
                0x00000000000123fc                mem_heap
 *(COMMON)
 COMMON         0x0000000000013520        0x4 Output\obj\project\solution\ble_usb_dongle\ble\ble_alarm.o
                0x0000000000013520                alarm_handle
 COMMON         0x0000000000013524       0x38 Output\obj\project\solution\ble_usb_dongle\bsp\bsp_sys.o
                0x0000000000013524                tmr5ms_cnt
                0x0000000000013528                xcfg_cb
 COMMON         0x000000000001355c       0x28 Output\obj\project\solution\ble_usb_dongle\usb\usb_com.o
                0x000000000001355c                ep_cb
                0x000000000001357c                usb_handler_cb
 COMMON         0x0000000000013584        0x3 Output\obj\project\solution\ble_usb_dongle\usb\usb_dev_enum.o
                0x0000000000013584                ude_cb
 *(.bss*)
 *fill*         0x0000000000013587        0x1 
 .bss           0x0000000000013588       0x10 Output\obj\project\solution\ble_usb_dongle\ble\ble_client.o
 .bss.key.flag  0x0000000000013598        0x1 Output\obj\project\solution\ble_usb_dongle\bsp\bsp_key.o
 *fill*         0x0000000000013599        0x3 
 .bss           0x000000000001359c      0x130 ..\..\..\libs\cpu\libplatform.a(cm.o)
                0x000000000001359c                cm
 .bss           0x00000000000136cc       0x18 ..\..\..\libs\cpu\libplatform.a(main.o)
                0x00000000000136cc                sys
 .bss.irq_tbl   0x00000000000136e4       0x88 ..\..\..\libs\cpu\libplatform.a(interrupt.o)
 .bss.sys.timer
                0x000000000001376c        0x8 ..\..\..\libs\cpu\libplatform.a(interrupt.o)
 .bss.btstack   0x0000000000013774        0x4 ..\..\..\libs\cpu\libplatform.a(startup.o)
                0x0000000000013774                pmq_btstack
 .bss.driver    0x0000000000013778        0x4 ..\..\..\libs\cpu\libplatform.a(startup.o)
                0x0000000000013778                pmq_driver
 .bss.bb.timer  0x000000000001377c        0x1 ..\..\..\libs\ble\libbtstack_central.a(bb_alarm.o)
 *fill*         0x000000000001377d        0x3 
 .bss           0x0000000000013780       0x30 ..\..\..\libs\ble\libbtstack_central.a(sm.o)
 .bss           0x00000000000137b0        0xc ..\..\..\libs\ble\libbtstack_central.a(aes.o)
                0x00000000000137b0                aes_env
 .bss           0x00000000000137bc       0x50 ..\..\..\libs\ble\libbtstack_central.a(ble_buf.o)
 .bss.stack.l2cap
                0x000000000001380c       0x3c ..\..\..\libs\ble\libbtstack_central.a(l2cap.o)
 .bss           0x0000000000013848       0x6c ..\..\..\libs\ble\libbtstack_central.a(btstack_memory.o)
 .bss           0x00000000000138b4      0x128 ..\..\..\libs\ble\libbtstack_central.a(bb_sche.o)
 .bss.hct.env   0x00000000000139dc       0x18 ..\..\..\libs\ble\libbtstack_central.a(hct_proc.o)
 .bss           0x00000000000139f4       0x28 ..\..\..\libs\usb\libusb.a(usb_device_ep.o)
                0x00000000000139f4                eps
 *(.sbss*)
 .sbss          0x0000000000013a1c        0x4 Output\obj\project\solution\ble_usb_dongle\ble\ble_client.o
 .sbss          0x0000000000013a20        0x4 Output\obj\project\solution\ble_usb_dongle\ble\ble_init.o
                0x0000000000013a20                cfg_bt_work_mode
 .sbss          0x0000000000013a24        0x8 ..\..\..\libs\cpu\libplatform.a(os_flash.o)
                0x0000000000013a24                spi_baud_w
                0x0000000000013a28                spi_baud_r
 .sbss          0x0000000000013a2c       0x10 ..\..\..\libs\cpu\libplatform.a(startup.o)
                0x0000000000013a2c                soft_timer_isr_en
                0x0000000000013a30                pmutex_clk
                0x0000000000013a34                pmutex_cm
                0x0000000000013a38                psem_btstack
 .sbss          0x0000000000013a3c        0x8 ..\..\..\libs\cpu\libplatform.a(thread_driver.o)
                0x0000000000013a3c                thread_driver_vs_enter_func
                0x0000000000013a40                thread_driver_usb_enter_func
 .sbss          0x0000000000013a44        0x8 ..\..\..\libs\cpu\libplatform.a(key.o)
 *fill*         0x0000000000013a4c        0x4 
 .sbss          0x0000000000013a50        0x8 ..\..\..\libs\cpu\libplatform.a(lock.o)
 .sbss          0x0000000000013a58        0x8 ..\..\..\libs\cpu\libplatform.a(voltage_trim.o)
                0x0000000000013a58                sys_trim
 .sbss          0x0000000000013a60        0x1 ..\..\..\libs\cpu\libplatform.a(freq_det.o)
                0x0000000000013a60                freq_det_kick
 *fill*         0x0000000000013a61        0x3 
 .sbss          0x0000000000013a64       0x11 ..\..\..\libs\ble\libbtstack_central.a(sm.o)
 *fill*         0x0000000000013a75        0x3 
 .sbss          0x0000000000013a78        0x4 ..\..\..\libs\ble\libbtstack_central.a(gatt_client.o)
 .sbss          0x0000000000013a7c        0x4 ..\..\..\libs\ble\libbtstack_central.a(att_server.o)
 .sbss          0x0000000000013a80        0xc ..\..\..\libs\ble\libbtstack_central.a(att_dispatch.o)
 .sbss          0x0000000000013a8c       0x10 ..\..\..\libs\ble\libbtstack_central.a(att_db.o)
 .sbss          0x0000000000013a9c        0x2 ..\..\..\libs\ble\libbtstack_central.a(btstack_api.o)
                0x0000000000013a9c                btstack_cb
 .sbss          0x0000000000013a9e        0x1 ..\..\..\libs\ble\libbtstack_central.a(ble_api.o)
 *fill*         0x0000000000013a9f        0x1 
 .sbss          0x0000000000013aa0        0x8 ..\..\..\libs\ble\libbtstack_central.a(ble_buf.o)
 .sbss          0x0000000000013aa8        0x1 ..\..\..\libs\ble\libbtstack_central.a(bb.o)
 *fill*         0x0000000000013aa9        0x1 
 .sbss          0x0000000000013aaa        0x2 ..\..\..\libs\ble\libbtstack_central.a(l2cap.o)
 .sbss          0x0000000000013aac        0x4 ..\..\..\libs\ble\libbtstack_central.a(btstack_memory.o)
 .sbss          0x0000000000013ab0        0xc ..\..\..\libs\ble\libbtstack_central.a(btstack_main.o)
 .sbss          0x0000000000013abc        0x8 ..\..\..\libs\ble\libbtstack_central.a(bb_sche.o)
                0x0000000000013abc                ss_params
 .sbss          0x0000000000013ac4        0x2 ..\..\..\libs\ble\libbtstack_central.a(hct_proc.o)
 *fill*         0x0000000000013ac6        0x2 
 .sbss          0x0000000000013ac8        0x1 ..\..\..\libs\ble\libbtstack_central.a(mgr_proc.o)
 *fill*         0x0000000000013ac9        0x3 
 .sbss          0x0000000000013acc        0x2 ..\..\..\libs\ble\libbtstack_central.a(ll_proc.o)
 *fill*         0x0000000000013ace        0x2 
 .sbss          0x0000000000013ad0        0x8 ..\..\..\libs\usb\libusb.a(usb_comm.o)
                0x0000000000013ad0                p_usb_sof_hook
                0x0000000000013ad4                p_usb_handler_cb
 *(.buf*)
 .buf.func_cb   0x0000000000013ad8        0x2 Output\obj\project\solution\ble_usb_dongle\app\func.o
                0x0000000000013ad8                func_cb
 *fill*         0x0000000000013ada        0x2 
 .buf.bsp.sys_cb
                0x0000000000013adc        0xc Output\obj\project\solution\ble_usb_dongle\bsp\bsp_sys.o
                0x0000000000013adc                sys_cb
 .buf.device.cb
                0x0000000000013ae8        0xa ..\..\..\libs\cpu\libplatform.a(device.o)
                0x0000000000013ae8                dev_cb
 *fill*         0x0000000000013af2        0x2 
 .buf.key.cb    0x0000000000013af4       0x10 ..\..\..\libs\cpu\libplatform.a(key.o)
 .buf.key.sta   0x0000000000013b04        0x6 ..\..\..\libs\cpu\libplatform.a(key.o)
 *fill*         0x0000000000013b0a        0x2 
 .buf.usbchk.cb
                0x0000000000013b0c        0x2 ..\..\..\libs\usb\libusb.a(usb_detect.o)
                0x0000000000013b0c                usbchk_cb
 *fill*         0x0000000000013b0e        0x2 
 .buf.usb.ctrl  0x0000000000013b10       0x44 ..\..\..\libs\usb\libusb.a(usb_device_enum.o)
                0x0000000000013b10                ep0_buf
 *(.ble_cache*)
 .ble_cache.att
                0x0000000000013b54       0x8c Output\obj\project\solution\ble_usb_dongle\ble\ble_init.o
                0x0000000000013b54                ble_tx_pool
 .ble_cache.att
                0x0000000000013be0       0x10 ..\..\..\libs\ble\libbtstack_central.a(txpkt.o)
                0x0000000000013be0                txpkt_cb
 .ble_cache.sm  0x0000000000013bf0        0x8 ..\..\..\libs\ble\libbtstack_central.a(sm.o)
 .ble_cache.sm.addr
                0x0000000000013bf8        0x6 ..\..\..\libs\ble\libbtstack_central.a(sm.o)
 *fill*         0x0000000000013bfe        0x2 
 .ble_cache.sm.aes
                0x0000000000013c00        0x8 ..\..\..\libs\ble\libbtstack_central.a(sm.o)
 .ble_cache.sm.auth
                0x0000000000013c08        0x1 ..\..\..\libs\ble\libbtstack_central.a(sm.o)
 *fill*         0x0000000000013c09        0x3 
 .ble_cache.sm.cmac
                0x0000000000013c0c       0x45 ..\..\..\libs\ble\libbtstack_central.a(sm.o)
 *fill*         0x0000000000013c51        0x3 
 .ble_cache.sm.dhk
                0x0000000000013c54       0x10 ..\..\..\libs\ble\libbtstack_central.a(sm.o)
 .ble_cache.sm.io
                0x0000000000013c64        0x1 ..\..\..\libs\ble\libbtstack_central.a(sm.o)
 *fill*         0x0000000000013c65        0x3 
 .ble_cache.sm.irk
                0x0000000000013c68       0x10 ..\..\..\libs\ble\libbtstack_central.a(sm.o)
 .ble_cache.sm.rand
                0x0000000000013c78        0x4 ..\..\..\libs\ble\libbtstack_central.a(sm.o)
 .ble_cache.sm.req
                0x0000000000013c7c        0x1 ..\..\..\libs\ble\libbtstack_central.a(sm.o)
 *fill*         0x0000000000013c7d        0x3 
 .ble_cache.sm.resolution
                0x0000000000013c80       0x18 ..\..\..\libs\ble\libbtstack_central.a(sm.o)
 .ble_cache.sm.setup
                0x0000000000013c98      0x100 ..\..\..\libs\ble\libbtstack_central.a(sm.o)
 .ble_cache.sm.sta
                0x0000000000013d98        0x8 ..\..\..\libs\ble\libbtstack_central.a(sm.o)
 *(.ble_buf*)
 .ble_buf.var   0x0000000000013da0        0x2 Output\obj\project\solution\ble_usb_dongle\ble\ble_app.o
                0x0000000000013da0                ble_cb
 *fill*         0x0000000000013da2        0x2 
 .ble_buf.svc_info
                0x0000000000013da4      0x27c Output\obj\project\solution\ble_usb_dongle\ble\ble_client.o
 .ble_buf.att   0x0000000000014020       0x28 ..\..\..\libs\ble\libbtstack_central.a(gatt_client.o)
 *(.codec*)
 *(.fot_data.*)
 *(.usb_buf*)
 .usb_buf.hid   0x0000000000014048       0x8c Output\obj\project\solution\ble_usb_dongle\usb\usb_cdc.o
                0x0000000000014048                ep_intr_buf_in
                0x0000000000014050                ep_bulk_buf_in
                0x0000000000014090                ep_bulk_buf_out
 .usb_buf.usb   0x00000000000140d4       0x54 Output\obj\project\solution\ble_usb_dongle\usb\usb_cdc.o
                0x00000000000140d4                cdc_cb
                0x00000000000140e0                ep_intr_in
                0x00000000000140f8                ep_bulk_in
                0x0000000000014110                ep_bulk_out
 .usb_buf.desc  0x0000000000014128       0x40 Output\obj\project\solution\ble_usb_dongle\usb\usb_desc.o
                0x0000000000014128                usb_str_desc_buf
 .usb_buf.device.desc.buf
                0x0000000000014168      0x100 Output\obj\project\solution\ble_usb_dongle\usb\usb_dev_enum.o
                0x0000000000014168                cfg_desc_buf
 .usb_buf.hid   0x0000000000014268       0x84 Output\obj\project\solution\ble_usb_dongle\usb\usb_hid.o
                0x0000000000014268                ep_hid_buf_in
                0x000000000001426c                ep_hid_buf_out
 .usb_buf.usb   0x00000000000142ec       0x3c Output\obj\project\solution\ble_usb_dongle\usb\usb_hid.o
                0x00000000000142ec                udh_0
                0x00000000000142f8                ep_hid_tx
                0x0000000000014310                ep_hid_rx
 .usb_buf.usb   0x0000000000014328       0x24 ..\..\..\libs\usb\libusb.a(usb_device_enum.o)
                0x0000000000014328                ude_0
 *(.dec*)
 *(.sbc*)
 *(.notch_iir*)
 *(.prod_test*)
 *(.fcc.huart_buf)
 *(.hci.h3*)
                0x0000000000014400                . = ALIGN (0x100)
 *fill*         0x000000000001434c       0xb4 
                0x0000000000014400                __bss_end = .
                0x0000000000003800                __bss_size = (__bss_end - __bss_start)

.comm           0x0000000000014400     0x1000 load address 0x0000000010000200
                0x0000000000014400                __comm_start = .
 *(.vector)
 .vector        0x0000000000014400       0xc8 ..\..\..\libs\cpu\libplatform.a(reset.o)
                0x00000000000144a0                _exception_isr
                0x00000000000144a2                nop_isr
 *(.com_text*)
 .com_text.timer
                0x00000000000144c8        0x2 Output\obj\project\solution\ble_usb_dongle\ble\ble_alarm.o
 .com_text.key.scan
                0x00000000000144ca       0x10 Output\obj\project\solution\ble_usb_dongle\bsp\bsp_io_key.o
                0x00000000000144ca                bsp_get_io_key_id
 .com_text.key.scan
                0x00000000000144da       0x42 Output\obj\project\solution\ble_usb_dongle\bsp\bsp_key.o
                0x00000000000144da                bsp_key_scan
 .com_text.dev.detect
                0x000000000001451c       0x20 Output\obj\project\solution\ble_usb_dongle\bsp\bsp_sys.o
                0x000000000001451c                usb_detect
 .com_text.timer
                0x000000000001453c       0x46 Output\obj\project\solution\ble_usb_dongle\bsp\bsp_sys.o
                0x000000000001453c                usr_tmr5ms_callback
 .com_text.ble.phy
                0x0000000000014582        0x4 Output\obj\project\solution\ble_usb_dongle\strong_ble.o
                0x0000000000014582                ble_phy_2M_enable
 .com_text.spiflash
                0x0000000000014586       0x32 Output\obj\project\solution\ble_usb_dongle\strong_symbol.o
                0x0000000000014586                os_spiflash_addr_check
 .com_text.thread.driver
                0x00000000000145b8       0x1a Output\obj\project\solution\ble_usb_dongle\usb\usb_com.o
                0x00000000000145b8                thread_driver_event_handle
 .com_text.usb.hid
                0x00000000000145d2       0x28 Output\obj\project\solution\ble_usb_dongle\usb\usb_hid.o
                0x00000000000145d2                usb_hid_send_prepare
 .com_text.usb.hid.in
                0x00000000000145fa       0x1c Output\obj\project\solution\ble_usb_dongle\usb\usb_usr_cdc.o
 .com_text.spiflash
                0x0000000000014616       0x5e ..\..\..\libs\cpu\libplatform.a(os_flash.o)
                0x000000000001461a                os_spiflash_program_do
                0x000000000001462c                os_spiflash_program
                0x000000000001464e                os_spiflash_erase_do
                0x0000000000014660                os_spiflash_erase
 .com_text.device
                0x0000000000014674       0xf2 ..\..\..\libs\cpu\libplatform.a(device.o)
                0x0000000000014674                dev_is_online
                0x0000000000014682                dev_online_filter
                0x00000000000146fa                dev_offline_filter
 .com_text.delay
                0x0000000000014766       0x54 ..\..\..\libs\cpu\libplatform.a(main.o)
                0x0000000000014766                delay_5ms
                0x0000000000014780                delay_ms
                0x0000000000014798                delay_us
                0x00000000000147b0                delay
 .com_text.irq  0x00000000000147ba       0x72 ..\..\..\libs\cpu\libplatform.a(interrupt.o)
                0x00000000000147ba                tick0_isr
                0x0000000000014812                tick_get
                0x000000000001481a                tick_check_expire
 .com_text.thread.driver.usb
                0x000000000001482c       0x42 ..\..\..\libs\cpu\libplatform.a(thread_driver.o)
                0x000000000001482c                thread_driver_usb_msg_post
 .com_text.thread.driver.vs
                0x000000000001486e       0x42 ..\..\..\libs\cpu\libplatform.a(thread_driver.o)
                0x000000000001486e                thread_driver_user_msg_post
 .com_text.thread.driver.enter
                0x00000000000148b0       0x52 ..\..\..\libs\cpu\libplatform.a(thread_driver.o)
                0x00000000000148b0                thread_driver_entry
 .com_text.trim.lvd_set
                0x0000000000014902       0x3e ..\..\..\libs\cpu\libplatform.a(pmu.o)
                0x0000000000014902                pmu_set_lvd
                0x000000000001492e                pmu_set_vbg
 .com_text.exception
                0x0000000000014940        0xa ..\..\..\libs\cpu\libplatform.a(debug.o)
                0x0000000000014940                exception_isr
 .com_text.exception.hook
                0x000000000001494a        0x4 ..\..\..\libs\cpu\libplatform.a(debug.o)
                0x000000000001494a                sys_error_hook
 .com_text.key_return
                0x000000000001494e       0x30 ..\..\..\libs\cpu\libplatform.a(key.o)
                0x000000000001494e                check_key_return
 .com_text.bsp.key
                0x000000000001497e       0x16 ..\..\..\libs\cpu\libplatform.a(key.o)
                0x000000000001497e                key_multi_press_process
                0x0000000000014988                key_status_process
 .com_text.sys  0x0000000000014994        0x2 ..\..\..\libs\cpu\libplatform.a(s_sys.o)
                0x0000000000014994                dummy_func
 .com_text.timer
                0x0000000000014996        0x4 ..\..\..\libs\cpu\libplatform.a(weak_symbol.o)
                0x0000000000014998                usr_tmr1ms_isr_callback
 .com_text.stack.api
                0x000000000001499a       0x24 ..\..\..\libs\cpu\libplatform.a(bt.o)
                0x000000000001499a                ble_send_msg_do
 .com_text.stack.thread
                0x00000000000149be       0x32 ..\..\..\libs\cpu\libplatform.a(bt.o)
                0x00000000000149be                thread_btstack_pend
                0x00000000000149e0                thread_btstack_post
 .com_text.stack.run_loop
                0x00000000000149f0       0x38 ..\..\..\libs\cpu\libplatform.a(bt.o)
                0x00000000000149f0                thread_btstack_entry
 .com_text.bb.isr
                0x0000000000014a28       0x7c ..\..\..\libs\ble\libbtstack_central.a(bb_int.o)
                0x0000000000014a5a                bb_isr
                0x0000000000014a98                bb_hal_isr
 .com_text.bb.isr.timer
                0x0000000000014aa4       0x50 ..\..\..\libs\ble\libbtstack_central.a(bb_alarm.o)
 .com_text.bb.timer.check
                0x0000000000014af4       0x1e ..\..\..\libs\ble\libbtstack_central.a(bb_alarm.o)
                0x0000000000014af4                bb_timer_queue_check
 .com_text.bb.timer.push
                0x0000000000014b12       0x64 ..\..\..\libs\ble\libbtstack_central.a(bb_alarm.o)
                0x0000000000014b12                bb_timer_queue_release
                0x0000000000014b40                bb_timer_queue_free
 .com_text.stack.api
                0x0000000000014b76       0x62 ..\..\..\libs\ble\libbtstack_central.a(btstack_api.o)
                0x0000000000014b76                ble_get_status
                0x0000000000014b82                btstack_message
 .com_text.txpkt.list.push_back
                0x0000000000014bd8        0xa ..\..\..\libs\ble\libbtstack_central.a(txpkt.o)
                0x0000000000014bd8                txpkt_list_push_back
 .com_text.bb.isr.rssi
                0x0000000000014be2        0xa ..\..\..\libs\ble\libbtstack_central.a(rf.o)
                0x0000000000014be2                rf_rssi_calc_dbm
 .com_text.bb.rf
                0x0000000000014bec       0x28 ..\..\..\libs\ble\libbtstack_central.a(rf.o)
                0x0000000000014bec                rf_hal_init
 .com_text.ble.isr.con.end
                0x0000000000014c14       0x9a ..\..\..\libs\ble\libbtstack_central.a(ble_con.o)
                0x0000000000014c14                ble_con_rx_end
 .com_text.ble.isr.con.rx_desc
                0x0000000000014cae        0x2 ..\..\..\libs\ble\libbtstack_central.a(ble_con.o)
                0x0000000000014cae                ble_con_rx_desc
 .com_text.bb.buf
                0x0000000000014cb0       0xbc ..\..\..\libs\ble\libbtstack_central.a(ble_buf.o)
                0x0000000000014cb0                ble_buf_acl_tx_alloc
                0x0000000000014cfa                ble_buf_acl_tx_free_do
                0x0000000000014d0c                ble_buf_acl_tx_free
 .com_text.bb.patch
                0x0000000000014d6c       0x24 ..\..\..\libs\ble\libbtstack_central.a(ble_buf.o)
                0x0000000000014d6c                bb_patch1
                0x0000000000014d6e                bb_patch3
 .com_text.bb.isr
                0x0000000000014d90       0x34 ..\..\..\libs\ble\libbtstack_central.a(ble.o)
                0x0000000000014d90                ble_isr
 .com_text.bb.run_loop
                0x0000000000014dc4       0x30 ..\..\..\libs\ble\libbtstack_central.a(bb.o)
                0x0000000000014dc4                bb_run_loop
 .com_text.dummy
                0x0000000000014df4        0x6 ..\..\..\libs\ble\libbtstack_central.a(platform.o)
                0x0000000000014df4                dummy_void
                0x0000000000014df6                dummy_false
 .com_text.stack.hci.conn
                0x0000000000014dfa        0x8 ..\..\..\libs\ble\libbtstack_central.a(hci.o)
                0x0000000000014dfa                hci_get_connections
 .com_text.stack.linked_list
                0x0000000000014e02       0x10 ..\..\..\libs\ble\libbtstack_central.a(hci.o)
                0x0000000000014e02                hci_connections_get_iterator
 .com_text.stack.hci
                0x0000000000014e12       0x3a ..\..\..\libs\ble\libbtstack_central.a(hci.o)
                0x0000000000014e12                hci_connection_for_handle
                0x0000000000014e34                hci_att_connection_for_handle
                0x0000000000014e44                hci_get_outgoing_packet_buffer
 .com_text.stack.run_loop
                0x0000000000014e4c       0x74 ..\..\..\libs\ble\libbtstack_central.a(btstack_run_loop.o)
                0x0000000000014e4c                btstack_cmp_abs_tick
                0x0000000000014e52                btstack_run_loop_execute_once
 .com_text.ret.stack.thread
                0x0000000000014ec0        0xa ..\..\..\libs\ble\libbtstack_central.a(btstack_run_loop.o)
                0x0000000000014ec0                btstack_run_loop_embedded_trigger
 .com_text.stack.ticks
                0x0000000000014eca       0x1e ..\..\..\libs\ble\libbtstack_central.a(btstack_run_loop.o)
 .com_text.bb.nanos.trigger
                0x0000000000014ee8        0x2 ..\..\..\libs\ble\libbtstack_central.a(btstack_run_loop.o)
                0x0000000000014ee8                thread_nanos_task_trigger
 .com_text.hci  0x0000000000014eea        0x4 ..\..\..\libs\ble\libbtstack_central.a(hci_transport_h3_controller.o)
                0x0000000000014eea                hci_is_sleep
 .com_text.stack.handler
                0x0000000000014eee       0x1e ..\..\..\libs\ble\libbtstack_central.a(btstack_main.o)
 .com_text.stack.ticks
                0x0000000000014f0c        0xa ..\..\..\libs\ble\libbtstack_central.a(btstack_hal.o)
                0x0000000000014f0e                sys_tick_handler
 .com_text.isr  0x0000000000014f16       0x24 ..\..\..\libs\ble\libbtstack_central.a(btstack_hal.o)
                0x0000000000014f16                bt_timer_isr
 .com_text.md.nanos
                0x0000000000014f3a       0x14 ..\..\..\libs\ble\libbtstack_central.a(nanos.o)
                0x0000000000014f3a                nanos_event_set
 .com_text.nanos.malloc
                0x0000000000014f4e        0xc ..\..\..\libs\ble\libbtstack_central.a(nanos.o)
                0x0000000000014f4e                nanos_sys_malloc
 .com_text.nanos.free
                0x0000000000014f5a        0xa ..\..\..\libs\ble\libbtstack_central.a(nanos.o)
                0x0000000000014f5a                nanos_sys_free
 .com_text.bb.frag
                0x0000000000014f64       0x2a ..\..\..\libs\ble\libbtstack_central.a(bb_sche.o)
 .com_text.bb.prog
                0x0000000000014f8e       0x30 ..\..\..\libs\ble\libbtstack_central.a(bb_sche.o)
 .com_text.ble.isr.con.end
                0x0000000000014fbe       0x18 ..\..\..\libs\ble\libbtstack_central.a(patch.o)
                0x0000000000014fbe                bb_patch2_do
 .com_text.bb.isr
                0x0000000000014fd6        0xe ..\..\..\libs\ble\libbtstack_central.a(bb_clk.o)
                0x0000000000014fd6                bb_lpcycles_2_hus_hook
 .com_text.ble.isr
                0x0000000000014fe4       0xac ..\..\..\libs\ble\libbtstack_central.a(ble_hook.o)
                0x0000000000014fe4                ble_isr_hook
 .com_text.bb.buf
                0x0000000000015090       0x24 ..\..\..\libs\ble\libbtstack_central.a(hct_proc.o)
                0x0000000000015090                hct_block_is_reserved
 .com_text.bb.patch
                0x00000000000150b4       0x1a ..\..\..\libs\ble\libbtstack_central.a(patch_asm.o)
                0x00000000000150b4                bb_patch2
 .com_text.bb.patch.trc
                0x00000000000150ce       0x1e ..\..\..\libs\ble\libbtstack_central.a(patch_asm.o)
                0x00000000000150ce                ll_cntl_tx_check_fix_cb
 .com_text.bb.dbg.ble
                0x00000000000150ec        0x4 ..\..\..\libs\ble\libbtstack_central.a(platform.o)
                0x00000000000150ec                bb_ll_tx_cb
                0x00000000000150ee                bb_ll_rx_cb
 .com_text.thread.driver.usb
                0x00000000000150f0       0x54 ..\..\..\libs\usb\libusb.a(usb_comm.o)
                0x00000000000150f0                thread_driver_usb_event_callback
 .com_text.usbdev.com
                0x0000000000015144       0x20 ..\..\..\libs\usb\libusb.a(usb_comm.o)
                0x0000000000015144                usb_interrupt_disable
 .com_text.irq  0x0000000000015164        0xc ..\..\..\libs\usb\libusb.a(usb_comm.o)
                0x0000000000015164                usb_isr
 .com_text.usb.dect.otg_dev
                0x0000000000015170       0x12 ..\..\..\libs\usb\libusb.a(usb_detect.o)
                0x0000000000015170                usbchk_switch_otg_device
 .com_text.usb.dect.dev
                0x0000000000015182       0x12 ..\..\..\libs\usb\libusb.a(usb_detect.o)
                0x0000000000015182                usbchk_only_device
 .com_text.usb.dect.pc
                0x0000000000015194       0x10 ..\..\..\libs\usb\libusb.a(usb_detect.o)
                0x0000000000015194                usbchk_host_connect
 .com_text.irq  0x00000000000151a4        0x8 ..\..\..\libs\usb\libusb.a(usb_device_run_loop.o)
                0x00000000000151a4                usb_dev_isr
 *(.com_rodata*)
 .com_rodata.key
                0x00000000000151ac        0x6 Output\obj\project\solution\ble_usb_dongle\bsp\bsp_key.o
                0x00000000000151ac                key_param
                0x00000000000151b0                allow_multiple_key_table
 *fill*         0x00000000000151b2        0x2 
 .com_rodata.multi.key
                0x00000000000151b4        0x8 ..\..\..\libs\cpu\libplatform.a(key.o)
                0x00000000000151b4                key_multi_tbl
 .com_rodata.bb.err
                0x00000000000151bc        0xd ..\..\..\libs\ble\libbtstack_central.a(bb_int.o)
                0x00000000000151bc                str_bb_err
 *fill*         0x00000000000151c9        0x3 
 .com_rodata.bb.tbl
                0x00000000000151cc       0x18 ..\..\..\libs\ble\libbtstack_central.a(ble_buf.o)
 .com_rodata.bb.err
                0x00000000000151e4        0xf ..\..\..\libs\ble\libbtstack_central.a(ble.o)
                0x00000000000151e4                str_ble_err
 *fill*         0x00000000000151f3        0x1 
 .com_rodata.bb.tbl
                0x00000000000151f4       0x10 ..\..\..\libs\ble\libbtstack_central.a(bb_utils.o)
                0x00000000000151f4                bb_sca2ppm
 .com_rodata.bb.tbl.bits
                0x0000000000015204       0x10 ..\..\..\libs\ble\libbtstack_central.a(bb_utils.o)
                0x0000000000015204                one_bits
 .com_rodata.bb.tbl.i2m
                0x0000000000015214        0x4 ..\..\..\libs\ble\libbtstack_central.a(bb_utils.o)
                0x0000000000015214                bb_phy_value_to_mask
 .com_rodata.bb.tbl.phy.i2r
                0x0000000000015218        0x4 ..\..\..\libs\ble\libbtstack_central.a(bb_utils.o)
                0x0000000000015218                bb_phy_to_rate
 .com_rodata.bb.tbl.phy.m2i
                0x000000000001521c        0x5 ..\..\..\libs\ble\libbtstack_central.a(bb_utils.o)
                0x000000000001521c                bb_phy_mask_to_value
 *fill*         0x0000000000015221        0x3 
 .com_rodata.bb.tbl.phy.r2i
                0x0000000000015224        0x5 ..\..\..\libs\ble\libbtstack_central.a(bb_utils.o)
                0x0000000000015224                bb_rate_to_phy
 *fill*         0x0000000000015229        0x3 
 .com_rodata.bb.tbl
                0x000000000001522c       0x16 ..\..\..\libs\ble\libbtstack_central.a(bb.o)
                0x000000000001522c                bb_priority
 *fill*         0x0000000000015242        0x2 
 .com_rodata.bb.tbl
                0x0000000000015244        0xc ..\..\..\libs\ble\libbtstack_central.a(hct_proc.o)
 .com_rodata.bb.tbl
                0x0000000000015250        0xc ..\..\..\libs\ble\libbtstack_central.a(vs_proc.o)
                0x0000000000015250                vs_msg_env
 .com_rodata.bb.tbl
                0x000000000001525c        0xc ..\..\..\libs\ble\libbtstack_central.a(mgr_proc.o)
                0x000000000001525c                mgr_msg_env
 .com_rodata.bb.tbl
                0x0000000000015268        0xc ..\..\..\libs\ble\libbtstack_central.a(ll_proc.o)
                0x0000000000015268                ll_msg_env
 .com_rodata.epsize.table
                0x0000000000015274        0x4 ..\..\..\libs\usb\libusb.a(usb_device_ep.o)
                0x0000000000015274                epsize_tbl
 *debug.o(.rodata*)
 *(.com_periph.*)
 .com_periph.wk0.read_bit
                0x0000000000015278        0xa Output\obj\driver\driver_gpio.o
                0x0000000000015278                wko_io_read_bit
 *(.data*)
 *fill*         0x0000000000015282        0x2 
 .data          0x0000000000015284        0xc Output\obj\project\solution\ble_usb_dongle\usb\usb_usr_cdc.o
                0x0000000000015284                usb_usr_cdc_cb
 .data          0x0000000000015290       0x28 ..\..\..\libs\ble\libbtstack_central.a(rf_mate.o)
                0x000000000001529c                rf_init_cb
 *(.sdata*)
 .sdata         0x00000000000152b8        0x8 Output\obj\project\solution\ble_usb_dongle\app\func_bt.o
 .sdata         0x00000000000152c0        0x1 Output\obj\project\solution\ble_usb_dongle\strong_symbol.o
                0x00000000000152c0                cfg_spiflash_speed_up_en
 *fill*         0x00000000000152c1        0x3 
 .sdata         0x00000000000152c4        0x7 Output\obj\project\solution\ble_usb_dongle\usb\usb_cdc.o
 *fill*         0x00000000000152cb        0x1 
 .sdata         0x00000000000152cc        0x4 ..\..\..\libs\cpu\libplatform.a(debug.o)
                0x00000000000152cc                cpu_gprs
 .sdata         0x00000000000152d0        0x2 ..\..\..\libs\ble\libbtstack_central.a(sm.o)
 *fill*         0x00000000000152d2        0x2 
 .sdata         0x00000000000152d4        0xc ..\..\..\libs\ble\libbtstack_central.a(btstack_hal.o)
 .sdata         0x00000000000152e0        0x1 ..\..\..\libs\ble\libbtstack_central.a(rf_mate.o)
 *(.notch_iir_text*)
                0x0000000000015400                . = ALIGN (0x200)
 *fill*         0x00000000000152e1      0x11f 
                0x0000000000015400                __comm_end = .
                0x0000000000001000                __comm_size = (__comm_end - __comm_start)

.pdn_comm       0x0000000000010c00        0x0 load address 0x0000000010001200
 *(.com_pwroff*)
                0x0000000000010c00                . = ALIGN (0x200)

.flash          0x0000000010001200    0x16200
                0x0000000010001200                __code_start_app_proc = .
 *(.text.app.proc.*)
 .text.app.proc.func
                0x0000000010001200       0x1a Output\obj\project\solution\ble_usb_dongle\app\func.o
                0x0000000010001200                func_process
 .text.app.proc.msg
                0x000000001000121a        0x8 Output\obj\project\solution\ble_usb_dongle\app\func_bt.o
                0x000000001000121a                func_bt_message
 .text.app.proc.bt
                0x0000000010001222       0x12 Output\obj\project\solution\ble_usb_dongle\app\func_bt.o
                0x0000000010001222                func_bt_sub_process
                0x0000000010001226                func_bt_process
 .text.app.proc.test
                0x0000000010001234        0x2 Output\obj\project\solution\ble_usb_dongle\prod_test\prod_test.o
                0x0000000010001234                prod_test_process
                0x0000000010001400                . = ALIGN (0x200)
 *fill*         0x0000000010001236      0x1ca 
                0x0000000010001400                __code_end_app_proc = .
                0x0000000010001400                __code_start_usbdev = .
 *(.usbdev*)
 .usbdev.com    0x0000000010001400       0xd8 Output\obj\project\solution\ble_usb_dongle\usb\usb_cdc.o
                0x0000000010001400                usb_cdc_rx_process
                0x000000001000142e                usb_cdc_tx_process
                0x0000000010001466                usb_cdc_ep_reset
                0x00000000100014a6                usb_cdc_bulk_in_callback
 *fill*         0x00000000100014d8        0x0 
 .usbdev.com.table
                0x00000000100014d8       0x42 Output\obj\project\solution\ble_usb_dongle\usb\usb_cdc_desc.o
                0x00000000100014d8                desc_config_cdc
 *fill*         0x000000001000151a        0x2 
 .usbdev.com    0x000000001000151c       0xce Output\obj\project\solution\ble_usb_dongle\usb\usb_com.o
                0x000000001000151c                usb_event_callback
                0x00000000100015e6                usb_device_process
 .usbdev.com    0x00000000100015ea      0x430 Output\obj\project\solution\ble_usb_dongle\usb\usb_dev_enum.o
                0x00000000100015ea                get_config_descriptor
                0x000000001000177a                usb_ep0_ctl_callback
 .usbdev.com    0x0000000010001a1a       0x66 Output\obj\project\solution\ble_usb_dongle\usb\usb_hid.o
                0x0000000010001a1a                ude_hid_rx_process
                0x0000000010001a44                ude_hid_tx_process
 *fill*         0x0000000010001a80        0x0 
 .usbdev.com.table
                0x0000000010001a80       0x28 Output\obj\project\solution\ble_usb_dongle\usb\usb_hid_desc.o
                0x0000000010001a80                desc_config_hid
 .usbdev.com    0x0000000010001aa8       0x12 ..\..\..\libs\usb\libusb.a(usb_comm.o)
                0x0000000010001aa8                usb_flush_fifo0
 .usbdev.com    0x0000000010001aba      0x274 ..\..\..\libs\usb\libusb.a(usb_device_enum.o)
                0x0000000010001b24                usb_ep0_transfer
                0x0000000010001b32                get_setup
                0x0000000010001b4a                ude_ep_reset
                0x0000000010001b9a                ude_control_flow
 .usbdev.com.ep.cur_set
                0x0000000010001d2e       0x18 ..\..\..\libs\usb\libusb.a(usb_device_ep.o)
                0x0000000010001d2e                usb_set_cur_ep
 .usbdev.co.ep.halt
                0x0000000010001d46       0x4e ..\..\..\libs\usb\libusb.a(usb_device_ep.o)
                0x0000000010001d46                usb_ep_halt
 .usbdev.com.ep.tx
                0x0000000010001d94       0xc2 ..\..\..\libs\usb\libusb.a(usb_device_ep.o)
                0x0000000010001d94                usb_ep_transfer
 .usbdev.com    0x0000000010001e56       0xde ..\..\..\libs\usb\libusb.a(usb_device_run_loop.o)
                0x0000000010001e56                ude_run_loop_execute
                0x0000000010002000                . = ALIGN (0x200)
 *fill*         0x0000000010001f34       0xcc 
                0x0000000010002000                __code_end_usbdev = .
                0x0000000010002000                __code_start_stack_send = .
 *(.text.stack.send.*)
 .text.stack.send.txpkt
                0x0000000010002000      0x1de ..\..\..\libs\ble\libbtstack_central.a(txpkt.o)
                0x0000000010002000                txpkt_send
                0x00000000100020c2                txpkt_event_send
                0x00000000100020f6                txpkt_server_send_tick
                0x0000000010002104                txpkt_client_send_tick
 .text.stack.send.client
                0x00000000100021de       0x6e ..\..\..\libs\ble\libbtstack_central.a(gatt_client.o)
                0x00000000100021de                att_event_client_txpkt_send
 .text.stack.send.server
                0x000000001000224c       0x1e ..\..\..\libs\ble\libbtstack_central.a(att_server.o)
                0x000000001000224c                att_server_request_can_send_now_event
 .text.stack.send.ntf
                0x000000001000226a       0x52 ..\..\..\libs\ble\libbtstack_central.a(att_server.o)
                0x000000001000226a                att_server_notify
 .text.stack.send.dispatch_server
                0x00000000100022bc        0xc ..\..\..\libs\ble\libbtstack_central.a(att_dispatch.o)
                0x00000000100022bc                att_dispatch_server_request_can_send_now_event
 .text.stack.send.ntf
                0x00000000100022c8       0x3e ..\..\..\libs\ble\libbtstack_central.a(att_db.o)
                0x00000000100022c8                att_prepare_handle_value_notification
 .text.stack.send.kick
                0x0000000010002306       0x1a ..\..\..\libs\ble\libbtstack_central.a(ble_api.o)
                0x0000000010002306                ble_send_kick
 .text.stack.send.l2cap
                0x0000000010002320       0x6e ..\..\..\libs\ble\libbtstack_central.a(l2cap.o)
                0x0000000010002320                l2cap_request_can_send_fix_channel_now_event
                0x0000000010002346                l2cap_send_prepared_connectionless
 .text.stack.send.hci
                0x000000001000238e       0xe6 ..\..\..\libs\ble\libbtstack_central.a(hci.o)
                0x0000000010002430                hci_send_acl_packet_buffer
 .text.stack.send.ntf_do
                0x0000000010002474       0x4e ..\..\..\libs\ble\libbtstack_central.a(gatt_server.o)
 .text.stack.send.ntf
                0x00000000100024c2       0x16 ..\..\..\libs\ble\libbtstack_central.a(gatt_server.o)
                0x00000000100024c2                ble_send_notify_packet
                0x00000000100024d4                ble_notify_for_handle
 .text.stack.send.server
                0x00000000100024d8       0x8c ..\..\..\libs\ble\libbtstack_central.a(gatt_server.o)
                0x00000000100024d8                att_event_server_txpkt_send
                0x000000001000254c                btstack_ble_server_send_req
 .text.stack.send.acl
                0x0000000010002564       0xe0 ..\..\..\libs\ble\libbtstack_central.a(ll_proc.o)
                0x0000000010002564                hci_acl_data_func
                0x0000000010002800                . = ALIGN (0x200)
 *fill*         0x0000000010002644      0x1bc 
                0x0000000010002800                __code_end_stack_send = .
                0x0000000010002800                __code_start_sleep_send = .
 *(.com_sleep*)
 .com_sleep.rf.txpwr
                0x0000000010002800        0x8 Output\obj\project\solution\ble_usb_dongle\strong_ble.o
                0x0000000010002800                bt_rf_get_tx_pwr
 .com_sleep.bb.putc
                0x0000000010002808        0x2 ..\..\..\libs\ble\libbtstack_central.a(bb_dbg.o)
                0x0000000010002808                bb_dbg_init
 .com_sleep.rfphy
                0x000000001000280a       0xf0 ..\..\..\libs\ble\libbtstack_central.a(rf_mate.o)
                0x0000000010002886                rfphy_txrx_init
 .com_sleep.rfphy.init
                0x00000000100028fa       0x6a ..\..\..\libs\ble\libbtstack_central.a(rf_mate.o)
                0x00000000100028fa                rfphy_init
 .com_sleep.rf  0x0000000010002964       0x36 ..\..\..\libs\ble\libbtstack_central.a(rf_mate.o)
                0x0000000010002964                modem_init
                0x0000000010002a00                . = ALIGN (0x200)
 *fill*         0x000000001000299a       0x66 
                0x0000000010002a00                __code_end_sleep_send = .
 *(.text*)
 .text.clk_gate0_cmd
                0x0000000010002a00       0x16 Output\obj\driver\driver_clk.o
                0x0000000010002a00                clk_gate0_cmd
 .text.clk_uart_clk_set
                0x0000000010002a16       0x16 Output\obj\driver\driver_clk.o
                0x0000000010002a16                clk_uart_clk_set
 .text.clk_uart_clk_get
                0x0000000010002a2c       0x32 Output\obj\driver\driver_clk.o
                0x0000000010002a2c                clk_uart_clk_get
 .text.gpio_init
                0x0000000010002a5e      0x122 Output\obj\driver\driver_gpio.o
                0x0000000010002a5e                gpio_init
 .text.gpio_func_mapping_config
                0x0000000010002b80       0xac Output\obj\driver\driver_gpio.o
                0x0000000010002b80                gpio_func_mapping_config
 .text.wko_io_config
                0x0000000010002c2c       0x3e Output\obj\driver\driver_gpio.o
                0x0000000010002c2c                wko_io_config
 .text.lowpwr_get_wakeup_source
                0x0000000010002c6a       0x80 Output\obj\driver\driver_lowpwr.o
                0x0000000010002c6a                lowpwr_get_wakeup_source
 .text.uart_init
                0x0000000010002cea       0x44 Output\obj\driver\driver_uart.o
                0x0000000010002cea                uart_init
 .text.uart_cmd
                0x0000000010002d2e       0x10 Output\obj\driver\driver_uart.o
                0x0000000010002d2e                uart_cmd
 .text.uart_baud_config
                0x0000000010002d3e       0x34 Output\obj\driver\driver_uart.o
                0x0000000010002d3e                uart_baud_config
 .text.func.msg
                0x0000000010002d72       0x9e Output\obj\project\solution\ble_usb_dongle\app\func.o
                0x0000000010002d72                func_message
 .text.func     0x0000000010002e10       0x46 Output\obj\project\solution\ble_usb_dongle\app\func.o
                0x0000000010002e10                func_enter
                0x0000000010002e14                func_exit
                0x0000000010002e1e                func_run
 .text.func.msg
                0x0000000010002e56        0xc Output\obj\project\solution\ble_usb_dongle\app\func_bt.o
                0x0000000010002e56                func_bt_message_do
 .text.func.bt  0x0000000010002e62       0x68 Output\obj\project\solution\ble_usb_dongle\app\func_bt.o
                0x0000000010002e62                func_bt_init
                0x0000000010002e66                func_bt_enter
                0x0000000010002e7a                func_bt_exit
                0x0000000010002e92                func_bt
 .text.ble_alarm_init
                0x0000000010002eca       0x32 Output\obj\project\solution\ble_usb_dongle\ble\ble_alarm.o
                0x0000000010002eca                ble_alarm_init
 .text.ble_info_init
                0x0000000010002efc        0xc Output\obj\project\solution\ble_usb_dongle\ble\ble_app.o
                0x0000000010002efc                ble_info_init
 .text.ble_get_ble_info
                0x0000000010002f08        0x8 Output\obj\project\solution\ble_usb_dongle\ble\ble_app.o
                0x0000000010002f08                ble_get_ble_info
 .text.ble_get_free_conidx
                0x0000000010002f10       0x18 Output\obj\project\solution\ble_usb_dongle\ble\ble_app.o
                0x0000000010002f10                ble_get_free_conidx
 .text.ble_get_conidx_for_handle
                0x0000000010002f28       0x18 Output\obj\project\solution\ble_usb_dongle\ble\ble_app.o
                0x0000000010002f28                ble_get_conidx_for_handle
 .text.ble_get_conn_cnt
                0x0000000010002f40       0x10 Output\obj\project\solution\ble_usb_dongle\ble\ble_app.o
                0x0000000010002f40                ble_get_conn_cnt
 .text.ble_advertising_report_callback
                0x0000000010002f50       0x8e Output\obj\project\solution\ble_usb_dongle\ble\ble_app.o
                0x0000000010002f50                ble_advertising_report_callback
 .text.ble_client_event_callback
                0x0000000010002fde      0x3fc Output\obj\project\solution\ble_usb_dongle\ble\ble_client.o
                0x0000000010002fde                ble_client_event_callback
 .text.ble_att_read_callback
                0x00000000100033da       0x2a Output\obj\project\solution\ble_usb_dongle\ble\ble_client.o
 .text.ble_client_notify_callback
                0x0000000010003404       0x2a Output\obj\project\solution\ble_usb_dongle\ble\ble_client.o
 .text.ble_client_init
                0x000000001000342e       0x4a Output\obj\project\solution\ble_usb_dongle\ble\ble_client.o
                0x000000001000342e                ble_client_init
 .text.ble_app_proc
                0x0000000010003478        0x2 Output\obj\project\solution\ble_usb_dongle\ble\ble_client.o
                0x0000000010003478                ble_app_proc
 .text.ble_set_work_mode
                0x000000001000347a        0x8 Output\obj\project\solution\ble_usb_dongle\ble\ble_init.o
                0x000000001000347a                ble_set_work_mode
 .text.ble_txpkt_init
                0x0000000010003482        0xe Output\obj\project\solution\ble_usb_dongle\ble\ble_init.o
                0x0000000010003482                ble_txpkt_init
 .text.ble_sm_param_init
                0x0000000010003490        0xa Output\obj\project\solution\ble_usb_dongle\ble\ble_init.o
                0x0000000010003490                ble_sm_param_init
 .text.ble_scan_param_init
                0x000000001000349a       0x2c Output\obj\project\solution\ble_usb_dongle\ble\ble_init.o
                0x000000001000349a                ble_scan_param_init
 .text.ble_central_init
                0x00000000100034c6       0x1e Output\obj\project\solution\ble_usb_dongle\ble\ble_init.o
                0x00000000100034c6                ble_central_init
 .text.bsp_ble_init
                0x00000000100034e4       0x20 Output\obj\project\solution\ble_usb_dongle\ble\ble_init.o
                0x00000000100034e4                bsp_ble_init
 .text.bsp_io_key_init
                0x0000000010003504        0xa Output\obj\project\solution\ble_usb_dongle\bsp\bsp_io_key.o
                0x0000000010003504                bsp_io_key_init
 .text.bsp_key_init
                0x000000001000350e       0x1a Output\obj\project\solution\ble_usb_dongle\bsp\bsp_key.o
                0x000000001000350e                bsp_key_init
 .text.bsp.param
                0x0000000010003528       0x16 Output\obj\project\solution\ble_usb_dongle\bsp\bsp_param.o
                0x0000000010003528                bsp_param_init
                0x0000000010003532                bsp_param_write
                0x0000000010003536                bsp_param_read
                0x000000001000353a                bsp_param_sync
 .text.sys_ram_info_dump
                0x000000001000353e       0x50 Output\obj\project\solution\ble_usb_dongle\bsp\bsp_sys.o
                0x000000001000353e                sys_ram_info_dump
 .text.bsp.sys.init
                0x000000001000358e       0xaa Output\obj\project\solution\ble_usb_dongle\bsp\bsp_sys.o
                0x000000001000358e                bsp_sys_init
 .text.bsp_uart_debug_init
                0x0000000010003638       0x82 Output\obj\project\solution\ble_usb_dongle\bsp\bsp_uart_debug.o
                0x0000000010003638                bsp_uart_debug_init
 .text.startup.main
                0x00000000100036ba       0x58 Output\obj\project\solution\ble_usb_dongle\main.o
                0x00000000100036ba                main
 .text.prod_test_init
                0x0000000010003712        0x2 Output\obj\project\solution\ble_usb_dongle\prod_test\prod_test.o
                0x0000000010003712                prod_test_init
 .text.hci_fcc_init
                0x0000000010003714        0x2 Output\obj\project\solution\ble_usb_dongle\strong_ble.o
                0x0000000010003714                hci_fcc_init
 .text.bt_uart_isr
                0x0000000010003716        0x4 Output\obj\project\solution\ble_usb_dongle\strong_ble.o
                0x0000000010003716                bt_uart_isr
 .text.ble_get_local_bd_addr
                0x000000001000371a       0x14 Output\obj\project\solution\ble_usb_dongle\strong_ble.o
                0x000000001000371a                ble_get_local_bd_addr
 .text.bt_rf_get_param
                0x000000001000372e       0x16 Output\obj\project\solution\ble_usb_dongle\strong_ble.o
                0x000000001000372e                bt_rf_get_param
 .text.ble_get_link_info
                0x0000000010003744        0x8 Output\obj\project\solution\ble_usb_dongle\strong_ble.o
                0x0000000010003744                ble_get_link_info
 .text.ble_put_link_info
                0x000000001000374c       0x14 Output\obj\project\solution\ble_usb_dongle\strong_ble.o
                0x000000001000374c                ble_put_link_info
 .text.ble_mtu_exchange_enabled
                0x0000000010003760        0x4 Output\obj\project\solution\ble_usb_dongle\strong_ble.o
                0x0000000010003760                ble_mtu_exchange_enabled
 .text.ble_sm_always_accept_ltk_req
                0x0000000010003764        0x4 Output\obj\project\solution\ble_usb_dongle\strong_ble.o
                0x0000000010003764                ble_sm_always_accept_ltk_req
 .text.ble_rx_exit_sleep
                0x0000000010003768        0x4 Output\obj\project\solution\ble_usb_dongle\strong_ble.o
                0x0000000010003768                ble_rx_exit_sleep
 .text.ble_feature_exchange_enabled
                0x000000001000376c        0x4 Output\obj\project\solution\ble_usb_dongle\strong_ble.o
                0x000000001000376c                ble_feature_exchange_enabled
 .text.ble_length_request_enabled
                0x0000000010003770        0x4 Output\obj\project\solution\ble_usb_dongle\strong_ble.o
                0x0000000010003770                ble_length_request_enabled
 .text.ble_phy_update_enable
                0x0000000010003774        0x4 Output\obj\project\solution\ble_usb_dongle\strong_ble.o
                0x0000000010003774                ble_phy_update_enable
 .text.mem_heap_size_get
                0x0000000010003778        0x8 Output\obj\project\solution\ble_usb_dongle\strong_symbol.o
                0x0000000010003778                mem_heap_size_get
 .text.thread_cfg_get
                0x0000000010003780        0xa Output\obj\project\solution\ble_usb_dongle\strong_symbol.o
                0x0000000010003780                thread_cfg_get
 .text.thread_create_callback
                0x000000001000378a       0x10 Output\obj\project\solution\ble_usb_dongle\strong_symbol.o
                0x000000001000378a                thread_create_callback
 .text.xosc_get_xcfg
                0x000000001000379a       0x20 Output\obj\project\solution\ble_usb_dongle\strong_symbol.o
                0x000000001000379a                xosc_get_xcfg
 .text.param_xosc_read
                0x00000000100037ba        0x8 Output\obj\project\solution\ble_usb_dongle\strong_symbol.o
                0x00000000100037ba                param_xosc_read
 .text.sys_clk_change_callback
                0x00000000100037c2       0x10 Output\obj\project\solution\ble_usb_dongle\strong_symbol.o
                0x00000000100037c2                sys_clk_change_callback
 .text.uart_debug_init_callback
                0x00000000100037d2        0x4 Output\obj\project\solution\ble_usb_dongle\strong_symbol.o
                0x00000000100037d2                uart_debug_init_callback
 .text.usb_cdc_get_line_coding
                0x00000000100037d6       0x24 Output\obj\project\solution\ble_usb_dongle\usb\usb_cdc.o
                0x00000000100037d6                usb_cdc_get_line_coding
 .text.usb_cdc_init
                0x00000000100037fa      0x104 Output\obj\project\solution\ble_usb_dongle\usb\usb_cdc.o
                0x00000000100037fa                usb_cdc_init
 .text.usb_cdc_process
                0x00000000100038fe        0x2 Output\obj\project\solution\ble_usb_dongle\usb\usb_cdc.o
                0x00000000100038fe                usb_cdc_process
 .text.usb_cdc_deinit
                0x0000000010003900        0x2 Output\obj\project\solution\ble_usb_dongle\usb\usb_cdc.o
                0x0000000010003900                usb_cdc_deinit
 .text.usb_cdc_itf_desc_get
                0x0000000010003902       0x12 Output\obj\project\solution\ble_usb_dongle\usb\usb_cdc_desc.o
                0x0000000010003902                usb_cdc_itf_desc_get
 .text.usb_ep_init_handler
                0x0000000010003914       0x10 Output\obj\project\solution\ble_usb_dongle\usb\usb_com.o
                0x0000000010003914                usb_ep_init_handler
 .text.usb_ep_callback_register
                0x0000000010003924       0x1a Output\obj\project\solution\ble_usb_dongle\usb\usb_com.o
                0x0000000010003924                usb_ep_callback_register
 .text.usb_ep_start_transfer
                0x000000001000393e       0x24 Output\obj\project\solution\ble_usb_dongle\usb\usb_com.o
                0x000000001000393e                usb_ep_start_transfer
 .text.usb_ep_reset_deal
                0x0000000010003962        0xe Output\obj\project\solution\ble_usb_dongle\usb\usb_com.o
                0x0000000010003962                usb_ep_reset_deal
 .text.usb_device_init
                0x0000000010003970       0x3e Output\obj\project\solution\ble_usb_dongle\usb\usb_com.o
                0x0000000010003970                usb_device_init
 .text.usb_device_deinit
                0x00000000100039ae        0xe Output\obj\project\solution\ble_usb_dongle\usb\usb_com.o
                0x00000000100039ae                usb_device_deinit
 .text.usb_desc_swapper.constprop.1
                0x00000000100039bc       0x62 Output\obj\project\solution\ble_usb_dongle\usb\usb_desc.o
 .text.usb_get_device_descriptor
                0x0000000010003a1e       0x10 Output\obj\project\solution\ble_usb_dongle\usb\usb_desc.o
                0x0000000010003a1e                usb_get_device_descriptor
 .text.usb_get_cfg_descriptor
                0x0000000010003a2e       0x10 Output\obj\project\solution\ble_usb_dongle\usb\usb_desc.o
                0x0000000010003a2e                usb_get_cfg_descriptor
 .text.usb_get_lang_id_str_descriptor
                0x0000000010003a3e       0x10 Output\obj\project\solution\ble_usb_dongle\usb\usb_desc.o
                0x0000000010003a3e                usb_get_lang_id_str_descriptor
 .text.usb_get_manufacturer_str_descriptor
                0x0000000010003a4e       0x1c Output\obj\project\solution\ble_usb_dongle\usb\usb_desc.o
                0x0000000010003a4e                usb_get_manufacturer_str_descriptor
 .text.usb_get_product_str_descriptor
                0x0000000010003a6a       0x1c Output\obj\project\solution\ble_usb_dongle\usb\usb_desc.o
                0x0000000010003a6a                usb_get_product_str_descriptor
 .text.usb_get_serial_str_descriptor
                0x0000000010003a86       0x1c Output\obj\project\solution\ble_usb_dongle\usb\usb_desc.o
                0x0000000010003a86                usb_get_serial_str_descriptor
 .text.ude_state_reset
                0x0000000010003aa2        0xa Output\obj\project\solution\ble_usb_dongle\usb\usb_dev_enum.o
                0x0000000010003aa2                ude_state_reset
 .text.ude_hid_setvalid
                0x0000000010003aac        0x8 Output\obj\project\solution\ble_usb_dongle\usb\usb_hid.o
                0x0000000010003aac                ude_hid_setvalid
 .text.usb_hid_receive_callback
                0x0000000010003ab4       0x20 Output\obj\project\solution\ble_usb_dongle\usb\usb_hid.o
                0x0000000010003ab4                usb_hid_receive_callback
 .text.usb_int_ep_reset
                0x0000000010003ad4       0x2c Output\obj\project\solution\ble_usb_dongle\usb\usb_hid.o
                0x0000000010003ad4                usb_int_ep_reset
 .text.udh_init
                0x0000000010003b00      0x104 Output\obj\project\solution\ble_usb_dongle\usb\usb_hid.o
                0x0000000010003b00                udh_init
 .text.usb_hid_buffer_push
                0x0000000010003c04        0xe Output\obj\project\solution\ble_usb_dongle\usb\usb_hid.o
                0x0000000010003c04                usb_hid_buffer_push
 .text.usb_hid_in_callback
                0x0000000010003c12       0x3e Output\obj\project\solution\ble_usb_dongle\usb\usb_hid.o
                0x0000000010003c12                usb_hid_in_callback
 .text.usb_hid_init
                0x0000000010003c50       0x16 Output\obj\project\solution\ble_usb_dongle\usb\usb_hid.o
                0x0000000010003c50                usb_hid_init
 .text.usb_hid_deinit
                0x0000000010003c66        0x8 Output\obj\project\solution\ble_usb_dongle\usb\usb_hid.o
                0x0000000010003c66                usb_hid_deinit
 .text.usb_hid_send_test
                0x0000000010003c6e       0x2e Output\obj\project\solution\ble_usb_dongle\usb\usb_hid.o
                0x0000000010003c6e                usb_hid_send_test
 .text.usb_hid_itf_desc_get
                0x0000000010003c9c       0x12 Output\obj\project\solution\ble_usb_dongle\usb\usb_hid_desc.o
                0x0000000010003c9c                usb_hid_itf_desc_get
 .text.usb_hid_report_desc_get
                0x0000000010003cae       0x12 Output\obj\project\solution\ble_usb_dongle\usb\usb_hid_desc.o
                0x0000000010003cae                usb_hid_report_desc_get
 .text.usb_usr_cdc_data_out
                0x0000000010003cc0       0x20 Output\obj\project\solution\ble_usb_dongle\usb\usb_usr_cdc.o
 .text.cm_loadpage
                0x0000000010003ce0       0xb0 ..\..\..\libs\cpu\libplatform.a(cm.o)
 .text.cm_next_freepage
                0x0000000010003d90       0x54 ..\..\..\libs\cpu\libplatform.a(cm.o)
 .text.cm_loadparam
                0x0000000010003de4        0x4 ..\..\..\libs\cpu\libplatform.a(cm.o)
                0x0000000010003de4                cm_loadparam
 .text.cm_factory
                0x0000000010003de8        0xa ..\..\..\libs\cpu\libplatform.a(cm.o)
                0x0000000010003de8                cm_factory
 .text.cm_addr_check
                0x0000000010003df2        0x4 ..\..\..\libs\cpu\libplatform.a(cm.o)
                0x0000000010003df2                cm_addr_check
 .text.cm_writepage
                0x0000000010003df6       0x2a ..\..\..\libs\cpu\libplatform.a(cm.o)
 .text.cm_movepage
                0x0000000010003e20       0x56 ..\..\..\libs\cpu\libplatform.a(cm.o)
 .text.cm_erase
                0x0000000010003e76       0x1e ..\..\..\libs\cpu\libplatform.a(cm.o)
 .text.cm_release
                0x0000000010003e94      0x100 ..\..\..\libs\cpu\libplatform.a(cm.o)
 .text.cm_savepage
                0x0000000010003f94       0xda ..\..\..\libs\cpu\libplatform.a(cm.o)
 .text.cm_check_loadpage
                0x000000001000406e       0xb0 ..\..\..\libs\cpu\libplatform.a(cm.o)
 .text.cm_sync  0x000000001000411e       0x3e ..\..\..\libs\cpu\libplatform.a(cm.o)
                0x000000001000411e                cm_sync
 .text.cm_read  0x000000001000415c       0x44 ..\..\..\libs\cpu\libplatform.a(cm.o)
                0x000000001000415c                cm_read
 .text.cm_write
                0x00000000100041a0       0x5e ..\..\..\libs\cpu\libplatform.a(cm.o)
                0x00000000100041a0                cm_write
 .text.cm_init  0x00000000100041fe      0x1e2 ..\..\..\libs\cpu\libplatform.a(cm.o)
                0x00000000100041fe                cm_init
 .text.xcfg_init
                0x00000000100043e0       0x4c ..\..\..\libs\cpu\libplatform.a(xcfg.o)
                0x00000000100043e0                xcfg_init
 .text.device.init
                0x000000001000442c       0x7e ..\..\..\libs\cpu\libplatform.a(device.o)
                0x000000001000442c                dev_init
                0x0000000010004446                dev_delay_times
                0x000000001000445c                dev_delay_online_times
                0x000000001000446e                dev_delay_offline_times
                0x0000000010004480                dev_clr_sta
 .text.platform_main
                0x00000000100044aa      0x152 ..\..\..\libs\cpu\libplatform.a(main.o)
                0x00000000100044aa                platform_main
 .text.main_startup
                0x00000000100045fc        0xe ..\..\..\libs\cpu\libplatform.a(main.o)
                0x00000000100045fc                main_startup
 .text.register_isr
                0x000000001000460a       0x38 ..\..\..\libs\cpu\libplatform.a(interrupt.o)
                0x000000001000460a                register_isr
 .text.soft_irq_init
                0x0000000010004642       0x44 ..\..\..\libs\cpu\libplatform.a(interrupt.o)
                0x0000000010004642                soft_irq_init
 .text.bthw_irq_init
                0x0000000010004686        0xe ..\..\..\libs\cpu\libplatform.a(interrupt.o)
                0x0000000010004686                bthw_irq_init
 .text.usb_irq_init
                0x0000000010004694       0x22 ..\..\..\libs\cpu\libplatform.a(interrupt.o)
                0x0000000010004694                usb_irq_init
 .text.sys_timer_init
                0x00000000100046b6       0x5e ..\..\..\libs\cpu\libplatform.a(interrupt.o)
                0x00000000100046b6                sys_timer_init
 .text.thread_btstack_create
                0x0000000010004714       0x82 ..\..\..\libs\cpu\libplatform.a(startup.o)
                0x0000000010004714                thread_btstack_create
 .text.thread_driver_create
                0x0000000010004796       0x62 ..\..\..\libs\cpu\libplatform.a(startup.o)
                0x0000000010004796                thread_driver_create
 .text.thread_main_entry
                0x00000000100047f8       0x2e ..\..\..\libs\cpu\libplatform.a(startup.o)
 .text.startup.init
                0x0000000010004826      0x100 ..\..\..\libs\cpu\libplatform.a(startup.o)
                0x0000000010004826                platform_init
                0x000000001000482e                sys_startup
 .text.bt_set_timer_enable
                0x0000000010004926       0x16 ..\..\..\libs\cpu\libplatform.a(startup.o)
                0x0000000010004926                bt_set_timer_enable
 .text.sys_set_tmr_enable
                0x000000001000493c       0x20 ..\..\..\libs\cpu\libplatform.a(startup.o)
                0x000000001000493c                sys_set_tmr_enable
 .text.sys_hook_init
                0x000000001000495c        0x2 ..\..\..\libs\cpu\libplatform.a(sys_hook.o)
                0x000000001000495c                sys_hook_init
 .text.thread.driver.usb
                0x000000001000495e       0x16 ..\..\..\libs\cpu\libplatform.a(thread_driver.o)
                0x000000001000495e                thread_driver_usb_callback_register
 .text.thread.driver.vs
                0x0000000010004974       0x16 ..\..\..\libs\cpu\libplatform.a(thread_driver.o)
                0x0000000010004974                thread_driver_user_callback_register
 .text.pll0_vco_band_trimming
                0x000000001000498a      0x176 ..\..\..\libs\cpu\libplatform.a(pll.o)
                0x000000001000498a                pll0_vco_band_trimming
 .text.pll0_init
                0x0000000010004b00       0x62 ..\..\..\libs\cpu\libplatform.a(pll.o)
                0x0000000010004b00                pll0_init
 .text.pll0_disable
                0x0000000010004b62       0x16 ..\..\..\libs\cpu\libplatform.a(pll.o)
                0x0000000010004b62                pll0_disable
 .text.pmu_set_buck_mode
                0x0000000010004b78       0x48 ..\..\..\libs\cpu\libplatform.a(pmu.o)
                0x0000000010004b78                pmu_set_buck_mode
 .text.pmu_voltage_configure
                0x0000000010004bc0       0x48 ..\..\..\libs\cpu\libplatform.a(pmu.o)
                0x0000000010004bc0                pmu_voltage_configure
 .text.pmu_init
                0x0000000010004c08      0x2e2 ..\..\..\libs\cpu\libplatform.a(pmu.o)
                0x0000000010004c08                pmu_init
 .text.debug_set
                0x0000000010004eea       0x20 ..\..\..\libs\cpu\libplatform.a(debug.o)
                0x0000000010004eea                debug_set
 .text.bsp.key.init
                0x0000000010004f0a       0x38 ..\..\..\libs\cpu\libplatform.a(key.o)
                0x0000000010004f0a                multiple_key_init
 .text.lock_init
                0x0000000010004f42       0x10 ..\..\..\libs\cpu\libplatform.a(lock.o)
                0x0000000010004f42                lock_init
 .text.lock_code_usbdev
                0x0000000010004f52       0x46 ..\..\..\libs\cpu\libplatform.a(lock.o)
                0x0000000010004f52                lock_code_usbdev
 .text.unlock_code_usbdev
                0x0000000010004f98       0x2a ..\..\..\libs\cpu\libplatform.a(lock.o)
                0x0000000010004f98                unlock_code_usbdev
 .text.patch_init
                0x0000000010004fc2       0x1e ..\..\..\libs\cpu\libplatform.a(patch.o)
                0x0000000010004fc2                patch_init
 .text.udivmoddi4
                0x0000000010004fe0       0x96 ..\..\..\libs\cpu\libplatform.a(sys.o)
 .text.sys_rst_init
                0x0000000010005076       0x84 ..\..\..\libs\cpu\libplatform.a(sys.o)
                0x0000000010005076                sys_rst_init
 .text.sys_rst_dump
                0x00000000100050fa       0x74 ..\..\..\libs\cpu\libplatform.a(sys.o)
                0x00000000100050fa                sys_rst_dump
 .text.rc2m_clk_nhz_cal
                0x000000001000516e      0x10c ..\..\..\libs\cpu\libplatform.a(sys.o)
                0x000000001000516e                rc2m_clk_nhz_cal
 .text.sys_get_rand_key_init
                0x000000001000527a        0xa ..\..\..\libs\cpu\libplatform.a(sys.o)
                0x000000001000527a                sys_get_rand_key_init
 .text.xosc_init
                0x0000000010005284       0xa0 ..\..\..\libs\cpu\libplatform.a(sys.o)
                0x0000000010005284                xosc_init
 .text.__udivdi3
                0x0000000010005324        0x6 ..\..\..\libs\cpu\libplatform.a(sys.o)
                0x0000000010005324                __udivdi3
 .text.sys_clk_cacl_curr
                0x000000001000532a       0x18 ..\..\..\libs\cpu\libplatform.a(sys_clk.o)
 *fill*         0x0000000010005342       0xbe 
 .text.set_sys_clk_do
                0x0000000010005400      0x1f2 ..\..\..\libs\cpu\libplatform.a(sys_clk.o)
                0x0000000010005400                set_sys_clk_do
 .text.sys_clk  0x00000000100055f2      0x1ca ..\..\..\libs\cpu\libplatform.a(sys_clk.o)
                0x00000000100055f2                sys_clk_get_cur
                0x00000000100055fa                sys_clk_set_do
 .text.sys_clk_set
                0x00000000100057bc       0x60 ..\..\..\libs\cpu\libplatform.a(sys_clk.o)
                0x00000000100057bc                sys_clk_set
 *fill*         0x000000001000581c        0x0 
 .text.sys_clk.table
                0x000000001000581c       0x16 ..\..\..\libs\cpu\libplatform.a(sys_clk.o)
                0x000000001000581c                sysclk_info_tbl
 .text.voltage.trim
                0x0000000010005832       0xb0 ..\..\..\libs\cpu\libplatform.a(voltage_trim.o)
                0x0000000010005832                voltage_trim_value_init
 .text.xosc_24m_div_get
                0x00000000100058e2        0x4 ..\..\..\libs\cpu\libplatform.a(weak_symbol.o)
                0x00000000100058e2                xosc_24m_div_get
 .text.freq_det_kick_flag_clr
                0x00000000100058e6        0x8 ..\..\..\libs\cpu\libplatform.a(freq_det.o)
                0x00000000100058e6                freq_det_kick_flag_clr
 .text          0x00000000100058ee       0xdc ..\..\..\libs\ble\libbtstack_central.a(bb_api.o)
                0x00000000100058ee                soft_timer_init
                0x00000000100058ee                ble_alarm_timer_init
                0x00000000100058f8                soft_timer_mem_extend
                0x00000000100058f8                ble_alarm_timer_mem_extend
                0x0000000010005902                soft_timer_mem_free
                0x0000000010005902                ble_alarm_timer_mem_free
                0x000000001000592a                soft_timer_start
                0x000000001000592a                ble_alarm_timer_start
                0x0000000010005952                soft_timer_stop
                0x0000000010005952                ble_alarm_timer_stop
                0x0000000010005984                soft_timer_acquire
                0x0000000010005984                ble_alarm_timer_acquire
                0x000000001000598e                ble_alarm_timer_release
                0x000000001000598e                soft_timer_release
 .text          0x00000000100059ca      0x110 ..\..\..\libs\ble\libbtstack_central.a(bb_int.o)
                0x00000000100059ca                bb_sleep_init
                0x00000000100059cc                bb_driver_init
 *fill*         0x0000000010005ada       0x26 
 .text.bb.aes   0x0000000010005b00       0xf4 ..\..\..\libs\ble\libbtstack_central.a(bb_int.o)
                0x0000000010005b00                bb_aes_encrypt
 .text.bb.timer.ind
                0x0000000010005bf4       0x24 ..\..\..\libs\ble\libbtstack_central.a(bb_alarm.o)
                0x0000000010005bf4                bb_timer_end_ind
 .text.bb.timer.init
                0x0000000010005c18       0xcc ..\..\..\libs\ble\libbtstack_central.a(bb_alarm.o)
                0x0000000010005c18                bb_timer_init
 .text          0x0000000010005ce4       0x4e ..\..\..\libs\ble\libbtstack_central.a(txpkt.o)
                0x0000000010005ce4                txpkt_list_is_empty
                0x0000000010005cf0                txpkt_init
                0x0000000010005d20                txpkt_get_available_len
 .text.txpkt.flush
                0x0000000010005d32       0x4a ..\..\..\libs\ble\libbtstack_central.a(txpkt.o)
                0x0000000010005d32                txpkt_free_for_handle
 *fill*         0x0000000010005d7c        0x0 
 .text          0x0000000010005d7c      0x772 ..\..\..\libs\ble\libbtstack_central.a(sm.o)
 .text.sm.aes   0x00000000100064ee       0x3a ..\..\..\libs\ble\libbtstack_central.a(sm.o)
 .text.sm.get_handle
                0x0000000010006528       0x16 ..\..\..\libs\ble\libbtstack_central.a(sm.o)
 .text.sm.rau_run
                0x000000001000653e       0x90 ..\..\..\libs\ble\libbtstack_central.a(sm.o)
 .text.gap.rau.update
                0x00000000100065ce       0x38 ..\..\..\libs\ble\libbtstack_central.a(sm.o)
 .text.sm.is_null
                0x0000000010006606       0x1c ..\..\..\libs\ble\libbtstack_central.a(sm.o)
                0x0000000010006606                sm_is_null
 .text.sm.er.get
                0x0000000010006622       0x3e ..\..\..\libs\ble\libbtstack_central.a(sm.o)
                0x0000000010006622                sm_get_er
 .text.sm.ir    0x0000000010006660       0x3e ..\..\..\libs\ble\libbtstack_central.a(sm.o)
                0x0000000010006660                sm_get_ir
 .text.sm.hdl   0x000000001000669e       0x12 ..\..\..\libs\ble\libbtstack_central.a(sm.o)
                0x000000001000669e                sm_add_event_handler
 .text.stack.ble.sm
                0x00000000100066b0       0xd8 ..\..\..\libs\ble\libbtstack_central.a(sm.o)
                0x00000000100066b0                ble_sm_init
 .text.sm.deinit
                0x0000000010006788        0x8 ..\..\..\libs\ble\libbtstack_central.a(sm.o)
                0x0000000010006788                sm_deinit
 .text.sm.key_size
                0x0000000010006790       0x20 ..\..\..\libs\ble\libbtstack_central.a(sm.o)
                0x0000000010006790                sm_encryption_key_size
 .text.sm.auth  0x00000000100067b0       0x20 ..\..\..\libs\ble\libbtstack_central.a(sm.o)
                0x00000000100067b0                sm_authenticated
 .text.sm.request
                0x00000000100067d0       0x92 ..\..\..\libs\ble\libbtstack_central.a(sm.o)
                0x00000000100067d0                sm_send_security_request
 .text.sm.pairing
                0x0000000010006862       0x72 ..\..\..\libs\ble\libbtstack_central.a(sm.o)
                0x0000000010006862                sm_request_pairing
 .text.sm.confirm
                0x00000000100068d4       0x26 ..\..\..\libs\ble\libbtstack_central.a(sm.o)
                0x00000000100068d4                sm_just_works_confirm
 .text.sm.passkey.get
                0x00000000100068fa       0x20 ..\..\..\libs\ble\libbtstack_central.a(sm.o)
                0x00000000100068fa                sm_passkey_input_get
 .text.sm.passkey.input
                0x000000001000691a       0x3e ..\..\..\libs\ble\libbtstack_central.a(sm.o)
                0x000000001000691a                sm_passkey_input
 .text.sm.index
                0x0000000010006958       0x14 ..\..\..\libs\ble\libbtstack_central.a(sm.o)
                0x0000000010006958                sm_le_device_index
 .text.gap.rau.mode
                0x000000001000696c       0x66 ..\..\..\libs\ble\libbtstack_central.a(sm.o)
                0x000000001000696c                gap_random_address_set_mode
 .text.gap.addr
                0x00000000100069d2        0x8 ..\..\..\libs\ble\libbtstack_central.a(sm.o)
                0x00000000100069d2                gap_random_address_get_mode
 *fill*         0x00000000100069da        0x2 
 .text.sm.run   0x00000000100069dc      0x8c2 ..\..\..\libs\ble\libbtstack_central.a(sm.o)
 .text.sm.pdu   0x000000001000729e      0x2f0 ..\..\..\libs\ble\libbtstack_central.a(sm.o)
 *fill*         0x000000001000758e        0x2 
 .text.sm.event
                0x0000000010007590      0x8dc ..\..\..\libs\ble\libbtstack_central.a(sm.o)
 .text.gap.rau_set
                0x0000000010007e6c       0x28 ..\..\..\libs\ble\libbtstack_central.a(sm.o)
                0x0000000010007e6c                gap_random_address_set
 .text.sm.addr  0x0000000010007e94        0xc ..\..\..\libs\ble\libbtstack_central.a(sm.o)
                0x0000000010007e94                gap_random_address_get
 .text.sm.reconnect
                0x0000000010007ea0       0x46 ..\..\..\libs\ble\libbtstack_central.a(sm.o)
                0x0000000010007ea0                gap_reconnect_security_setup_active
 .text          0x0000000010007ee6       0x36 ..\..\..\libs\ble\libbtstack_central.a(le_device_db_memory.o)
                0x0000000010007ee6                le_device_db_count
 .text.le.db.max
                0x0000000010007f1c        0x4 ..\..\..\libs\ble\libbtstack_central.a(le_device_db_memory.o)
                0x0000000010007f1c                ble_bonding_info_max_count
 .text.le.db.set
                0x0000000010007f20      0x114 ..\..\..\libs\ble\libbtstack_central.a(le_device_db_memory.o)
                0x0000000010007f20                le_device_db_info_save_for_index
                0x0000000010007f48                le_device_db_info_set
 .text.le.db.read
                0x0000000010008034       0x2c ..\..\..\libs\ble\libbtstack_central.a(le_device_db_memory.o)
                0x0000000010008034                le_device_db_info_load_for_index
 .text.le.db.init
                0x0000000010008060       0x52 ..\..\..\libs\ble\libbtstack_central.a(le_device_db_memory.o)
                0x0000000010008060                le_device_db_init
 .text.le.db.remove
                0x00000000100080b2       0x7e ..\..\..\libs\ble\libbtstack_central.a(le_device_db_memory.o)
                0x00000000100080b2                le_device_db_remove
 .text.le.db.add
                0x0000000010008130       0xb0 ..\..\..\libs\ble\libbtstack_central.a(le_device_db_memory.o)
                0x0000000010008130                le_device_db_add
 .text.le.db    0x00000000100081e0      0x144 ..\..\..\libs\ble\libbtstack_central.a(le_device_db_memory.o)
                0x00000000100081e0                le_device_db_info
                0x0000000010008230                le_device_db_encryption_set
                0x0000000010008298                le_device_db_encryption_get
 .text          0x0000000010008324     0x195e ..\..\..\libs\ble\libbtstack_central.a(gatt_client.o)
                0x0000000010008886                att_client_register_handler
                0x00000000100089d6                gatt_client_is_ready
                0x0000000010008e7c                gatt_client_listen_for_characteristic_value_updates
                0x0000000010008ea0                gatt_client_init
                0x0000000010008f02                gatt_client_write_value_of_characteristic_without_response
                0x0000000010008f6a                gatt_client_write_value_of_characteristic
                0x0000000010008fbc                ble_service_query_result_get_service
                0x0000000010008fc4                ble_characteristic_query_result_get_characteristic
                0x0000000010008fcc                ble_client_write_client_characteristic_configuration
                0x000000001000903c                att_client_send_func_get
                0x0000000010009bb2                gatt_client_read_value_of_characteristic_using_value_handle
                0x0000000010009c12                gatt_client_write_client_characteristic_configuration
 .text.client.get_context
                0x0000000010009c82       0x18 ..\..\..\libs\ble\libbtstack_central.a(gatt_client.o)
                0x0000000010009c82                gatt_client_get_context_for_handle
 .text.client.request_can_send
                0x0000000010009c9a       0x28 ..\..\..\libs\ble\libbtstack_central.a(gatt_client.o)
                0x0000000010009c9a                att_client_request_can_send_now_event
 .text.client.write_req
                0x0000000010009cc2       0x6c ..\..\..\libs\ble\libbtstack_central.a(gatt_client.o)
                0x0000000010009cc2                att_write_request
                0x0000000010009d0e                ble_write_req_for_character
 *fill*         0x0000000010009d2e        0x2 
 .text.sm.client
                0x0000000010009d30      0x15a ..\..\..\libs\ble\libbtstack_central.a(gatt_client.o)
                0x0000000010009d30                ble_sm_client_event_do
 .text.client.deserialize_service
                0x0000000010009e8a       0x48 ..\..\..\libs\ble\libbtstack_central.a(gatt_client.o)
                0x0000000010009e8a                gatt_client_deserialize_service
 .text.client.deserialize_characteristic
                0x0000000010009ed2       0x58 ..\..\..\libs\ble\libbtstack_central.a(gatt_client.o)
                0x0000000010009ed2                gatt_client_deserialize_characteristic
 .text.client.send_req
                0x0000000010009f2a       0x16 ..\..\..\libs\ble\libbtstack_central.a(gatt_client.o)
                0x0000000010009f2a                btstack_ble_client_send_req
 .text.client.find_services
                0x0000000010009f40       0x48 ..\..\..\libs\ble\libbtstack_central.a(gatt_client.o)
                0x0000000010009f40                gatt_client_discover_primary_services
                0x0000000010009f7c                ble_client_discover_primary_services
 .text.client.find_character
                0x0000000010009f88       0x54 ..\..\..\libs\ble\libbtstack_central.a(gatt_client.o)
                0x0000000010009f88                gatt_client_discover_characteristics_for_service
                0x0000000010009fce                ble_client_discover_characteristics_for_service
 .text.client.read_long_value_offset
                0x0000000010009fdc       0x3a ..\..\..\libs\ble\libbtstack_central.a(gatt_client.o)
                0x0000000010009fdc                gatt_client_read_long_value_of_characteristic_using_value_handle_with_offset
 .text          0x000000001000a016      0x1ae ..\..\..\libs\ble\libbtstack_central.a(att_server.o)
                0x000000001000a132                att_server_handler_list_init
                0x000000001000a13a                att_server_can_send_packet_now
 .text.server.indicate
                0x000000001000a1c4       0x98 ..\..\..\libs\ble\libbtstack_central.a(att_server.o)
                0x000000001000a1c4                att_server_indicate
 .text.server.mtu_get
                0x000000001000a25c       0x24 ..\..\..\libs\ble\libbtstack_central.a(att_server.o)
                0x000000001000a25c                ble_att_get_mtu
 .text          0x000000001000a280      0x1da ..\..\..\libs\ble\libbtstack_central.a(att_dispatch.o)
                0x000000001000a376                att_dispatch_connected_event
                0x000000001000a3cc                att_dispatch_disconnected_event
                0x000000001000a3f4                att_dispatch_connect_param_update_event
                0x000000001000a422                att_dispatch_encryption_change_event
                0x000000001000a452                att_dispatch_sm_event
 .text.att.register_client
                0x000000001000a45a       0x14 ..\..\..\libs\ble\libbtstack_central.a(att_dispatch.o)
                0x000000001000a45a                att_dispatch_register_client
 .text.att.dispatch_server
                0x000000001000a46e        0x6 ..\..\..\libs\ble\libbtstack_central.a(att_dispatch.o)
                0x000000001000a46e                att_dispatch_can_send_now
 .text.att.dispatch_client
                0x000000001000a474        0xe ..\..\..\libs\ble\libbtstack_central.a(att_dispatch.o)
                0x000000001000a474                att_dispatch_client_request_can_send_now_event
 .text.att.client_mtu
                0x000000001000a482        0xe ..\..\..\libs\ble\libbtstack_central.a(att_dispatch.o)
                0x000000001000a482                att_dispatch_client_mtu_exchanged
 *fill*         0x000000001000a490        0x0 
 .text          0x000000001000a490      0xddc ..\..\..\libs\ble\libbtstack_central.a(att_db.o)
                0x000000001000a68a                att_uuid_for_handle
                0x000000001000a6b4                att_set_db
                0x000000001000a6bc                att_set_read_callback
                0x000000001000a6c4                att_set_write_callback
                0x000000001000a6cc                handle_exchange_mtu_request
                0x000000001000a6f4                att_clear_transaction_queue
                0x000000001000a710                att_prepare_handle_value_indication
                0x000000001000a74e                att_handle_request
                0x000000001000b118                gatt_server_get_get_handle_range_for_service_with_uuid16
                0x000000001000b19e                gatt_server_get_value_handle_for_characteristic_with_uuid16
                0x000000001000b1e0                gatt_server_get_client_configuration_handle_for_characteristic_with_uuid16
 .text.att.mtu_request
                0x000000001000b26c       0x3a ..\..\..\libs\ble\libbtstack_central.a(att_db.o)
                0x000000001000b26c                att_exchange_mtu_request
 .text.att_server.mtu_rsp
                0x000000001000b2a6       0x2a ..\..\..\libs\ble\libbtstack_central.a(att_db.o)
                0x000000001000b2a6                handle_exchange_mtu_response
 .text          0x000000001000b2d0       0xe8 ..\..\..\libs\ble\libbtstack_central.a(btstack_api.o)
                0x000000001000b2d0                btstack_ble_enable_adv
                0x000000001000b322                btstack_ble_enable_scan
                0x000000001000b326                btstack_ble_disable_scan
                0x000000001000b32a                btstack_ble_set_scan_param
                0x000000001000b32e                btstack_ble_conn_by_addr
                0x000000001000b352                btstack_ble_sm_passkey_input
                0x000000001000b368                btstack_ble_sm_send_security_request
                0x000000001000b36c                btstack_ble_single_tone_mode_enter
                0x000000001000b388                btstack_ble_set_random_static_addr
                0x000000001000b398                btstack_ble_add_dev_to_white_list
                0x000000001000b39a                btstack_ble_rmv_dev_from_white_list
                0x000000001000b39c                btstack_ble_disable_adv
                0x000000001000b39e                btstack_ble_set_adv_param
                0x000000001000b3a0                btstack_ble_set_ext_adv_param
                0x000000001000b3a2                btstack_ble_rslv_enable
                0x000000001000b3a4                btstack_ble_rslv_renew_to_set
                0x000000001000b3a6                btstack_ble_add_dev_to_ral_list
                0x000000001000b3a8                btstack_ble_rmv_dev_from_ral_list
                0x000000001000b3aa                btstack_var_init
                0x000000001000b3b4                btstack_ble_get_conn_rssi
 .text.stack.sleep
                0x000000001000b3b8       0x24 ..\..\..\libs\ble\libbtstack_central.a(btstack_api.o)
                0x000000001000b3b8                btstack_exit_sleep
                0x000000001000b3c4                btstack_enter_sleep
 .text.ble.hci  0x000000001000b3dc       0x64 ..\..\..\libs\ble\libbtstack_central.a(btstack_api.o)
                0x000000001000b3dc                btstack_ble_set_adv_interval
                0x000000001000b3de                btstack_ble_disconnect
                0x000000001000b43c                btstack_ble_set_adv_data
                0x000000001000b43e                btstack_ble_set_scan_rsp_data
 .text.stack.setup
                0x000000001000b440       0x4c ..\..\..\libs\ble\libbtstack_central.a(btstack_api.o)
 .text.stack.api
                0x000000001000b48c       0x34 ..\..\..\libs\ble\libbtstack_central.a(btstack_api.o)
                0x000000001000b4ac                btstack_init
 .text          0x000000001000b4c0       0x40 ..\..\..\libs\ble\libbtstack_central.a(ble_api.o)
                0x000000001000b4ec                ble_msg_free_prepare
 .text.stack.api
                0x000000001000b500       0x56 ..\..\..\libs\ble\libbtstack_central.a(ble_api.o)
                0x000000001000b500                btstack_deinit
                0x000000001000b528                ble_setup
 .text.ble.api.scan.dis
                0x000000001000b556        0xc ..\..\..\libs\ble\libbtstack_central.a(ble_api.o)
                0x000000001000b556                ble_scan_dis
 .text.ble.api.scan.en
                0x000000001000b562        0xc ..\..\..\libs\ble\libbtstack_central.a(ble_api.o)
                0x000000001000b562                ble_scan_en
 .text.ble.api.scan.set
                0x000000001000b56e       0x2c ..\..\..\libs\ble\libbtstack_central.a(ble_api.o)
                0x000000001000b56e                ble_set_scan_param
 .text.ble.api.conn_do
                0x000000001000b59a       0x84 ..\..\..\libs\ble\libbtstack_central.a(ble_api.o)
                0x000000001000b59a                ble_connect_by_addr
 .text.ble.api.regist
                0x000000001000b61e        0x6 ..\..\..\libs\ble\libbtstack_central.a(ble_api.o)
                0x000000001000b61e                ble_init_callback_register
                0x000000001000b622                ble_vs_tbox_init_callback_register
 .text          0x000000001000b624       0x44 ..\..\..\libs\ble\libbtstack_central.a(txpkt.o)
                0x000000001000b624                txpkt_mem_init
                0x000000001000b63e                txpkt_malloc
                0x000000001000b64a                txpkt_free
                0x000000001000b654                txpkt_list_pop_front
                0x000000001000b65e                txpkt_list_extract
 .text.bb.aes   0x000000001000b668      0x19a ..\..\..\libs\ble\libbtstack_central.a(aes.o)
                0x000000001000b668                aes_init
                0x000000001000b6b2                aes_alloc
                0x000000001000b6d4                aes_start
                0x000000001000b712                aes_encrypt
                0x000000001000b75e                aes_rand
                0x000000001000b79a                aes_result_handler
 .text          0x000000001000b802       0x34 ..\..\..\libs\ble\libbtstack_central.a(extern.o)
                0x000000001000b818                bt_rf_get_fcc_param
                0x000000001000b820                private_freq_bands_hook
                0x000000001000b824                private_access_code_hook
                0x000000001000b82e                ble_tbox_feature_req_enabled
                0x000000001000b832                ble_chmap_instant_pass_discon
 .text          0x000000001000b836       0x7a ..\..\..\libs\ble\libbtstack_central.a(rf.o)
                0x000000001000b836                rf_off
                0x000000001000b84e                rf_reset
                0x000000001000b850                rf_init
 .text.rf.tx_tone
                0x000000001000b8b0       0x54 ..\..\..\libs\ble\libbtstack_central.a(rf.o)
                0x000000001000b8b0                rf_single_tone_enter
 *fill*         0x000000001000b904       0xfc 
 .text          0x000000001000ba00      0x56c ..\..\..\libs\ble\libbtstack_central.a(ble_con.o)
                0x000000001000ba00                ble_con_start_do
                0x000000001000ba28                ble_con_start
                0x000000001000be00                ble_con_stop
                0x000000001000be80                ble_con_offset_get
                0x000000001000beba                ble_con_peer_sca_set
 .text.le.con   0x000000001000bf6c       0x84 ..\..\..\libs\ble\libbtstack_central.a(ble_con.o)
                0x000000001000bf6c                ble_get_con_var
                0x000000001000bf74                ble_get_con_rssi
                0x000000001000bf8a                ble_con_init
 .text          0x000000001000bff0      0x130 ..\..\..\libs\ble\libbtstack_central.a(ble_buf.o)
                0x000000001000bff0                ble_buf_init_do
                0x000000001000c0d6                ble_buf_init
 *fill*         0x000000001000c120       0x20 
 .text.bb.buf   0x000000001000c140       0x98 ..\..\..\libs\ble\libbtstack_central.a(ble_buf.o)
                0x000000001000c140                ble_buf_acl_tx_elt_get
                0x000000001000c180                ble_buf_acl_tx_elt_set
 .text.le.stack
                0x000000001000c1d8       0x28 ..\..\..\libs\ble\libbtstack_central.a(ble_buf.o)
                0x000000001000c1d8                ble_msg_malloc
                0x000000001000c1e0                ble_msg_free
                0x000000001000c1e8                ble_msg_wrap
                0x000000001000c1f6                ble_msg_unwrap
 .text          0x000000001000c200       0x40 ..\..\..\libs\ble\libbtstack_central.a(ble.o)
                0x000000001000c200                ble_init
 .text.ble.var.init
                0x000000001000c240       0x56 ..\..\..\libs\ble\libbtstack_central.a(ble.o)
                0x000000001000c240                ble_var_init
 .text          0x000000001000c296      0x29c ..\..\..\libs\ble\libbtstack_central.a(bb.o)
                0x000000001000c2b8                bb_rand_init
                0x000000001000c2c0                bb_get_heap_info
                0x000000001000c2d2                bb_var_init
                0x000000001000c2da                bb_nanos_mem_init
                0x000000001000c320                bb_reset
                0x000000001000c3ac                bb_init
                0x000000001000c4d2                bb_off
 .text          0x000000001000c532       0x2e ..\..\..\libs\ble\libbtstack_central.a(extern_ble.o)
                0x000000001000c55a                ble_sync_link_info
 .text          0x000000001000c560       0x60 ..\..\..\libs\ble\libbtstack_central.a(l2cap.o)
                0x000000001000c5aa                l2cap_register_packet_handler
                0x000000001000c5b2                l2cap_max_le_mtu
 .text.stk.l2cap.txreq
                0x000000001000c5c0       0x96 ..\..\..\libs\ble\libbtstack_central.a(l2cap.o)
 .text.stack.l2cap
                0x000000001000c656      0x118 ..\..\..\libs\ble\libbtstack_central.a(l2cap.o)
                0x000000001000c752                l2cap_get_outgoing_buffer
                0x000000001000c764                l2cap_reserve_packet_buffer
                0x000000001000c76a                l2cap_release_packet_buffer
 .text.stack.handler.l2cap
                0x000000001000c76e      0x160 ..\..\..\libs\ble\libbtstack_central.a(l2cap.o)
                0x000000001000c8ca                l2cap_can_send_fixed_channel_packet_now
 .text.stack.setup
                0x000000001000c8ce       0x70 ..\..\..\libs\ble\libbtstack_central.a(l2cap.o)
                0x000000001000c8ce                l2cap_init
                0x000000001000c91c                l2cap_register_fixed_channel
 .text.stack.l2cap.connectionless
                0x000000001000c93e       0x40 ..\..\..\libs\ble\libbtstack_central.a(l2cap.o)
                0x000000001000c93e                l2cap_send_connectionless
 .text.stack.setup
                0x000000001000c97e        0x2 ..\..\..\libs\ble\libbtstack_central.a(hci_dump.o)
                0x000000001000c97e                hci_dump_open
 .text.stack.hci_send
                0x000000001000c980      0x322 ..\..\..\libs\ble\libbtstack_central.a(hci_cmd.o)
                0x000000001000c980                hci_cmd_create_from_template
 .text          0x000000001000cca2      0x34a ..\..\..\libs\ble\libbtstack_central.a(hci.o)
                0x000000001000cca2                hci_get_state
                0x000000001000ccaa                ble_get_scan_sta
                0x000000001000ccb2                hci_shutdown_connection
                0x000000001000ccd8                gap_le_get_own_address
                0x000000001000cd0e                hci_le_set_own_address_type
                0x000000001000cd22                hci_le_random_address_set
                0x000000001000cd30                le_handle_advertisement_report
                0x000000001000cd9c                gap_set_connection_parameters
                0x000000001000cdb4                gap_get_connection_parameters
                0x000000001000cddc                gap_get_connection_parameters_for_handle
                0x000000001000ce12                gap_start_scan
                0x000000001000ce38                gap_stop_scan
                0x000000001000ce5a                gap_set_scan_parameters
                0x000000001000ce6e                gap_set_scan_parameters_do
                0x000000001000ce9a                gap_set_connection_outgoing_addr
                0x000000001000ceb8                gap_update_connection_parameters_do
                0x000000001000cef0                gap_update_connection_parameters
                0x000000001000cf24                gap_advertisements_set_data
                0x000000001000cf26                gap_scan_response_set_data
                0x000000001000cf28                gap_advertisements_enable
                0x000000001000cf2a                gap_ext_advertisements_set_data
                0x000000001000cf2c                gap_ext_scan_response_set_data
                0x000000001000cf2e                gap_ext_advertisements_enable
                0x000000001000cf30                gap_ext_advertisements_set_params
                0x000000001000cf32                ble_per_advertisements_set_data
                0x000000001000cf34                ble_per_advertisements_enable
                0x000000001000cf36                ble_per_advertisements_add_device_list
                0x000000001000cf38                ble_per_advertisements_creat_sync
                0x000000001000cf3a                ble_per_advertisements_creat_sync_cancel
                0x000000001000cf3c                ble_per_advertisements_terminate_sync
                0x000000001000cf3e                gap_create_connect
                0x000000001000cf7c                gap_disconnect
                0x000000001000cfce                hci_rx_flush
                0x000000001000cfd0                hci_packet_send_finish
 .text.stack.hci_init
                0x000000001000cfec       0x88 ..\..\..\libs\ble\libbtstack_central.a(hci.o)
                0x000000001000d00c                hci_power_control
 .text.stack.handler.acl
                0x000000001000d074       0x14 ..\..\..\libs\ble\libbtstack_central.a(hci.o)
 .text.stack.setup
                0x000000001000d088       0xc2 ..\..\..\libs\ble\libbtstack_central.a(hci.o)
                0x000000001000d0ce                hci_add_event_handler
                0x000000001000d0e0                hci_register_acl_packet_handler
                0x000000001000d0e8                hci_init
 .text.stack.hci
                0x000000001000d14a      0x214 ..\..\..\libs\ble\libbtstack_central.a(hci.o)
                0x000000001000d19a                hci_number_free_acl_slots_for_handle
                0x000000001000d1b2                hci_can_send_command_packet_now
                0x000000001000d1f0                hci_can_send_acl_le_packet_now
                0x000000001000d22e                hci_can_send_prepared_acl_packet_now
                0x000000001000d23c                hci_can_send_acl_packet_now
                0x000000001000d24a                hci_is_packet_buffer_reserved
                0x000000001000d252                hci_reserve_packet_buffer
                0x000000001000d28a                hci_release_packet_buffer
 .text.stack.hci.conn
                0x000000001000d35e       0xcc ..\..\..\libs\ble\libbtstack_central.a(hci.o)
                0x000000001000d35e                get_free_hci_connection
                0x000000001000d37a                create_connection_for_bd_addr_and_type
                0x000000001000d3f2                hci_connection_for_bd_addr_and_type
 .text.ble.hci  0x000000001000d42a      0x184 ..\..\..\libs\ble\libbtstack_central.a(hci.o)
                0x000000001000d42a                ble_event_cmd_complete
                0x000000001000d49a                ble_event_meta
 .text.stack.hci_send
                0x000000001000d5ae       0xd0 ..\..\..\libs\ble\libbtstack_central.a(hci.o)
                0x000000001000d5ae                hci_send_cmd_packet
                0x000000001000d63c                hci_send_cmd
 .text.stack.hci.run
                0x000000001000d67e      0x184 ..\..\..\libs\ble\libbtstack_central.a(hci.o)
 .text.stack.hci_rx
                0x000000001000d802       0xdc ..\..\..\libs\ble\libbtstack_central.a(hci.o)
 .text.stack.hci_emit
                0x000000001000d8de       0x2c ..\..\..\libs\ble\libbtstack_central.a(hci.o)
                0x000000001000d8de                hci_emit_state
 .text          0x000000001000d90a       0x42 ..\..\..\libs\ble\libbtstack_central.a(btstack_util.o)
                0x000000001000d90a                log_info_hexdump
                0x000000001000d90c                log_info_key
                0x000000001000d90e                uuid_add_bluetooth_prefix
                0x000000001000d930                uuid_has_bluetooth_prefix
 .text.stack.util
                0x000000001000d94c      0x126 ..\..\..\libs\ble\libbtstack_central.a(btstack_util.o)
                0x000000001000d94c                bd_addr_cmp
                0x000000001000d952                bd_addr_copy
                0x000000001000d958                big_endian_read_16
                0x000000001000d968                big_endian_read_32
                0x000000001000d988                big_endian_store_16
                0x000000001000d99c                big_endian_store_32
                0x000000001000d9d0                reverse_bytes
                0x000000001000d9ec                reverse_24
                0x000000001000d9f0                reverse_48
                0x000000001000d9f4                reverse_56
                0x000000001000d9f8                reverse_64
                0x000000001000d9fc                reverse_128
                0x000000001000da00                reverse_256
                0x000000001000da06                reverse_bd_addr
                0x000000001000da08                btstack_min
                0x000000001000da0e                btstack_max
                0x000000001000da14                char_for_nibble
                0x000000001000da3a                nibble_for_char
 .text.stack.hci_dump
                0x000000001000da72       0x50 ..\..\..\libs\ble\libbtstack_central.a(btstack_util.o)
                0x000000001000da72                bd_addr_to_str
 .text          0x000000001000dac2        0x2 ..\..\..\libs\ble\libbtstack_central.a(btstack_run_loop.o)
                0x000000001000dac2                thread_nanos_task_create
 *fill*         0x000000001000dac4       0x3c 
 .text.stack.run_loop
                0x000000001000db00      0x16a ..\..\..\libs\ble\libbtstack_central.a(btstack_run_loop.o)
                0x000000001000db00                btstack_run_loop_set_timer_handler
                0x000000001000db04                btstack_run_loop_set_data_source_handler
                0x000000001000db08                btstack_run_loop_set_data_source_fd
                0x000000001000db0c                btstack_run_loop_get_data_source_fd
                0x000000001000db10                btstack_run_loop_enable_data_source_callbacks
                0x000000001000db1c                btstack_run_loop_disable_data_source_callbacks
                0x000000001000db2c                btstack_run_loop_add_data_source
                0x000000001000db3e                btstack_run_loop_remove_data_source
                0x000000001000db50                btstack_run_loop_set_timer
                0x000000001000db6a                btstack_run_loop_set_timer_context
                0x000000001000db6e                btstack_run_loop_get_timer_context
                0x000000001000db80                btstack_run_loop_set_trig_ticks
                0x000000001000dbbc                btstack_run_loop_add_timer
                0x000000001000dbec                btstack_run_loop_remove_timer
                0x000000001000dc24                btstack_run_loop_get_ticks
                0x000000001000dc2e                btstack_run_loop_ticks_for_ms
                0x000000001000dc34                btstack_run_loop_get_time_ms
                0x000000001000dc40                btstack_run_loop_timer_dump
 .text.stack.setup
                0x000000001000dc6a       0x2e ..\..\..\libs\ble\libbtstack_central.a(btstack_run_loop.o)
                0x000000001000dc6a                btstack_run_loop_init
 .text          0x000000001000dc98       0x2c ..\..\..\libs\ble\libbtstack_central.a(btstack_memory.o)
                0x000000001000dc98                btstack_memory_gatt_client_get
                0x000000001000dca2                btstack_memory_gatt_client_free
                0x000000001000dcae                btstack_memory_gatt_client_init
 .text          0x000000001000dcc4       0x24 ..\..\..\libs\ble\libbtstack_central.a(gatt_server.o)
                0x000000001000dcc4                att_server_send_func_get
 .text.ble.indicate
                0x000000001000dce8       0x6c ..\..\..\libs\ble\libbtstack_central.a(gatt_server.o)
                0x000000001000dce8                ble_send_indicate_packet
                0x000000001000dcfc                ble_indicate_for_handle
 .text          0x000000001000dd54        0x2 ..\..\..\libs\ble\libbtstack_central.a(hci_transport_h3_controller.o)
                0x000000001000dd54                hci_init_var
 .text          0x000000001000dd56       0x12 ..\..\..\libs\ble\libbtstack_central.a(hci_transport_dummy.o)
                0x000000001000dd56                hci_iodm_init
                0x000000001000dd58                hci_transport_setup
 .text          0x000000001000dd68        0xa ..\..\..\libs\ble\libbtstack_central.a(btstack_main.o)
                0x000000001000dd68                btstack_ble_set_init_callback
                0x000000001000dd70                btstack_ble_vs_tbox_set_init_callback
 .text.stack.handler
                0x000000001000dd72       0x3c ..\..\..\libs\ble\libbtstack_central.a(btstack_main.o)
 .text.stack.ble.setup
                0x000000001000ddae        0x4 ..\..\..\libs\ble\libbtstack_central.a(btstack_main.o)
                0x000000001000ddae                btstack_ble_init
 .text.stack.setup
                0x000000001000ddb2       0x34 ..\..\..\libs\ble\libbtstack_central.a(btstack_main.o)
                0x000000001000ddb2                btstack_main
 .text          0x000000001000dde6       0x18 ..\..\..\libs\ble\libbtstack_central.a(btstack_hal.o)
                0x000000001000dde6                hal_tick_init
                0x000000001000ddec                hal_tick_set_handler
 .text          0x000000001000ddfe       0x76 ..\..\..\libs\ble\libbtstack_central.a(nanos.o)
                0x000000001000ddfe                nanos_init
                0x000000001000de34                nanos_var_init
 .text          0x000000001000de74       0x34 ..\..\..\libs\ble\libbtstack_central.a(bb_sche.o)
                0x000000001000de74                bb_sche_frag_ble_dur_set
                0x000000001000de86                bb_sche_init
 .text          0x000000001000dea8       0xae ..\..\..\libs\ble\libbtstack_central.a(patch.o)
                0x000000001000dea8                bb_patch_dummy
                0x000000001000deaa                bb_patch_init
 .text          0x000000001000df56       0x9c ..\..\..\libs\ble\libbtstack_central.a(vs.o)
                0x000000001000df56                vs_init
                0x000000001000df92                vs_reset_complete_evt
 .text          0x000000001000dff2      0x2ca ..\..\..\libs\ble\libbtstack_central.a(rf_mate.o)
                0x000000001000e0d8                rfphy_tx
                0x000000001000e28a                rfphy_test
                0x000000001000e28c                ble_rf_external_pa_init
 .text.rfphy.other
                0x000000001000e2bc       0x8a ..\..\..\libs\ble\libbtstack_central.a(rf_mate.o)
 .text.rf.param.init
                0x000000001000e346       0xda ..\..\..\libs\ble\libbtstack_central.a(rf_mate.o)
 .text.bb.rf    0x000000001000e420       0x7a ..\..\..\libs\ble\libbtstack_central.a(rf_mate.o)
                0x000000001000e420                rfphy_sw_ctrl
                0x000000001000e450                rfphy_tx_pwr
 .text.bb.phy.tx
                0x000000001000e49a       0x8c ..\..\..\libs\ble\libbtstack_central.a(rf_mate.o)
                0x000000001000e49a                rfphy_tx_tone
 .text          0x000000001000e526        0x2 ..\..\..\libs\ble\libbtstack_central.a(ble_hook.o)
                0x000000001000e526                ble_hal_init_hook
 .text          0x000000001000e528      0x402 ..\..\..\libs\ble\libbtstack_central.a(hct_proc.o)
                0x000000001000e88a                hct_register_handler_evt
                0x000000001000e892                hct_register_handler_acl
                0x000000001000e89a                hct_acl_block_request
                0x000000001000e8ea                hct_init_do
 *fill*         0x000000001000e92a       0x56 
 .text          0x000000001000e980      0x2dc ..\..\..\libs\ble\libbtstack_central.a(hct.o)
                0x000000001000e980                hct_init
                0x000000001000e990                hci_send_2_host
                0x000000001000e9c4                hci_cmd_send_2_controller
                0x000000001000ea74                hci_acl_send_2_controller
                0x000000001000eb80                hci_malloc_for_cmd_tmpl
                0x000000001000ebd2                hci_malloc_for_acl_tx
                0x000000001000ebf0                hci_ble_conhdl_register
                0x000000001000ebfe                hci_ble_conhdl_unregister
 .text          0x000000001000ec5c      0x164 ..\..\..\libs\ble\libbtstack_central.a(mgr_hci.o)
                0x000000001000edac                hci_le_rd_buff_size
 .text.le.mgr   0x000000001000edc0       0x38 ..\..\..\libs\ble\libbtstack_central.a(mgr_hci.o)
                0x000000001000edc0                hci_command_mgr_func
 .text          0x000000001000edf8      0x4a0 ..\..\..\libs\ble\libbtstack_central.a(mgr.o)
                0x000000001000edf8                mgr_cmd_cmp_send
                0x000000001000ee20                mgr_cmd_stat_send
                0x000000001000ee48                mgr_is_dev_connected
                0x000000001000eeb2                mgr_ral_is_empty
                0x000000001000eeb6                mgr_ch_map_update
                0x000000001000f016                mgr_init
                0x000000001000f11a                mgr_clk_acc_set
                0x000000001000f158                mgr_link_disc
                0x000000001000f18c                mgr_master_ch_map_get
                0x000000001000f194                mgr_le_evt_mask_check
                0x000000001000f1ae                mgr_le_get_features
                0x000000001000f20a                mgr_le_get_tbox_feat
                0x000000001000f218                mgr_plan_elt_get
                0x000000001000f226                mgr_act_get_free
                0x000000001000f276                mgr_act_set_free
 .text          0x000000001000f298      0x438 ..\..\..\libs\ble\libbtstack_central.a(ll_scan.o)
                0x000000001000f298                hci_le_set_scan_param_cmd_func
                0x000000001000f3f2                hci_le_set_scan_en_cmd_func
 .text.le.ll_scan
                0x000000001000f6d0      0x60c ..\..\..\libs\ble\libbtstack_central.a(ll_scan.o)
                0x000000001000f6d0                ble_adv_rep_ind_func
                0x000000001000fc4c                ble_scan_end_ind_func
 .text          0x000000001000fcdc      0x198 ..\..\..\libs\ble\libbtstack_central.a(ll_cntl.o)
                0x000000001000fcdc                ble_cntl_rx_ind_func
 .text.le.ll_cntl.pdu
                0x000000001000fe74       0x1a ..\..\..\libs\ble\libbtstack_central.a(ll_cntl.o)
 .text.le.ll_cntl.send
                0x000000001000fe8e       0xa2 ..\..\..\libs\ble\libbtstack_central.a(ll_cntl.o)
                0x000000001000fe8e                ll_cntl_send
 .text.le.ll_cntl.pdu
                0x000000001000ff30      0x112 ..\..\..\libs\ble\libbtstack_central.a(ll_clk_acc.o)
                0x000000001000ff30                ll_clk_acc_req_func
                0x000000001000ff8a                ll_clk_acc_rsp_func
 .text          0x0000000010010042      0x348 ..\..\..\libs\ble\libbtstack_central.a(ll_chmap_upd.o)
                0x000000001001027a                ll_op_ch_map_upd_ind_func
                0x00000000100102e2                mgr_ch_map_update_ind_func
                0x0000000010010362                ble_ch_map_upd_cfm_func
 .text.le.ll_cntl.pdu
                0x000000001001038a      0x1da ..\..\..\libs\ble\libbtstack_central.a(ll_chmap_upd.o)
                0x000000001001038a                ll_channel_map_ind_func
                0x00000000100104ba                ll_min_used_channels_ind_func
 .text.le.ll_cntl
                0x0000000010010564       0x68 ..\..\..\libs\ble\libbtstack_central.a(ll.o)
                0x0000000010010564                ll_init
 .text.le.ll_cntl.start
                0x00000000100105cc      0x244 ..\..\..\libs\ble\libbtstack_central.a(ll.o)
                0x00000000100105cc                ll_start
 .text          0x0000000010010810       0x28 ..\..\..\libs\ble\libbtstack_central.a(ble_test.o)
                0x0000000010010810                ble_test_init
                0x0000000010010830                ble_get_test_var
 .text.bb.ble.test.start
                0x0000000010010838       0x2e ..\..\..\libs\ble\libbtstack_central.a(ble_test.o)
                0x0000000010010838                ble_test_start
 .text          0x0000000010010866        0x4 ..\..\..\libs\ble\libbtstack_central.a(ble_sync.o)
                0x0000000010010866                ble_get_sync_var
 .text          0x000000001001086a       0x84 ..\..\..\libs\ble\libbtstack_central.a(ble_scan.o)
                0x000000001001086a                ble_get_scan_var
                0x0000000010010872                ble_get_ssync_var
                0x000000001001087a                ble_scan_init
 .text          0x00000000100108ee       0x72 ..\..\..\libs\ble\libbtstack_central.a(ble_init.o)
                0x00000000100108ee                ble_init_init
                0x0000000010010958                ble_get_init_var
 .text          0x0000000010010960      0x29e ..\..\..\libs\ble\libbtstack_central.a(ble_hal.o)
                0x0000000010010960                ble_get_rslv_var
                0x0000000010010964                ble_hal_init
                0x0000000010010b58                ble_ch_assess_data_get
                0x0000000010010b60                ble_aa_gen
 .text.stack.l2cap_sig
                0x0000000010010bfe      0x126 ..\..\..\libs\ble\libbtstack_central.a(l2cap_signaling.o)
                0x0000000010010bfe                l2cap_create_signaling_le
 .text.stack.memory
                0x0000000010010d24       0x46 ..\..\..\libs\ble\libbtstack_central.a(btstack_memory_pool.o)
                0x0000000010010d24                btstack_memory_pool_get
                0x0000000010010d30                btstack_memory_pool_free
                0x0000000010010d44                btstack_memory_pool_create
 .text          0x0000000010010d6a       0xb6 ..\..\..\libs\ble\libbtstack_central.a(vs_proc.o)
 .text.bb.vs.fcc_ble.do
                0x0000000010010e20       0x8a ..\..\..\libs\ble\libbtstack_central.a(vs_fcc.o)
                0x0000000010010e20                vs_ble_test_do
 .text.bb.vs.fcc
                0x0000000010010eaa       0xc2 ..\..\..\libs\ble\libbtstack_central.a(vs_fcc.o)
                0x0000000010010eaa                vs_ble_test
                0x0000000010010eae                vs_fcc_test_cmd
 .text          0x0000000010010f6c        0x4 ..\..\..\libs\ble\libbtstack_central.a(scan_hook.o)
                0x0000000010010f6c                ble_scan_end_ind_hook
 .text          0x0000000010010f70      0x112 ..\..\..\libs\ble\libbtstack_central.a(hct_msg.o)
                0x0000000010010f70                hci_look_for_cmd_desc
                0x0000000010010ffa                hci_look_for_evt_desc
                0x000000001001103c                hci_look_for_dbg_evt_desc
                0x0000000010011040                hci_look_for_le_evt_desc
 .text          0x0000000010011082      0x220 ..\..\..\libs\ble\libbtstack_central.a(mgr_test.o)
                0x00000000100110a4                ble_test_end_ind_func
                0x00000000100110e6                hci_le_rx_test_v1_cmd_func
                0x000000001001112c                hci_le_tx_test_v1_cmd_func
                0x0000000010011190                hci_le_rx_test_v2_cmd_func
                0x00000000100111f0                hci_le_tx_test_v2_cmd_func
                0x0000000010011266                hci_le_test_end_cmd_func
 .text          0x00000000100112a2       0x54 ..\..\..\libs\ble\libbtstack_central.a(mgr_proc.o)
 .text          0x00000000100112f6      0xc0a ..\..\..\libs\ble\libbtstack_central.a(mgr_init.o)
                0x00000000100112f6                hci_le_create_con_cmd_func
                0x00000000100116e0                hci_le_ext_create_con_cmd_func
                0x0000000010011aca                hci_le_create_con_cancel_cmd_func
                0x0000000010011b3c                ble_init_end_ind_func
 .text          0x0000000010011f00       0x60 ..\..\..\libs\ble\libbtstack_central.a(ll_version.o)
                0x0000000010011f2c                ble_ll_version_get
 .text.le.ll_cntl.pdu
                0x0000000010011f60      0x14e ..\..\..\libs\ble\libbtstack_central.a(ll_version.o)
                0x0000000010011f60                ll_version_ind_func
 .text          0x00000000100120ae      0x236 ..\..\..\libs\ble\libbtstack_central.a(ll_proc.o)
                0x00000000100120ce                hci_command_ll_func
                0x0000000010012106                ble_acl_rx_ind_func
                0x000000001001227a                ble_acl_tx_cfm_func
                0x000000001001228a                ll_cmd_cmp_send
                0x00000000100122bc                ll_cmd_stat_send
 *fill*         0x00000000100122e4        0x0 
 .text          0x00000000100122e4      0xa26 ..\..\..\libs\ble\libbtstack_central.a(ll_phy_upd.o)
                0x0000000010012baa                ll_op_phy_upd_ind_func
                0x0000000010012c46                ble_phy_upd_cfm_func
                0x0000000010012c86                ll_phy_upd_proc_start
 .text.le.ll_cntl.pdu
                0x0000000010012d0a      0x264 ..\..\..\libs\ble\libbtstack_central.a(ll_phy_upd.o)
                0x0000000010012d0a                ll_phy_req_func
                0x0000000010012de0                ll_phy_rsp_func
                0x0000000010012e7a                ll_phy_update_ind_func
 .text          0x0000000010012f6e      0x3ae ..\..\..\libs\ble\libbtstack_central.a(ll_length.o)
                0x0000000010013212                ll_op_length_upd_ind_func
                0x0000000010013280                ll_length_proc_start_for_param
                0x00000000100132e8                ll_length_proc_start
 .text.le.ll_cntl.pdu
                0x000000001001331c      0x214 ..\..\..\libs\ble\libbtstack_central.a(ll_length.o)
                0x000000001001331c                ll_length_req_func
                0x000000001001348e                ll_length_rsp_func
 .text          0x0000000010013530      0x292 ..\..\..\libs\ble\libbtstack_central.a(ll_feature.o)
                0x00000000100136f6                ll_op_feats_exch_ind_func
                0x0000000010013772                ll_feature_exchange_proc_start
 .text.le.ll_cntl.pdu
                0x00000000100137c2      0x168 ..\..\..\libs\ble\libbtstack_central.a(ll_feature.o)
                0x00000000100137c2                ll_feature_req_func
                0x0000000010013836                ll_slave_feature_req_func
                0x00000000100138aa                ll_feature_rsp_func
 *fill*         0x000000001001392a        0x2 
 .text          0x000000001001392c      0xc6c ..\..\..\libs\ble\libbtstack_central.a(ll_encrypt.o)
                0x0000000010014202                hci_le_en_enc_cmd_func
                0x00000000100142e6                hci_le_ltk_req_reply_cmd_func
                0x0000000010014364                hci_le_ltk_req_neg_reply_cmd_func
                0x00000000100143fe                ll_encrypt_ind_func
                0x0000000010014528                ll_op_encrypt_ind_func
 .text.le.ll_cntl.pdu
                0x0000000010014598      0x348 ..\..\..\libs\ble\libbtstack_central.a(ll_encrypt.o)
                0x0000000010014598                ll_pause_enc_req_func
                0x000000001001461e                ll_pause_enc_rsp_func
                0x000000001001468a                ll_enc_req_func
                0x00000000100147a4                ll_enc_rsp_func
                0x000000001001482a                ll_start_enc_req_func
                0x0000000010014886                ll_start_enc_rsp_func
 .text          0x00000000100148e0      0x110 ..\..\..\libs\ble\libbtstack_central.a(ll_disconnect.o)
                0x00000000100148e0                ll_stopped_ind_func
                0x0000000010014940                hci_disconnect_cmd_func
 *fill*         0x00000000100149f0        0x0 
 .text          0x00000000100149f0      0xd3e ..\..\..\libs\ble\libbtstack_central.a(ll_con_upd.o)
                0x000000001001533c                hci_le_con_upd_cmd_func
                0x00000000100154c6                ll_op_con_upd_ind_func
                0x0000000010015568                ble_con_param_upd_cfm_func
                0x00000000100155e0                ble_con_offset_upd_ind_func
                0x0000000010015632                ll_con_move_cb
 .text.le.ll_cntl.pdu
                0x000000001001572e      0x332 ..\..\..\libs\ble\libbtstack_central.a(ll_con_upd.o)
                0x000000001001572e                ll_con_update_ind_func
                0x000000001001589e                ll_con_param_req_func
                0x00000000100159c2                ll_con_param_rsp_func
 .text.usb_handler_register
                0x0000000010015a60        0x8 ..\..\..\libs\usb\libusb.a(usb_comm.o)
                0x0000000010015a60                usb_handler_register
 .text.usb_disable
                0x0000000010015a68       0x2a ..\..\..\libs\usb\libusb.a(usb_comm.o)
                0x0000000010015a68                usb_disable
 .text.usb_init
                0x0000000010015a92       0x8c ..\..\..\libs\usb\libusb.a(usb_comm.o)
                0x0000000010015a92                usb_init
 .text.usb_interrupt_init
                0x0000000010015b1e       0x8e ..\..\..\libs\usb\libusb.a(usb_comm.o)
                0x0000000010015b1e                usb_interrupt_init
 .text.usb_device_suspend_enable
                0x0000000010015bac        0xe ..\..\..\libs\usb\libusb.a(usb_comm.o)
                0x0000000010015bac                usb_device_suspend_enable
 .text.usb_device_is_suspend
                0x0000000010015bba        0xa ..\..\..\libs\usb\libusb.a(usb_comm.o)
                0x0000000010015bba                usb_device_is_suspend
 .text.ude_init
                0x0000000010015bc4       0x48 ..\..\..\libs\usb\libusb.a(usb_device_enum.o)
                0x0000000010015bc4                ude_init
 .text.usb_ep_get_max_len
                0x0000000010015c0c       0x10 ..\..\..\libs\usb\libusb.a(usb_device_ep.o)
                0x0000000010015c0c                usb_ep_get_max_len
 .text.usb_ep_get_rx_len
                0x0000000010015c1c       0x24 ..\..\..\libs\usb\libusb.a(usb_device_ep.o)
                0x0000000010015c1c                usb_ep_get_rx_len
 .text.usb_ep_clear_rx_fifo
                0x0000000010015c40       0x1a ..\..\..\libs\usb\libusb.a(usb_device_ep.o)
                0x0000000010015c40                usb_ep_clear_rx_fifo
 .text.usb_ep_get_for_index
                0x0000000010015c5a       0x1e ..\..\..\libs\usb\libusb.a(usb_device_ep.o)
                0x0000000010015c5a                usb_ep_get_for_index
 .text.usb_ep_init
                0x0000000010015c78       0xae ..\..\..\libs\usb\libusb.a(usb_device_ep.o)
                0x0000000010015c78                usb_ep_init
 .text.usb_ep_clear
                0x0000000010015d26       0x46 ..\..\..\libs\usb\libusb.a(usb_device_ep.o)
                0x0000000010015d26                usb_ep_clear
 .text.usb_ep_reset
                0x0000000010015d6c       0x92 ..\..\..\libs\usb\libusb.a(usb_device_ep.o)
                0x0000000010015d6c                usb_ep_reset
 .text.usb_device_enter
                0x0000000010015dfe       0x7a ..\..\..\libs\usb\libusb.a(usb_device_run_loop.o)
                0x0000000010015dfe                usb_device_enter
 .text.usb_device_exit
                0x0000000010015e78       0x22 ..\..\..\libs\usb\libusb.a(usb_device_run_loop.o)
                0x0000000010015e78                usb_device_exit
 *(.rodata*)
 *fill*         0x0000000010015e9a        0x2 
 .rodata.str1.4
                0x0000000010015e9c       0x3b Output\obj\driver\driver_lowpwr.o
 *fill*         0x0000000010015ed7        0x1 
 .rodata        0x0000000010015ed8        0x9 Output\obj\project\solution\ble_usb_dongle\app\func.o
 *fill*         0x0000000010015ee1        0x3 
 .rodata.str1.4
                0x0000000010015ee4       0x4d Output\obj\project\solution\ble_usb_dongle\app\func.o
                                         0x54 (size before relaxing)
 .rodata.str1.4
                0x0000000010015f31        0x4 Output\obj\project\solution\ble_usb_dongle\app\func_bt.o
 *fill*         0x0000000010015f31        0x3 
 .rodata.str1.4
                0x0000000010015f34       0x62 Output\obj\project\solution\ble_usb_dongle\ble\ble_app.o
 *fill*         0x0000000010015f96        0x2 
 .rodata.str1.4
                0x0000000010015f98      0x2b4 Output\obj\project\solution\ble_usb_dongle\ble\ble_client.o
 .rodata        0x000000001001624c        0xd Output\obj\project\solution\ble_usb_dongle\bsp\bsp_sys.o
 *fill*         0x0000000010016259        0x3 
 .rodata.str1.4
                0x000000001001625c       0x5d Output\obj\project\solution\ble_usb_dongle\bsp\bsp_sys.o
                                         0x64 (size before relaxing)
 *fill*         0x00000000100162b9        0x3 
 .rodata.str1.4
                0x00000000100162bc       0x2c Output\obj\project\solution\ble_usb_dongle\main.o
 .rodata        0x00000000100162e8       0x10 Output\obj\project\solution\ble_usb_dongle\strong_symbol.o
 .rodata.str1.4
                0x00000000100162f8       0x1e Output\obj\project\solution\ble_usb_dongle\strong_symbol.o
 *fill*         0x0000000010016316        0x2 
 .rodata.str1.4
                0x0000000010016318       0x29 Output\obj\project\solution\ble_usb_dongle\usb\usb_cdc.o
 *fill*         0x0000000010016341        0x3 
 .rodata.str1.4
                0x0000000010016344       0x44 Output\obj\project\solution\ble_usb_dongle\usb\usb_com.o
 .rodata.str1.4
                0x0000000010016388       0x1d Output\obj\project\solution\ble_usb_dongle\usb\usb_desc.o
 *fill*         0x00000000100163a5        0x3 
 .rodata.usb.desc
                0x00000000100163a8       0x24 Output\obj\project\solution\ble_usb_dongle\usb\usb_desc.o
                0x00000000100163a8                usb_device_desc
                0x00000000100163bc                usb_cfg_desc
                0x00000000100163c8                usb_lang_desc
 .rodata.str1.4
                0x00000000100163cc      0x147 Output\obj\project\solution\ble_usb_dongle\usb\usb_dev_enum.o
 *fill*         0x0000000010016513        0x1 
 .rodata.str1.4
                0x0000000010016514       0x2f Output\obj\project\solution\ble_usb_dongle\usb\usb_hid.o
 *fill*         0x0000000010016543        0x1 
 .rodata.usb.desc
                0x0000000010016544       0x34 Output\obj\project\solution\ble_usb_dongle\usb\usb_hid_desc.o
                0x0000000010016544                desc_hid_report
 .rodata.str1.4
                0x0000000010016578       0x13 Output\obj\project\solution\ble_usb_dongle\usb\usb_usr_cdc.o
 *fill*         0x000000001001658b        0x1 
 .rodata.str1.4
                0x000000001001658c       0xfc ..\..\..\libs\cpu\libplatform.a(cm.o)
 .rodata.str1.4
                0x0000000010016688       0x10 ..\..\..\libs\cpu\libplatform.a(main.o)
 .rodata.str1.4
                0x0000000010016698       0x3f ..\..\..\libs\cpu\libplatform.a(startup.o)
 *fill*         0x00000000100166d7        0x1 
 .rodata.str1.4
                0x00000000100166d8       0x20 ..\..\..\libs\cpu\libplatform.a(pll.o)
 .rodata.str1.4
                0x00000000100166f8       0x16 ..\..\..\libs\cpu\libplatform.a(lock.o)
 *fill*         0x000000001001670e        0x2 
 .rodata.str1.4
                0x0000000010016710       0x45 ..\..\..\libs\cpu\libplatform.a(sys.o)
 *fill*         0x0000000010016755        0x3 
 .rodata.str1.4
                0x0000000010016758       0x50 ..\..\..\libs\ble\libbtstack_central.a(sm.o)
 .rodata        0x00000000100167a8       0x64 ..\..\..\libs\ble\libbtstack_central.a(sm.o)
 .rodata.str1.4
                0x000000001001680c        0x4 ..\..\..\libs\ble\libbtstack_central.a(le_device_db_memory.o)
 .rodata        0x000000001001680c       0x14 ..\..\..\libs\ble\libbtstack_central.a(gatt_client.o)
 .rodata        0x0000000010016820       0x10 ..\..\..\libs\ble\libbtstack_central.a(att_db.o)
 .rodata.stack.api
                0x0000000010016830       0x90 ..\..\..\libs\ble\libbtstack_central.a(btstack_api.o)
                0x0000000010016830                btstack_basic_tbl
                0x0000000010016840                btstack_ctl_tbl
                0x00000000100168b0                btstack_api_tbl
 .rodata.bb.tbl
                0x00000000100168c0        0x8 ..\..\..\libs\ble\libbtstack_central.a(ble_con.o)
                0x00000000100168c0                connect_req_dur_tab
 .rodata.bb.tbl
                0x00000000100168c8       0x1c ..\..\..\libs\ble\libbtstack_central.a(ble.o)
                0x00000000100168c8                ble_ctl
 .rodata.bb.tbl
                0x00000000100168e4       0x10 ..\..\..\libs\ble\libbtstack_central.a(bb_utils.o)
                0x00000000100168e4                null_array
 .rodata.str1.4
                0x00000000100168f4       0x21 ..\..\..\libs\ble\libbtstack_central.a(bb.o)
 *fill*         0x0000000010016915        0x3 
 .rodata        0x0000000010016918       0x24 ..\..\..\libs\ble\libbtstack_central.a(bb.o)
                0x0000000010016918                bb_hook
 .rodata.stack.l2cap
                0x000000001001693c        0x2 ..\..\..\libs\ble\libbtstack_central.a(l2cap.o)
 *fill*         0x000000001001693e        0x2 
 .rodata.str1.4
                0x0000000010016940       0xb7 ..\..\..\libs\ble\libbtstack_central.a(hci_cmd.o)
                                         0xd3 (size before relaxing)
 *fill*         0x00000000100169f7        0x1 
 .rodata.btstakc.hci
                0x00000000100169f8        0x8 ..\..\..\libs\ble\libbtstack_central.a(hci_cmd.o)
                0x00000000100169f8                hci_num_of_packet_complete
 .rodata.stack.hci_send
                0x0000000010016a00      0x120 ..\..\..\libs\ble\libbtstack_central.a(hci_cmd.o)
                0x0000000010016a00                hci_le_write_rf_path_compensation
                0x0000000010016a08                hci_le_read_rf_path_compensation
                0x0000000010016a10                hci_le_transmit_power
                0x0000000010016a18                hci_le_read_periodic_adv_list_size
                0x0000000010016a20                hci_le_set_default_phy
                0x0000000010016a28                hci_le_long_term_key_negative_reply
                0x0000000010016a30                hci_le_long_term_key_request_reply
                0x0000000010016a38                hci_le_rand
                0x0000000010016a40                hci_le_encrypt
                0x0000000010016a48                hci_le_connection_update
                0x0000000010016a50                hci_le_add_device_to_per_adv_list
                0x0000000010016a58                hci_le_per_advertising_terminate_sync
                0x0000000010016a60                hci_le_per_advertising_creat_sync_cancel
                0x0000000010016a68                hci_le_per_advertising_creat_sync
                0x0000000010016a70                hci_ext_creat_connection
                0x0000000010016a78                hci_le_set_ext_scan_enable
                0x0000000010016a80                hci_le_set_ext_scan_parameters
                0x0000000010016a88                hci_le_set_per_advertise_enable
                0x0000000010016a90                hci_le_set_per_advertising_data
                0x0000000010016a98                hci_le_set_per_advertising_parameters
                0x0000000010016aa0                hci_le_set_ext_advertise_enable
                0x0000000010016aa8                hci_le_set_ext_scan_response_data
                0x0000000010016ab0                hci_le_set_ext_advertising_data
                0x0000000010016ab8                hci_le_set_ext_advertising_parameters
                0x0000000010016ac0                hci_le_set_advertise_enable
                0x0000000010016ac8                hci_le_set_scan_response_data
                0x0000000010016ad0                hci_le_set_advertising_data
                0x0000000010016ad8                hci_le_set_advertising_parameters
                0x0000000010016ae0                hci_le_set_random_address
                0x0000000010016ae8                hci_le_read_buffer_size
                0x0000000010016af0                hci_le_start_encryption
                0x0000000010016af8                hci_le_create_connection_cancel
                0x0000000010016b00                hci_le_create_connection
                0x0000000010016b08                hci_le_set_scan_enable
                0x0000000010016b10                hci_le_set_scan_parameters
                0x0000000010016b18                hci_disconnect
 .rodata.str1.4
                0x0000000010016b20       0x79 ..\..\..\libs\ble\libbtstack_central.a(hci.o)
 *fill*         0x0000000010016b99        0x3 
 .rodata        0x0000000010016b9c       0x20 ..\..\..\libs\ble\libbtstack_central.a(btstack_util.o)
                0x0000000010016bac                bluetooth_base_uuid
 .rodata        0x0000000010016bbc       0x20 ..\..\..\libs\ble\libbtstack_central.a(hci_transport_dummy.o)
 .rodata        0x0000000010016bdc       0x24 ..\..\..\libs\ble\libbtstack_central.a(bb_sche.o)
 .rodata.bb.tbl
                0x0000000010016c00       0x51 ..\..\..\libs\ble\libbtstack_central.a(rf_mate.o)
 *fill*         0x0000000010016c51        0x3 
 .rodata.str1.4
                0x0000000010016c54        0x9 ..\..\..\libs\ble\libbtstack_central.a(hct_proc.o)
 *fill*         0x0000000010016c5d        0x3 
 .rodata        0x0000000010016c60       0x4c ..\..\..\libs\ble\libbtstack_central.a(hct_proc.o)
 .rodata.le.mgr_cntl.tbl
                0x0000000010016cac       0x70 ..\..\..\libs\ble\libbtstack_central.a(mgr_hci.o)
                0x0000000010016cac                mgr_hci_cmd_tbl
 .rodata        0x0000000010016d1c       0x1c ..\..\..\libs\ble\libbtstack_central.a(ll_scan.o)
 .rodata.str1.4
                0x0000000010016d38       0x55 ..\..\..\libs\ble\libbtstack_central.a(ll_cntl.o)
                                         0x59 (size before relaxing)
 *fill*         0x0000000010016d8d        0x3 
 .rodata.le.ll_cntl.tbl
                0x0000000010016d90      0x1f8 ..\..\..\libs\ble\libbtstack_central.a(ll_cntl.o)
                0x0000000010016d90                ll_cntl_pdu_tbl
 .rodata.bb.tbl
                0x0000000010016f88        0x7 ..\..\..\libs\ble\libbtstack_central.a(ble_hal.o)
 *fill*         0x0000000010016f8f        0x1 
 .rodata.str1.4
                0x0000000010016f90       0x14 ..\..\..\libs\ble\libbtstack_central.a(l2cap_signaling.o)
                                         0x2a (size before relaxing)
 .rodata        0x0000000010016fa4       0x58 ..\..\..\libs\ble\libbtstack_central.a(l2cap_signaling.o)
 .rodata        0x0000000010016ffc       0x20 ..\..\..\libs\ble\libbtstack_central.a(vs_proc.o)
 .rodata        0x000000001001701c       0xe0 ..\..\..\libs\ble\libbtstack_central.a(hct_msg.o)
                0x000000001001701c                hci_cmd_desc_root_tab
                0x000000001001705c                hci_evt_desc_tab
                0x000000001001706c                hci_evt_le_desc_tab
                0x0000000010017080                hci_cmd_desc_tab_le
                0x0000000010017080                hci_evt_dbg_desc_tab
                0x00000000100170dc                hci_cmd_desc_tab_stat_par
                0x00000000100170dc                hci_cmd_desc_tab_info_par
                0x00000000100170e8                hci_cmd_desc_tab_ctrl_bb
 .rodata        0x00000000100170fc       0x40 ..\..\..\libs\ble\libbtstack_central.a(mgr_proc.o)
 .rodata.le.ll_cntl.tbl
                0x000000001001713c       0xf8 ..\..\..\libs\ble\libbtstack_central.a(ll_proc.o)
                0x000000001001713c                ll_msg_tbl
                0x000000001001720c                ll_hci_cmd_tbl
 *(.srodata*)
 .srodata       0x0000000010017234       0x18 ..\..\..\libs\ble\libbtstack_central.a(mgr.o)
 .srodata       0x000000001001724c        0xc ..\..\..\libs\ble\libbtstack_central.a(hct_msg.o)
                0x000000001001724c                hci_cmd_desc_tab_vs
                0x0000000010017254                hci_cmd_desc_tab_lk_ctrl
 *(.rela*)
 .rela.text.clk_clk32k_rtc_get
                0x0000000010017258        0x0 Output\obj\driver\driver_clk.o
 .rela.text.clk_saradc_clk_get
                0x0000000010017258        0x0 Output\obj\driver\driver_clk.o
 .rela.text.clk_clk2m_ks_get
                0x0000000010017258        0x0 Output\obj\driver\driver_clk.o
 .rela.text.wk0_edge_capture_config
                0x0000000010017258        0x0 Output\obj\driver\driver_clk.o
 .rela.text.gpio_edge_capture_config
                0x0000000010017258        0x0 Output\obj\driver\driver_clk.o
 .rela.text.gpio_edge_capture_config_custom
                0x0000000010017258        0x0 Output\obj\driver\driver_clk.o
 .rela.text.gpio_set_reset_pin
                0x0000000010017258        0x0 Output\obj\driver\driver_clk.o
 .rela.text.gpio_edge_pic_config
                0x0000000010017258        0x0 Output\obj\driver\driver_clk.o
 .rela.text.hsuart_init
                0x0000000010017258        0x0 Output\obj\driver\driver_clk.o
 .rela.text.hsuart_baud_config
                0x0000000010017258        0x0 Output\obj\driver\driver_clk.o
 .rela.text.hsuart_pic_config
                0x0000000010017258        0x0 Output\obj\driver\driver_clk.o
 .rela.text.ledc_pic_config
                0x0000000010017258        0x0 Output\obj\driver\driver_clk.o
 .rela.com_pwroff.mode2
                0x0000000010017258        0x0 Output\obj\driver\driver_clk.o
 .rela.com_sleep.lp_wakeup
                0x0000000010017258        0x0 Output\obj\driver\driver_clk.o
 .rela.text.lowpwr_get_wakeup_source
                0x0000000010017258        0x0 Output\obj\driver\driver_clk.o
 .rela.text.lowpwr_wk0_wakeup_config
                0x0000000010017258        0x0 Output\obj\driver\driver_clk.o
 .rela.text.lowpwr_gpio_wakeup_config
                0x0000000010017258        0x0 Output\obj\driver\driver_clk.o
 .rela.text.lowpwr_gpio_wakeup_config_custom
                0x0000000010017258        0x0 Output\obj\driver\driver_clk.o
 .rela.text.lowpwr_wakeup_config
                0x0000000010017258        0x0 Output\obj\driver\driver_clk.o
 .rela.com_pwroff.mode1
                0x0000000010017258        0x0 Output\obj\driver\driver_clk.o
 .rela.com_sleep.proc_do
                0x0000000010017258        0x0 Output\obj\driver\driver_clk.o
 .rela.com_sleep.sleep
                0x0000000010017258        0x0 Output\obj\driver\driver_clk.o
 .rela.text.saradc_mic_init
                0x0000000010017258        0x0 Output\obj\driver\driver_clk.o
 .rela.text.saradc_init
                0x0000000010017258        0x0 Output\obj\driver\driver_clk.o
 .rela.text.saradc_deinit
                0x0000000010017258        0x0 Output\obj\driver\driver_clk.o
 .rela.text.saradc_set_baud
                0x0000000010017258        0x0 Output\obj\driver\driver_clk.o
 .rela.text.saradc_pic_config
                0x0000000010017258        0x0 Output\obj\driver\driver_clk.o
 .rela.com_periph.saradc.get_data
                0x0000000010017258        0x0 Output\obj\driver\driver_clk.o
 .rela.text.uart_init
                0x0000000010017258        0x0 Output\obj\driver\driver_clk.o
 .rela.text.uart_pic_config
                0x0000000010017258        0x0 Output\obj\driver\driver_clk.o
 .rela.text.uart_baud_config
                0x0000000010017258        0x0 Output\obj\driver\driver_clk.o
 .rela.text.notch_iir.init
                0x0000000010017258        0x0 Output\obj\driver\driver_clk.o
 .rela.text.app.proc.func
                0x0000000010017258        0x0 Output\obj\driver\driver_clk.o
 .rela.text.func.msg
                0x0000000010017258        0x0 Output\obj\driver\driver_clk.o
 .rela.text.func
                0x0000000010017258        0x0 Output\obj\driver\driver_clk.o
 .rela.text.app.proc.bt
                0x0000000010017258        0x0 Output\obj\driver\driver_clk.o
 .rela.text.func.bt
                0x0000000010017258        0x0 Output\obj\driver\driver_clk.o
 .rela.com_text.timer
                0x0000000010017258        0x0 Output\obj\driver\driver_clk.o
 .rela.text.ble_alarm_init
                0x0000000010017258        0x0 Output\obj\driver\driver_clk.o
 .rela.text.ble_advertising_report_callback
                0x0000000010017258        0x0 Output\obj\driver\driver_clk.o
 .rela.text.ble_client_event_callback
                0x0000000010017258        0x0 Output\obj\driver\driver_clk.o
 .rela.text.ble_att_read_callback
                0x0000000010017258        0x0 Output\obj\driver\driver_clk.o
 .rela.text.ble_client_notify_callback
                0x0000000010017258        0x0 Output\obj\driver\driver_clk.o
 .rela.text.ble_client_init
                0x0000000010017258        0x0 Output\obj\driver\driver_clk.o
 .rela.text.ble_txpkt_init
                0x0000000010017258        0x0 Output\obj\driver\driver_clk.o
 .rela.text.ble_sm_param_init
                0x0000000010017258        0x0 Output\obj\driver\driver_clk.o
 .rela.text.ble_scan_param_init
                0x0000000010017258        0x0 Output\obj\driver\driver_clk.o
 .rela.text.ble_central_init
                0x0000000010017258        0x0 Output\obj\driver\driver_clk.o
 .rela.text.bsp_ble_init
                0x0000000010017258        0x0 Output\obj\driver\driver_clk.o
 .rela.com_text.key.scan
                0x0000000010017258        0x0 Output\obj\driver\driver_clk.o
 .rela.text.bsp_key_init
                0x0000000010017258        0x0 Output\obj\driver\driver_clk.o
 .rela.text.bsp.param
                0x0000000010017258        0x0 Output\obj\driver\driver_clk.o
 .rela.text.bsp.param.fota
                0x0000000010017258        0x0 Output\obj\driver\driver_clk.o
 .rela.text.sys_ram_info_dump
                0x0000000010017258        0x0 Output\obj\driver\driver_clk.o
 .rela.com_text.dev.detect
                0x0000000010017258        0x0 Output\obj\driver\driver_clk.o
 .rela.text.bsp.sys.init
                0x0000000010017258        0x0 Output\obj\driver\driver_clk.o
 .rela.text.bsp_periph_init
                0x0000000010017258        0x0 Output\obj\driver\driver_clk.o
 .rela.text.bsp_uart_debug_init
                0x0000000010017258        0x0 Output\obj\driver\driver_clk.o
 .rela.text.startup.main
                0x0000000010017258        0x0 Output\obj\driver\driver_clk.o
 .rela.text.ble_get_local_bd_addr
                0x0000000010017258        0x0 Output\obj\driver\driver_clk.o
 .rela.text.bt_rf_get_param
                0x0000000010017258        0x0 Output\obj\driver\driver_clk.o
 .rela.com_sleep.rf.txpwr
                0x0000000010017258        0x0 Output\obj\driver\driver_clk.o
 .rela.text.ble_get_link_info
                0x0000000010017258        0x0 Output\obj\driver\driver_clk.o
 .rela.text.ble_put_link_info
                0x0000000010017258        0x0 Output\obj\driver\driver_clk.o
 .rela.text.thread_create_callback
                0x0000000010017258        0x0 Output\obj\driver\driver_clk.o
 .rela.text.xosc_get_xcfg
                0x0000000010017258        0x0 Output\obj\driver\driver_clk.o
 .rela.text.param_xosc_write
                0x0000000010017258        0x0 Output\obj\driver\driver_clk.o
 .rela.com_text.spiflash
                0x0000000010017258        0x0 Output\obj\driver\driver_clk.o
 .rela.usbdev.com
                0x0000000010017258        0x0 Output\obj\driver\driver_clk.o
 .rela.text.usb_cdc_get_line_coding
                0x0000000010017258        0x0 Output\obj\driver\driver_clk.o
 .rela.text.usb_cdc_init
                0x0000000010017258        0x0 Output\obj\driver\driver_clk.o
 .rela.text.usb_cdc_bulk_in_send
                0x0000000010017258        0x0 Output\obj\driver\driver_clk.o
 .rela.com_text.thread.driver
                0x0000000010017258        0x0 Output\obj\driver\driver_clk.o
 .rela.text.usb_ep_init_handler
                0x0000000010017258        0x0 Output\obj\driver\driver_clk.o
 .rela.text.usb_ep_callback_register
                0x0000000010017258        0x0 Output\obj\driver\driver_clk.o
 .rela.text.usb_ep_start_transfer
                0x0000000010017258        0x0 Output\obj\driver\driver_clk.o
 .rela.text.usb_ep_reset_deal
                0x0000000010017258        0x0 Output\obj\driver\driver_clk.o
 .rela.text.usb_device_init
                0x0000000010017258        0x0 Output\obj\driver\driver_clk.o
 .rela.text.usb_device_deinit
                0x0000000010017258        0x0 Output\obj\driver\driver_clk.o
 .rela.text.usb_get_manufacturer_str_descriptor
                0x0000000010017258        0x0 Output\obj\driver\driver_clk.o
 .rela.text.usb_get_product_str_descriptor
                0x0000000010017258        0x0 Output\obj\driver\driver_clk.o
 .rela.text.usb_get_serial_str_descriptor
                0x0000000010017258        0x0 Output\obj\driver\driver_clk.o
 .rela.text.usb_hid_receive_callback
                0x0000000010017258        0x0 Output\obj\driver\driver_clk.o
 .rela.text.usb_int_ep_reset
                0x0000000010017258        0x0 Output\obj\driver\driver_clk.o
 .rela.text.udh_init
                0x0000000010017258        0x0 Output\obj\driver\driver_clk.o
 .rela.text.usb_hid_buffer_push
                0x0000000010017258        0x0 Output\obj\driver\driver_clk.o
 .rela.com_text.usb.hid
                0x0000000010017258        0x0 Output\obj\driver\driver_clk.o
 .rela.text.usb_hid_in_callback
                0x0000000010017258        0x0 Output\obj\driver\driver_clk.o
 .rela.text.usb_hid_init
                0x0000000010017258        0x0 Output\obj\driver\driver_clk.o
 .rela.text.usb_hid_send_test
                0x0000000010017258        0x0 Output\obj\driver\driver_clk.o
 .rela.text.usb_usr_cdc_data_out
                0x0000000010017258        0x0 Output\obj\driver\driver_clk.o
 .rela.text.audio_mic_power
                0x0000000010017258        0x0 Output\obj\driver\driver_clk.o
 .rela.text.audio_mic_analog_init
                0x0000000010017258        0x0 Output\obj\driver\driver_clk.o
 .rela.text.audio_micdc_trim_step0_init
                0x0000000010017258        0x0 Output\obj\driver\driver_clk.o
 .rela.text.audio_micdc_trim_step0_waiting
                0x0000000010017258        0x0 Output\obj\driver\driver_clk.o
 .rela.text.audio_micdc_trim_step0_run
                0x0000000010017258        0x0 Output\obj\driver\driver_clk.o
 .rela.text.audio_micdc_trim_step1_init
                0x0000000010017258        0x0 Output\obj\driver\driver_clk.o
 .rela.text.audio_micdc_trim_step1_waiting
                0x0000000010017258        0x0 Output\obj\driver\driver_clk.o
 .rela.text.audio_micdc_trim_step1_run
                0x0000000010017258        0x0 Output\obj\driver\driver_clk.o
 .rela.text.micin_config
                0x0000000010017258        0x0 Output\obj\driver\driver_clk.o
 .rela.text.audio_micin_trim_step0_init
                0x0000000010017258        0x0 Output\obj\driver\driver_clk.o
 .rela.text.audio_micin_trim_step0_waiting
                0x0000000010017258        0x0 Output\obj\driver\driver_clk.o
 .rela.text.audio_micin_trim_step1_init
                0x0000000010017258        0x0 Output\obj\driver\driver_clk.o
 .rela.text.audio_micin_trim_step2_run
                0x0000000010017258        0x0 Output\obj\driver\driver_clk.o
 .rela.text.audio_mic_trim_proc
                0x0000000010017258        0x0 Output\obj\driver\driver_clk.o
 .rela.text.cm_loadpage
                0x0000000010017258        0x0 Output\obj\driver\driver_clk.o
 .rela.text.cm_next_freepage
                0x0000000010017258        0x0 Output\obj\driver\driver_clk.o
 .rela.text.cm_factory
                0x0000000010017258        0x0 Output\obj\driver\driver_clk.o
 .rela.text.cm_writepage
                0x0000000010017258        0x0 Output\obj\driver\driver_clk.o
 .rela.text.cm_movepage
                0x0000000010017258        0x0 Output\obj\driver\driver_clk.o
 .rela.text.cm_erase
                0x0000000010017258        0x0 Output\obj\driver\driver_clk.o
 .rela.text.cm_release
                0x0000000010017258        0x0 Output\obj\driver\driver_clk.o
 .rela.text.cm_savepage
                0x0000000010017258        0x0 Output\obj\driver\driver_clk.o
 .rela.text.cm_check_loadpage
                0x0000000010017258        0x0 Output\obj\driver\driver_clk.o
 .rela.text.cm_move_allpages
                0x0000000010017258        0x0 Output\obj\driver\driver_clk.o
 .rela.text.cm_sync
                0x0000000010017258        0x0 Output\obj\driver\driver_clk.o
 .rela.text.cm_release_all
                0x0000000010017258        0x0 Output\obj\driver\driver_clk.o
 .rela.text.cm_read
                0x0000000010017258        0x0 Output\obj\driver\driver_clk.o
 .rela.text.cm_read8
                0x0000000010017258        0x0 Output\obj\driver\driver_clk.o
 .rela.text.cm_read16
                0x0000000010017258        0x0 Output\obj\driver\driver_clk.o
 .rela.text.cm_read32
                0x0000000010017258        0x0 Output\obj\driver\driver_clk.o
 .rela.text.cm_write
                0x0000000010017258        0x0 Output\obj\driver\driver_clk.o
 .rela.text.cm_write8
                0x0000000010017258        0x0 Output\obj\driver\driver_clk.o
 .rela.text.cm_write16
                0x0000000010017258        0x0 Output\obj\driver\driver_clk.o
 .rela.text.cm_write32
                0x0000000010017258        0x0 Output\obj\driver\driver_clk.o
 .rela.text.cm_clear
                0x0000000010017258        0x0 Output\obj\driver\driver_clk.o
 .rela.text.cm_init
                0x0000000010017258        0x0 Output\obj\driver\driver_clk.o
 .rela.com_text.spiflash.id
                0x0000000010017258        0x0 Output\obj\driver\driver_clk.o
 .rela.text.xcfg_init
                0x0000000010017258        0x0 Output\obj\driver\driver_clk.o
 .rela.com_text.delay
                0x0000000010017258        0x0 Output\obj\driver\driver_clk.o
 .rela.text.platform_main
                0x0000000010017258        0x0 Output\obj\driver\driver_clk.o
 .rela.text.main_startup
                0x0000000010017258        0x0 Output\obj\driver\driver_clk.o
 .rela.com_text.irq
                0x0000000010017258        0x0 Output\obj\driver\driver_clk.o
 .rela.com_text.irq.wpt
                0x0000000010017258        0x0 Output\obj\driver\driver_clk.o
 .rela.text.sys_irq_init
                0x0000000010017258        0x0 Output\obj\driver\driver_clk.o
 .rela.text.soft_irq_init
                0x0000000010017258        0x0 Output\obj\driver\driver_clk.o
 .rela.text.bthw_irq_init
                0x0000000010017258        0x0 Output\obj\driver\driver_clk.o
 .rela.text.watch_point_set
                0x0000000010017258        0x0 Output\obj\driver\driver_clk.o
 .rela.text.usb_irq_init
                0x0000000010017258        0x0 Output\obj\driver\driver_clk.o
 .rela.text.sys_timer_init
                0x0000000010017258        0x0 Output\obj\driver\driver_clk.o
 .rela.text.thread_timer_create
                0x0000000010017258        0x0 Output\obj\driver\driver_clk.o
 .rela.text.thread_btstack_create
                0x0000000010017258        0x0 Output\obj\driver\driver_clk.o
 .rela.text.thread_driver_create
                0x0000000010017258        0x0 Output\obj\driver\driver_clk.o
 .rela.text.thread_main_entry
                0x0000000010017258        0x0 Output\obj\driver\driver_clk.o
 .rela.text.startup.init
                0x0000000010017258        0x0 Output\obj\driver\driver_clk.o
 .rela.com_text.thread.driver.usb
                0x0000000010017258        0x0 Output\obj\driver\driver_clk.o
 .rela.com_text.thread.driver.vs
                0x0000000010017258        0x0 Output\obj\driver\driver_clk.o
 .rela.com_text.thread.driver.enter
                0x0000000010017258        0x0 Output\obj\driver\driver_clk.o
 .rela.text.pll0_vco_band_trimming
                0x0000000010017258        0x0 Output\obj\driver\driver_clk.o
 .rela.text.pll0_init
                0x0000000010017258        0x0 Output\obj\driver\driver_clk.o
 .rela.text.pll_ext_init
                0x0000000010017258        0x0 Output\obj\driver\driver_clk.o
 .rela.com_text.trim.vddio_get
                0x0000000010017258        0x0 Output\obj\driver\driver_clk.o
 .rela.com_text.trim.vddio_set
                0x0000000010017258        0x0 Output\obj\driver\driver_clk.o
 .rela.com_text.trim.core_get
                0x0000000010017258        0x0 Output\obj\driver\driver_clk.o
 .rela.com_text.trim.core_set
                0x0000000010017258        0x0 Output\obj\driver\driver_clk.o
 .rela.com_text.trim.lvd_get
                0x0000000010017258        0x0 Output\obj\driver\driver_clk.o
 .rela.com_text.trim.lvd_set
                0x0000000010017258        0x0 Output\obj\driver\driver_clk.o
 .rela.text.pmu_voltage_configure
                0x0000000010017258        0x0 Output\obj\driver\driver_clk.o
 .rela.text.pmu_init
                0x0000000010017258        0x0 Output\obj\driver\driver_clk.o
 .rela.reset    0x0000000010017258        0x0 Output\obj\driver\driver_clk.o
 .rela.vector   0x0000000010017258        0x0 Output\obj\driver\driver_clk.o
 .rela.text.lock_code_usbdev
                0x0000000010017258        0x0 Output\obj\driver\driver_clk.o
 .rela.text.patch_init
                0x0000000010017258        0x0 Output\obj\driver\driver_clk.o
 .rela.com_sleep.lp.sleep
                0x0000000010017258        0x0 Output\obj\driver\driver_clk.o
 .rela.text.sys_clk
                0x0000000010017258        0x0 Output\obj\driver\driver_clk.o
 .rela.com_text.stack.api
                0x0000000010017258        0x0 Output\obj\driver\driver_clk.o
 .rela.com_text.stack.run_loop
                0x0000000010017258        0x0 Output\obj\driver\driver_clk.o
 .rela.text     0x0000000010017258        0x0 Output\obj\driver\driver_clk.o
 .rela.com_text.bt.timer
                0x0000000010017258        0x0 Output\obj\driver\driver_clk.o
 .rela.com_text.sleep
                0x0000000010017258        0x0 Output\obj\driver\driver_clk.o
 .rela.com_text.bb.isr
                0x0000000010017258        0x0 Output\obj\driver\driver_clk.o
 .rela.com_sleep.bb
                0x0000000010017258        0x0 Output\obj\driver\driver_clk.o
 .rela.text.bb.aes
                0x0000000010017258        0x0 Output\obj\driver\driver_clk.o
 .rela.text.stack.send.txpkt
                0x0000000010017258        0x0 Output\obj\driver\driver_clk.o
 .rela.text.txpkt.flush
                0x0000000010017258        0x0 Output\obj\driver\driver_clk.o
 .rela.text.sm.aes
                0x0000000010017258        0x0 Output\obj\driver\driver_clk.o
 .rela.text.sm.get_handle
                0x0000000010017258        0x0 Output\obj\driver\driver_clk.o
 .rela.text.sm.rau_run
                0x0000000010017258        0x0 Output\obj\driver\driver_clk.o
 .rela.text.gap.rau.update
                0x0000000010017258        0x0 Output\obj\driver\driver_clk.o
 .rela.text.stack.ble.sm
                0x0000000010017258        0x0 Output\obj\driver\driver_clk.o
 .rela.text.sm.request
                0x0000000010017258        0x0 Output\obj\driver\driver_clk.o
 .rela.text.sm.pairing
                0x0000000010017258        0x0 Output\obj\driver\driver_clk.o
 .rela.text.sm.passkey.set
                0x0000000010017258        0x0 Output\obj\driver\driver_clk.o
 .rela.text.sm.passkey.get
                0x0000000010017258        0x0 Output\obj\driver\driver_clk.o
 .rela.text.sm.passkey.input
                0x0000000010017258        0x0 Output\obj\driver\driver_clk.o
 .rela.text.gap.rau.mode
                0x0000000010017258        0x0 Output\obj\driver\driver_clk.o
 .rela.text.sm.run
                0x0000000010017258        0x0 Output\obj\driver\driver_clk.o
 .rela.text.sm.pdu
                0x0000000010017258        0x0 Output\obj\driver\driver_clk.o
 .rela.text.sm.event
                0x0000000010017258        0x0 Output\obj\driver\driver_clk.o
 .rela.text.gap.rau_set
                0x0000000010017258        0x0 Output\obj\driver\driver_clk.o
 .rela.text.sm.delete_bonding
                0x0000000010017258        0x0 Output\obj\driver\driver_clk.o
 .rela.text.le.db.get
                0x0000000010017258        0x0 Output\obj\driver\driver_clk.o
 .rela.text.le.db.set
                0x0000000010017258        0x0 Output\obj\driver\driver_clk.o
 .rela.text.le.db.read
                0x0000000010017258        0x0 Output\obj\driver\driver_clk.o
 .rela.text.le.db.init
                0x0000000010017258        0x0 Output\obj\driver\driver_clk.o
 .rela.text.le.db.remove
                0x0000000010017258        0x0 Output\obj\driver\driver_clk.o
 .rela.text.le.db.remove_all
                0x0000000010017258        0x0 Output\obj\driver\driver_clk.o
 .rela.text.le.db.add
                0x0000000010017258        0x0 Output\obj\driver\driver_clk.o
 .rela.text.le.db
                0x0000000010017258        0x0 Output\obj\driver\driver_clk.o
 .rela.text.le.db.dump
                0x0000000010017258        0x0 Output\obj\driver\driver_clk.o
 .rela.text.client.request_can_send
                0x0000000010017258        0x0 Output\obj\driver\driver_clk.o
 .rela.text.client.write_req
                0x0000000010017258        0x0 Output\obj\driver\driver_clk.o
 .rela.text.sm.client
                0x0000000010017258        0x0 Output\obj\driver\driver_clk.o
 .rela.text.client.deserialize_service
                0x0000000010017258        0x0 Output\obj\driver\driver_clk.o
 .rela.text.client.deserialize_characteristic
                0x0000000010017258        0x0 Output\obj\driver\driver_clk.o
 .rela.text.client.deserialize_characteristic_descriptor
                0x0000000010017258        0x0 Output\obj\driver\driver_clk.o
 .rela.text.stack.send.client
                0x0000000010017258        0x0 Output\obj\driver\driver_clk.o
 .rela.text.client.find_services_uuid16
                0x0000000010017258        0x0 Output\obj\driver\driver_clk.o
 .rela.text.client.find_character_uuid16
                0x0000000010017258        0x0 Output\obj\driver\driver_clk.o
 .rela.text.client.read_value_uuid16
                0x0000000010017258        0x0 Output\obj\driver\driver_clk.o
 .rela.text.sm.server
                0x0000000010017258        0x0 Output\obj\driver\driver_clk.o
 .rela.text.server.init
                0x0000000010017258        0x0 Output\obj\driver\driver_clk.o
 .rela.text.stack.send.server
                0x0000000010017258        0x0 Output\obj\driver\driver_clk.o
 .rela.text.server.packet_handler
                0x0000000010017258        0x0 Output\obj\driver\driver_clk.o
 .rela.text.att.event_handler
                0x0000000010017258        0x0 Output\obj\driver\driver_clk.o
 .rela.text.stack.send.ntf
                0x0000000010017258        0x0 Output\obj\driver\driver_clk.o
 .rela.text.server.indicate
                0x0000000010017258        0x0 Output\obj\driver\driver_clk.o
 .rela.text.server.mtu_get
                0x0000000010017258        0x0 Output\obj\driver\driver_clk.o
 .rela.text.att.register_client
                0x0000000010017258        0x0 Output\obj\driver\driver_clk.o
 .rela.text.att.register_server
                0x0000000010017258        0x0 Output\obj\driver\driver_clk.o
 .rela.text.att.dispatch_server
                0x0000000010017258        0x0 Output\obj\driver\driver_clk.o
 .rela.text.att.dispatch_client
                0x0000000010017258        0x0 Output\obj\driver\driver_clk.o
 .rela.text.stack.send.dispatch_server
                0x0000000010017258        0x0 Output\obj\driver\driver_clk.o
 .rela.text.att.dump
                0x0000000010017258        0x0 Output\obj\driver\driver_clk.o
 .rela.text.att.mtu_request
                0x0000000010017258        0x0 Output\obj\driver\driver_clk.o
 .rela.text.att_server.mtu_rsp
                0x0000000010017258        0x0 Output\obj\driver\driver_clk.o
 .rela.text.gatt.get_client_config
                0x0000000010017258        0x0 Output\obj\driver\driver_clk.o
 .rela.text.ble.hci
                0x0000000010017258        0x0 Output\obj\driver\driver_clk.o
 .rela.text.stack.setup
                0x0000000010017258        0x0 Output\obj\driver\driver_clk.o
 .rela.text.stack.api
                0x0000000010017258        0x0 Output\obj\driver\driver_clk.o
 .rela.rodata.stack.api
                0x0000000010017258        0x0 Output\obj\driver\driver_clk.o
 .rela.text.ble.api.conn.update
                0x0000000010017258        0x0 Output\obj\driver\driver_clk.o
 .rela.text.ble.api.max_mtu
                0x0000000010017258        0x0 Output\obj\driver\driver_clk.o
 .rela.text.ble.api.adv_is_en
                0x0000000010017258        0x0 Output\obj\driver\driver_clk.o
 .rela.text.ble.api.conn_param.get
                0x0000000010017258        0x0 Output\obj\driver\driver_clk.o
 .rela.text.ble.api.scan.set
                0x0000000010017258        0x0 Output\obj\driver\driver_clk.o
 .rela.text.ble.api.conn_do
                0x0000000010017258        0x0 Output\obj\driver\driver_clk.o
 .rela.text.ble.api.regist
                0x0000000010017258        0x0 Output\obj\driver\driver_clk.o
 .rela.text.ble.set_static_addr
                0x0000000010017258        0x0 Output\obj\driver\driver_clk.o
 .rela.text.ble.single_mode
                0x0000000010017258        0x0 Output\obj\driver\driver_clk.o
 .rela.text.bb.aes.ecpy
                0x0000000010017258        0x0 Output\obj\driver\driver_clk.o
 .rela.text.rf.tx_tone
                0x0000000010017258        0x0 Output\obj\driver\driver_clk.o
 .rela.com_text.ble.isr.con.end
                0x0000000010017258        0x0 Output\obj\driver\driver_clk.o
 .rela.com_text.bb.buf
                0x0000000010017258        0x0 Output\obj\driver\driver_clk.o
 .rela.text.le.stack
                0x0000000010017258        0x0 Output\obj\driver\driver_clk.o
 .rela.text.ble.var.init
                0x0000000010017258        0x0 Output\obj\driver\driver_clk.o
 .rela.rodata   0x0000000010017258        0x0 Output\obj\driver\driver_clk.o
 .rela.text.stk.l2cap.txreq
                0x0000000010017258        0x0 Output\obj\driver\driver_clk.o
 .rela.text.stack.l2cap
                0x0000000010017258        0x0 Output\obj\driver\driver_clk.o
 .rela.text.stack.handler.l2cap
                0x0000000010017258        0x0 Output\obj\driver\driver_clk.o
 .rela.text.stack.send.l2cap
                0x0000000010017258        0x0 Output\obj\driver\driver_clk.o
 .rela.text.stack.l2cap.connectionless
                0x0000000010017258        0x0 Output\obj\driver\driver_clk.o
 .rela.text.stack.hci_send
                0x0000000010017258        0x0 Output\obj\driver\driver_clk.o
 .rela.text.stack.hci_init
                0x0000000010017258        0x0 Output\obj\driver\driver_clk.o
 .rela.text.stack.hci
                0x0000000010017258        0x0 Output\obj\driver\driver_clk.o
 .rela.text.stack.hci.conn
                0x0000000010017258        0x0 Output\obj\driver\driver_clk.o
 .rela.text.stack.send.hci
                0x0000000010017258        0x0 Output\obj\driver\driver_clk.o
 .rela.com_text.stack.hci_recv
                0x0000000010017258        0x0 Output\obj\driver\driver_clk.o
 .rela.text.stack.send.ntf_do
                0x0000000010017258        0x0 Output\obj\driver\driver_clk.o
 .rela.text.ble.indicate
                0x0000000010017258        0x0 Output\obj\driver\driver_clk.o
 .rela.text.stack.h3c
                0x0000000010017258        0x0 Output\obj\driver\driver_clk.o
 .rela.com_text.stack.h3c
                0x0000000010017258        0x0 Output\obj\driver\driver_clk.o
 .rela.com_text.stack.util
                0x0000000010017258        0x0 Output\obj\driver\driver_clk.o
 .rela.text.btstack.hci.h3c.init
                0x0000000010017258        0x0 Output\obj\driver\driver_clk.o
 .rela.text.stack.ble.setup
                0x0000000010017258        0x0 Output\obj\driver\driver_clk.o
 .rela.com_text.stack.uart_isr
                0x0000000010017258        0x0 Output\obj\driver\driver_clk.o
 .rela.text.stack.hal
                0x0000000010017258        0x0 Output\obj\driver\driver_clk.o
 .rela.com_text.bb.prog
                0x0000000010017258        0x0 Output\obj\driver\driver_clk.o
 .rela.text.rfphy.other
                0x0000000010017258        0x0 Output\obj\driver\driver_clk.o
 .rela.com_sleep.rfphy.init
                0x0000000010017258        0x0 Output\obj\driver\driver_clk.o
 .rela.com_text.ble.isr
                0x0000000010017258        0x0 Output\obj\driver\driver_clk.o
 .rela.text.le.mgr
                0x0000000010017258        0x0 Output\obj\driver\driver_clk.o
 .rela.rodata.le.mgr_cntl.tbl
                0x0000000010017258        0x0 Output\obj\driver\driver_clk.o
 .rela.text.le.ll_scan
                0x0000000010017258        0x0 Output\obj\driver\driver_clk.o
 .rela.text.le.ll_cntl.send
                0x0000000010017258        0x0 Output\obj\driver\driver_clk.o
 .rela.rodata.le.ll_cntl.tbl
                0x0000000010017258        0x0 Output\obj\driver\driver_clk.o
 .rela.text.le.ll_cntl.pdu
                0x0000000010017258        0x0 Output\obj\driver\driver_clk.o
 .rela.text.le.ll_cntl
                0x0000000010017258        0x0 Output\obj\driver\driver_clk.o
 .rela.text.le.ll_cntl.start
                0x0000000010017258        0x0 Output\obj\driver\driver_clk.o
 .rela.text.bb.ble.test.start
                0x0000000010017258        0x0 Output\obj\driver\driver_clk.o
 .rela.text.bb.vs.fcc
                0x0000000010017258        0x0 Output\obj\driver\driver_clk.o
 .rela.com_rodata.bb.tbl
                0x0000000010017258        0x0 Output\obj\driver\driver_clk.o
 .rela.text.usb_init
                0x0000000010017258        0x0 Output\obj\driver\driver_clk.o
 .rela.text.usb_interrupt_init
                0x0000000010017258        0x0 Output\obj\driver\driver_clk.o
 .rela.text.ude_init
                0x0000000010017258        0x0 Output\obj\driver\driver_clk.o
 .rela.text.usb_device_exit
                0x0000000010017258        0x0 Output\obj\driver\driver_clk.o
                0x0000000010017258        0x4 LONG 0x0
                0x0000000010017400                . = ALIGN (0x200)
 *fill*         0x000000001001725c      0x1a4 

.stack          0x0000000000010800      0x400
                0x0000000000010800                __irq_stack_start = .
                0x0000000000000400                . = 0x400
 *fill*         0x0000000000010800      0x400 
                0x0000000000010c00                __irq_stack = .
                0x0000000000000400                __irq_stack_size = (__irq_stack - __irq_stack_start)
                0x0000000000016200                __bank_size = SIZEOF (.flash)
                0x0000000010000200                __comm_lma = LOADADDR (.comm)
                0x0000000000001000                __comm_size = SIZEOF (.comm)
                0x0000000010001200                __pdn_comm_lma = LOADADDR (.pdn_comm)
                0x0000000000000000                __pdn_comm_size = SIZEOF (.pdn_comm)
LOAD ..\..\..\libs\cpu\libplatform.a
LOAD ..\..\..\libs\cpu\libm.a
LOAD ..\..\..\libs\cpu\libc.a
LOAD ..\..\..\libs\cpu\libgcc.a
LOAD ..\..\..\libs\ble\libbtstack_central.a
LOAD ..\..\..\libs\usb\libusb.a
LOAD ..\..\..\libs\modules\notch_iir\libnotch_iir.a
OUTPUT(Output\bin\app.rv32 elf32-littleriscv)

.comment        0x0000000000000000       0x23
 .comment       0x0000000000000000       0x11 Output\obj\driver\driver_clk.o
                                         0x12 (size before relaxing)
 .comment       0x0000000000000011       0x12 Output\obj\driver\driver_gpio.o
 .comment       0x0000000000000011       0x12 Output\obj\driver\driver_lowpwr.o
 .comment       0x0000000000000011       0x12 Output\obj\driver\driver_uart.o
 .comment       0x0000000000000011       0x12 Output\obj\project\solution\ble_usb_dongle\app\func.o
 .comment       0x0000000000000011       0x12 Output\obj\project\solution\ble_usb_dongle\app\func_bt.o
 .comment       0x0000000000000011       0x12 Output\obj\project\solution\ble_usb_dongle\ble\ble_alarm.o
 .comment       0x0000000000000011       0x12 Output\obj\project\solution\ble_usb_dongle\ble\ble_app.o
 .comment       0x0000000000000011       0x12 Output\obj\project\solution\ble_usb_dongle\ble\ble_client.o
 .comment       0x0000000000000011       0x12 Output\obj\project\solution\ble_usb_dongle\ble\ble_init.o
 .comment       0x0000000000000011       0x12 Output\obj\project\solution\ble_usb_dongle\bsp\bsp_io_key.o
 .comment       0x0000000000000011       0x12 Output\obj\project\solution\ble_usb_dongle\bsp\bsp_key.o
 .comment       0x0000000000000011       0x12 Output\obj\project\solution\ble_usb_dongle\bsp\bsp_param.o
 .comment       0x0000000000000011       0x12 Output\obj\project\solution\ble_usb_dongle\bsp\bsp_sys.o
 .comment       0x0000000000000011       0x12 Output\obj\project\solution\ble_usb_dongle\bsp\bsp_uart_debug.o
 .comment       0x0000000000000011       0x12 Output\obj\project\solution\ble_usb_dongle\main.o
 .comment       0x0000000000000011       0x12 Output\obj\project\solution\ble_usb_dongle\prod_test\prod_test.o
 .comment       0x0000000000000011       0x12 Output\obj\project\solution\ble_usb_dongle\strong_ble.o
 .comment       0x0000000000000011       0x12 Output\obj\project\solution\ble_usb_dongle\strong_symbol.o
 .comment       0x0000000000000011       0x12 Output\obj\project\solution\ble_usb_dongle\usb\usb_cdc.o
 .comment       0x0000000000000011       0x12 Output\obj\project\solution\ble_usb_dongle\usb\usb_cdc_desc.o
 .comment       0x0000000000000011       0x12 Output\obj\project\solution\ble_usb_dongle\usb\usb_com.o
 .comment       0x0000000000000011       0x12 Output\obj\project\solution\ble_usb_dongle\usb\usb_desc.o
 .comment       0x0000000000000011       0x12 Output\obj\project\solution\ble_usb_dongle\usb\usb_dev_enum.o
 .comment       0x0000000000000011       0x12 Output\obj\project\solution\ble_usb_dongle\usb\usb_hid.o
 .comment       0x0000000000000011       0x12 Output\obj\project\solution\ble_usb_dongle\usb\usb_hid_desc.o
 .comment       0x0000000000000011       0x12 Output\obj\project\solution\ble_usb_dongle\usb\usb_usr_cdc.o
 .comment       0x0000000000000011       0x12 ..\..\..\libs\cpu\libplatform.a(cm.o)
                                         0x13 (size before relaxing)
 .comment       0x0000000000000023       0x13 ..\..\..\libs\cpu\libplatform.a(os_flash.o)
 .comment       0x0000000000000023       0x13 ..\..\..\libs\cpu\libplatform.a(xcfg.o)
 .comment       0x0000000000000023       0x13 ..\..\..\libs\cpu\libplatform.a(device.o)
 .comment       0x0000000000000023       0x13 ..\..\..\libs\cpu\libplatform.a(main.o)
 .comment       0x0000000000000023       0x13 ..\..\..\libs\cpu\libplatform.a(interrupt.o)
 .comment       0x0000000000000023       0x13 ..\..\..\libs\cpu\libplatform.a(startup.o)
 .comment       0x0000000000000023       0x13 ..\..\..\libs\cpu\libplatform.a(sys_hook.o)
 .comment       0x0000000000000023       0x13 ..\..\..\libs\cpu\libplatform.a(thread_driver.o)
 .comment       0x0000000000000023       0x13 ..\..\..\libs\cpu\libplatform.a(pll.o)
 .comment       0x0000000000000023       0x13 ..\..\..\libs\cpu\libplatform.a(pmu.o)
 .comment       0x0000000000000023       0x13 ..\..\..\libs\cpu\libplatform.a(debug.o)
 .comment       0x0000000000000023       0x13 ..\..\..\libs\cpu\libplatform.a(key.o)
 .comment       0x0000000000000023       0x13 ..\..\..\libs\cpu\libplatform.a(lock.o)
 .comment       0x0000000000000023       0x13 ..\..\..\libs\cpu\libplatform.a(patch.o)
 .comment       0x0000000000000023       0x13 ..\..\..\libs\cpu\libplatform.a(sys.o)
 .comment       0x0000000000000023       0x13 ..\..\..\libs\cpu\libplatform.a(sys_clk.o)
 .comment       0x0000000000000023       0x13 ..\..\..\libs\cpu\libplatform.a(voltage_trim.o)
 .comment       0x0000000000000023       0x13 ..\..\..\libs\cpu\libplatform.a(weak_symbol.o)
 .comment       0x0000000000000023       0x13 ..\..\..\libs\cpu\libplatform.a(bt.o)
 .comment       0x0000000000000023       0x13 ..\..\..\libs\cpu\libplatform.a(freq_det.o)
 .comment       0x0000000000000023       0x13 ..\..\..\libs\ble\libbtstack_central.a(bb_api.o)
 .comment       0x0000000000000023       0x13 ..\..\..\libs\ble\libbtstack_central.a(bb_int.o)
 .comment       0x0000000000000023       0x13 ..\..\..\libs\ble\libbtstack_central.a(bb_alarm.o)
 .comment       0x0000000000000023       0x13 ..\..\..\libs\ble\libbtstack_central.a(txpkt.o)
 .comment       0x0000000000000023       0x13 ..\..\..\libs\ble\libbtstack_central.a(sm.o)
 .comment       0x0000000000000023       0x13 ..\..\..\libs\ble\libbtstack_central.a(le_device_db_memory.o)
 .comment       0x0000000000000023       0x13 ..\..\..\libs\ble\libbtstack_central.a(gatt_client.o)
 .comment       0x0000000000000023       0x13 ..\..\..\libs\ble\libbtstack_central.a(att_server.o)
 .comment       0x0000000000000023       0x13 ..\..\..\libs\ble\libbtstack_central.a(att_dispatch.o)
 .comment       0x0000000000000023       0x13 ..\..\..\libs\ble\libbtstack_central.a(att_db.o)
 .comment       0x0000000000000023       0x13 ..\..\..\libs\ble\libbtstack_central.a(btstack_api.o)
 .comment       0x0000000000000023       0x13 ..\..\..\libs\ble\libbtstack_central.a(ble_api.o)
 .comment       0x0000000000000023       0x13 ..\..\..\libs\ble\libbtstack_central.a(txpkt.o)
 .comment       0x0000000000000023       0x13 ..\..\..\libs\ble\libbtstack_central.a(aes.o)
 .comment       0x0000000000000023       0x13 ..\..\..\libs\ble\libbtstack_central.a(extern.o)
 .comment       0x0000000000000023       0x13 ..\..\..\libs\ble\libbtstack_central.a(rf.o)
 .comment       0x0000000000000023       0x13 ..\..\..\libs\ble\libbtstack_central.a(ble_con.o)
 .comment       0x0000000000000023       0x13 ..\..\..\libs\ble\libbtstack_central.a(ble_buf.o)
 .comment       0x0000000000000023       0x13 ..\..\..\libs\ble\libbtstack_central.a(ble.o)
 .comment       0x0000000000000023       0x13 ..\..\..\libs\ble\libbtstack_central.a(bb_utils.o)
 .comment       0x0000000000000023       0x13 ..\..\..\libs\ble\libbtstack_central.a(bb.o)
 .comment       0x0000000000000023       0x13 ..\..\..\libs\ble\libbtstack_central.a(platform.o)
 .comment       0x0000000000000023       0x13 ..\..\..\libs\ble\libbtstack_central.a(extern_ble.o)
 .comment       0x0000000000000023       0x13 ..\..\..\libs\ble\libbtstack_central.a(l2cap.o)
 .comment       0x0000000000000023       0x13 ..\..\..\libs\ble\libbtstack_central.a(hci_dump.o)
 .comment       0x0000000000000023       0x13 ..\..\..\libs\ble\libbtstack_central.a(hci_cmd.o)
 .comment       0x0000000000000023       0x13 ..\..\..\libs\ble\libbtstack_central.a(hci.o)
 .comment       0x0000000000000023       0x13 ..\..\..\libs\ble\libbtstack_central.a(btstack_util.o)
 .comment       0x0000000000000023       0x13 ..\..\..\libs\ble\libbtstack_central.a(btstack_run_loop.o)
 .comment       0x0000000000000023       0x13 ..\..\..\libs\ble\libbtstack_central.a(btstack_memory.o)
 .comment       0x0000000000000023       0x13 ..\..\..\libs\ble\libbtstack_central.a(gatt_server.o)
 .comment       0x0000000000000023       0x13 ..\..\..\libs\ble\libbtstack_central.a(hci_transport_h3_controller.o)
 .comment       0x0000000000000023       0x13 ..\..\..\libs\ble\libbtstack_central.a(hci_transport_dummy.o)
 .comment       0x0000000000000023       0x13 ..\..\..\libs\ble\libbtstack_central.a(btstack_main.o)
 .comment       0x0000000000000023       0x13 ..\..\..\libs\ble\libbtstack_central.a(btstack_hal.o)
 .comment       0x0000000000000023       0x13 ..\..\..\libs\ble\libbtstack_central.a(nanos.o)
 .comment       0x0000000000000023       0x13 ..\..\..\libs\ble\libbtstack_central.a(bb_sche.o)
 .comment       0x0000000000000023       0x13 ..\..\..\libs\ble\libbtstack_central.a(patch.o)
 .comment       0x0000000000000023       0x13 ..\..\..\libs\ble\libbtstack_central.a(bb_dbg.o)
 .comment       0x0000000000000023       0x13 ..\..\..\libs\ble\libbtstack_central.a(bb_clk.o)
 .comment       0x0000000000000023       0x13 ..\..\..\libs\ble\libbtstack_central.a(vs.o)
 .comment       0x0000000000000023       0x13 ..\..\..\libs\ble\libbtstack_central.a(rf_mate.o)
 .comment       0x0000000000000023       0x13 ..\..\..\libs\ble\libbtstack_central.a(ble_hook.o)
 .comment       0x0000000000000023       0x13 ..\..\..\libs\ble\libbtstack_central.a(hct_proc.o)
 .comment       0x0000000000000023       0x13 ..\..\..\libs\ble\libbtstack_central.a(hct.o)
 .comment       0x0000000000000023       0x13 ..\..\..\libs\ble\libbtstack_central.a(mgr_hci.o)
 .comment       0x0000000000000023       0x13 ..\..\..\libs\ble\libbtstack_central.a(mgr.o)
 .comment       0x0000000000000023       0x13 ..\..\..\libs\ble\libbtstack_central.a(ll_scan.o)
 .comment       0x0000000000000023       0x13 ..\..\..\libs\ble\libbtstack_central.a(ll_cntl.o)
 .comment       0x0000000000000023       0x13 ..\..\..\libs\ble\libbtstack_central.a(ll_clk_acc.o)
 .comment       0x0000000000000023       0x13 ..\..\..\libs\ble\libbtstack_central.a(ll_chmap_upd.o)
 .comment       0x0000000000000023       0x13 ..\..\..\libs\ble\libbtstack_central.a(ll.o)
 .comment       0x0000000000000023       0x13 ..\..\..\libs\ble\libbtstack_central.a(ble_test.o)
 .comment       0x0000000000000023       0x13 ..\..\..\libs\ble\libbtstack_central.a(ble_sync.o)
 .comment       0x0000000000000023       0x13 ..\..\..\libs\ble\libbtstack_central.a(ble_scan.o)
 .comment       0x0000000000000023       0x13 ..\..\..\libs\ble\libbtstack_central.a(ble_init.o)
 .comment       0x0000000000000023       0x13 ..\..\..\libs\ble\libbtstack_central.a(ble_hal.o)
 .comment       0x0000000000000023       0x13 ..\..\..\libs\ble\libbtstack_central.a(l2cap_signaling.o)
 .comment       0x0000000000000023       0x13 ..\..\..\libs\ble\libbtstack_central.a(btstack_memory_pool.o)
 .comment       0x0000000000000023       0x13 ..\..\..\libs\ble\libbtstack_central.a(platform.o)
 .comment       0x0000000000000023       0x13 ..\..\..\libs\ble\libbtstack_central.a(vs_proc.o)
 .comment       0x0000000000000023       0x13 ..\..\..\libs\ble\libbtstack_central.a(vs_fcc.o)
 .comment       0x0000000000000023       0x13 ..\..\..\libs\ble\libbtstack_central.a(scan_hook.o)
 .comment       0x0000000000000023       0x13 ..\..\..\libs\ble\libbtstack_central.a(hct_msg.o)
 .comment       0x0000000000000023       0x13 ..\..\..\libs\ble\libbtstack_central.a(mgr_test.o)
 .comment       0x0000000000000023       0x13 ..\..\..\libs\ble\libbtstack_central.a(mgr_proc.o)
 .comment       0x0000000000000023       0x13 ..\..\..\libs\ble\libbtstack_central.a(mgr_init.o)
 .comment       0x0000000000000023       0x13 ..\..\..\libs\ble\libbtstack_central.a(ll_version.o)
 .comment       0x0000000000000023       0x13 ..\..\..\libs\ble\libbtstack_central.a(ll_proc.o)
 .comment       0x0000000000000023       0x13 ..\..\..\libs\ble\libbtstack_central.a(ll_phy_upd.o)
 .comment       0x0000000000000023       0x13 ..\..\..\libs\ble\libbtstack_central.a(ll_length.o)
 .comment       0x0000000000000023       0x13 ..\..\..\libs\ble\libbtstack_central.a(ll_feature.o)
 .comment       0x0000000000000023       0x13 ..\..\..\libs\ble\libbtstack_central.a(ll_encrypt.o)
 .comment       0x0000000000000023       0x13 ..\..\..\libs\ble\libbtstack_central.a(ll_disconnect.o)
 .comment       0x0000000000000023       0x13 ..\..\..\libs\ble\libbtstack_central.a(ll_con_upd.o)
 .comment       0x0000000000000023       0x13 ..\..\..\libs\usb\libusb.a(usb_comm.o)
 .comment       0x0000000000000023       0x13 ..\..\..\libs\usb\libusb.a(usb_detect.o)
 .comment       0x0000000000000023       0x13 ..\..\..\libs\usb\libusb.a(usb_device_enum.o)
 .comment       0x0000000000000023       0x13 ..\..\..\libs\usb\libusb.a(usb_device_ep.o)
 .comment       0x0000000000000023       0x13 ..\..\..\libs\usb\libusb.a(usb_device_run_loop.o)

.riscv.attributes
                0x0000000000000000     0x144e
 .riscv.attributes
                0x0000000000000000       0x32 ..\..\..\libs\cpu\libplatform.a(cm.o)
 .riscv.attributes
                0x0000000000000032       0x32 ..\..\..\libs\cpu\libplatform.a(os_flash.o)
 .riscv.attributes
                0x0000000000000064       0x32 ..\..\..\libs\cpu\libplatform.a(xcfg.o)
 .riscv.attributes
                0x0000000000000096       0x32 ..\..\..\libs\cpu\libplatform.a(device.o)
 .riscv.attributes
                0x00000000000000c8       0x32 ..\..\..\libs\cpu\libplatform.a(main.o)
 .riscv.attributes
                0x00000000000000fa       0x32 ..\..\..\libs\cpu\libplatform.a(interrupt.o)
 .riscv.attributes
                0x000000000000012c       0x32 ..\..\..\libs\cpu\libplatform.a(startup.o)
 .riscv.attributes
                0x000000000000015e       0x32 ..\..\..\libs\cpu\libplatform.a(sys_hook.o)
 .riscv.attributes
                0x0000000000000190       0x32 ..\..\..\libs\cpu\libplatform.a(thread_driver.o)
 .riscv.attributes
                0x00000000000001c2       0x32 ..\..\..\libs\cpu\libplatform.a(pll.o)
 .riscv.attributes
                0x00000000000001f4       0x32 ..\..\..\libs\cpu\libplatform.a(pmu.o)
 .riscv.attributes
                0x0000000000000226       0x34 ..\..\..\libs\cpu\libplatform.a(reset.o)
 .riscv.attributes
                0x000000000000025a       0x32 ..\..\..\libs\cpu\libplatform.a(debug.o)
 .riscv.attributes
                0x000000000000028c       0x32 ..\..\..\libs\cpu\libplatform.a(key.o)
 .riscv.attributes
                0x00000000000002be       0x32 ..\..\..\libs\cpu\libplatform.a(lock.o)
 .riscv.attributes
                0x00000000000002f0       0x32 ..\..\..\libs\cpu\libplatform.a(patch.o)
 .riscv.attributes
                0x0000000000000322       0x30 ..\..\..\libs\cpu\libplatform.a(s_sys.o)
 .riscv.attributes
                0x0000000000000352       0x32 ..\..\..\libs\cpu\libplatform.a(sys.o)
 .riscv.attributes
                0x0000000000000384       0x32 ..\..\..\libs\cpu\libplatform.a(sys_clk.o)
 .riscv.attributes
                0x00000000000003b6       0x32 ..\..\..\libs\cpu\libplatform.a(voltage_trim.o)
 .riscv.attributes
                0x00000000000003e8       0x32 ..\..\..\libs\cpu\libplatform.a(weak_symbol.o)
 .riscv.attributes
                0x000000000000041a       0x32 ..\..\..\libs\cpu\libplatform.a(bt.o)
 .riscv.attributes
                0x000000000000044c       0x32 ..\..\..\libs\cpu\libplatform.a(freq_det.o)
 .riscv.attributes
                0x000000000000047e       0x32 ..\..\..\libs\ble\libbtstack_central.a(bb_api.o)
 .riscv.attributes
                0x00000000000004b0       0x32 ..\..\..\libs\ble\libbtstack_central.a(bb_int.o)
 .riscv.attributes
                0x00000000000004e2       0x32 ..\..\..\libs\ble\libbtstack_central.a(bb_alarm.o)
 .riscv.attributes
                0x0000000000000514       0x32 ..\..\..\libs\ble\libbtstack_central.a(txpkt.o)
 .riscv.attributes
                0x0000000000000546       0x32 ..\..\..\libs\ble\libbtstack_central.a(sm.o)
 .riscv.attributes
                0x0000000000000578       0x32 ..\..\..\libs\ble\libbtstack_central.a(le_device_db_memory.o)
 .riscv.attributes
                0x00000000000005aa       0x32 ..\..\..\libs\ble\libbtstack_central.a(gatt_client.o)
 .riscv.attributes
                0x00000000000005dc       0x32 ..\..\..\libs\ble\libbtstack_central.a(att_server.o)
 .riscv.attributes
                0x000000000000060e       0x32 ..\..\..\libs\ble\libbtstack_central.a(att_dispatch.o)
 .riscv.attributes
                0x0000000000000640       0x32 ..\..\..\libs\ble\libbtstack_central.a(att_db.o)
 .riscv.attributes
                0x0000000000000672       0x32 ..\..\..\libs\ble\libbtstack_central.a(btstack_api.o)
 .riscv.attributes
                0x00000000000006a4       0x32 ..\..\..\libs\ble\libbtstack_central.a(ble_api.o)
 .riscv.attributes
                0x00000000000006d6       0x32 ..\..\..\libs\ble\libbtstack_central.a(txpkt.o)
 .riscv.attributes
                0x0000000000000708       0x32 ..\..\..\libs\ble\libbtstack_central.a(aes.o)
 .riscv.attributes
                0x000000000000073a       0x32 ..\..\..\libs\ble\libbtstack_central.a(extern.o)
 .riscv.attributes
                0x000000000000076c       0x32 ..\..\..\libs\ble\libbtstack_central.a(rf.o)
 .riscv.attributes
                0x000000000000079e       0x32 ..\..\..\libs\ble\libbtstack_central.a(ble_con.o)
 .riscv.attributes
                0x00000000000007d0       0x32 ..\..\..\libs\ble\libbtstack_central.a(ble_buf.o)
 .riscv.attributes
                0x0000000000000802       0x32 ..\..\..\libs\ble\libbtstack_central.a(ble.o)
 .riscv.attributes
                0x0000000000000834       0x32 ..\..\..\libs\ble\libbtstack_central.a(bb_utils.o)
 .riscv.attributes
                0x0000000000000866       0x32 ..\..\..\libs\ble\libbtstack_central.a(bb.o)
 .riscv.attributes
                0x0000000000000898       0x32 ..\..\..\libs\ble\libbtstack_central.a(platform.o)
 .riscv.attributes
                0x00000000000008ca       0x32 ..\..\..\libs\ble\libbtstack_central.a(extern_ble.o)
 .riscv.attributes
                0x00000000000008fc       0x32 ..\..\..\libs\ble\libbtstack_central.a(l2cap.o)
 .riscv.attributes
                0x000000000000092e       0x32 ..\..\..\libs\ble\libbtstack_central.a(hci_dump.o)
 .riscv.attributes
                0x0000000000000960       0x32 ..\..\..\libs\ble\libbtstack_central.a(hci_cmd.o)
 .riscv.attributes
                0x0000000000000992       0x32 ..\..\..\libs\ble\libbtstack_central.a(hci.o)
 .riscv.attributes
                0x00000000000009c4       0x32 ..\..\..\libs\ble\libbtstack_central.a(btstack_util.o)
 .riscv.attributes
                0x00000000000009f6       0x32 ..\..\..\libs\ble\libbtstack_central.a(btstack_run_loop.o)
 .riscv.attributes
                0x0000000000000a28       0x32 ..\..\..\libs\ble\libbtstack_central.a(btstack_memory.o)
 .riscv.attributes
                0x0000000000000a5a       0x32 ..\..\..\libs\ble\libbtstack_central.a(gatt_server.o)
 .riscv.attributes
                0x0000000000000a8c       0x32 ..\..\..\libs\ble\libbtstack_central.a(hci_transport_h3_controller.o)
 .riscv.attributes
                0x0000000000000abe       0x32 ..\..\..\libs\ble\libbtstack_central.a(hci_transport_dummy.o)
 .riscv.attributes
                0x0000000000000af0       0x32 ..\..\..\libs\ble\libbtstack_central.a(btstack_main.o)
 .riscv.attributes
                0x0000000000000b22       0x32 ..\..\..\libs\ble\libbtstack_central.a(btstack_hal.o)
 .riscv.attributes
                0x0000000000000b54       0x32 ..\..\..\libs\ble\libbtstack_central.a(nanos.o)
 .riscv.attributes
                0x0000000000000b86       0x32 ..\..\..\libs\ble\libbtstack_central.a(bb_sche.o)
 .riscv.attributes
                0x0000000000000bb8       0x32 ..\..\..\libs\ble\libbtstack_central.a(patch.o)
 .riscv.attributes
                0x0000000000000bea       0x32 ..\..\..\libs\ble\libbtstack_central.a(bb_dbg.o)
 .riscv.attributes
                0x0000000000000c1c       0x32 ..\..\..\libs\ble\libbtstack_central.a(bb_clk.o)
 .riscv.attributes
                0x0000000000000c4e       0x32 ..\..\..\libs\ble\libbtstack_central.a(vs.o)
 .riscv.attributes
                0x0000000000000c80       0x32 ..\..\..\libs\ble\libbtstack_central.a(rf_mate.o)
 .riscv.attributes
                0x0000000000000cb2       0x32 ..\..\..\libs\ble\libbtstack_central.a(ble_hook.o)
 .riscv.attributes
                0x0000000000000ce4       0x32 ..\..\..\libs\ble\libbtstack_central.a(hct_proc.o)
 .riscv.attributes
                0x0000000000000d16       0x32 ..\..\..\libs\ble\libbtstack_central.a(hct.o)
 .riscv.attributes
                0x0000000000000d48       0x32 ..\..\..\libs\ble\libbtstack_central.a(mgr_hci.o)
 .riscv.attributes
                0x0000000000000d7a       0x32 ..\..\..\libs\ble\libbtstack_central.a(mgr.o)
 .riscv.attributes
                0x0000000000000dac       0x32 ..\..\..\libs\ble\libbtstack_central.a(ll_scan.o)
 .riscv.attributes
                0x0000000000000dde       0x32 ..\..\..\libs\ble\libbtstack_central.a(ll_cntl.o)
 .riscv.attributes
                0x0000000000000e10       0x32 ..\..\..\libs\ble\libbtstack_central.a(ll_clk_acc.o)
 .riscv.attributes
                0x0000000000000e42       0x32 ..\..\..\libs\ble\libbtstack_central.a(ll_chmap_upd.o)
 .riscv.attributes
                0x0000000000000e74       0x32 ..\..\..\libs\ble\libbtstack_central.a(ll.o)
 .riscv.attributes
                0x0000000000000ea6       0x32 ..\..\..\libs\ble\libbtstack_central.a(ble_test.o)
 .riscv.attributes
                0x0000000000000ed8       0x32 ..\..\..\libs\ble\libbtstack_central.a(ble_sync.o)
 .riscv.attributes
                0x0000000000000f0a       0x32 ..\..\..\libs\ble\libbtstack_central.a(ble_scan.o)
 .riscv.attributes
                0x0000000000000f3c       0x32 ..\..\..\libs\ble\libbtstack_central.a(ble_init.o)
 .riscv.attributes
                0x0000000000000f6e       0x32 ..\..\..\libs\ble\libbtstack_central.a(ble_hal.o)
 .riscv.attributes
                0x0000000000000fa0       0x32 ..\..\..\libs\ble\libbtstack_central.a(l2cap_signaling.o)
 .riscv.attributes
                0x0000000000000fd2       0x32 ..\..\..\libs\ble\libbtstack_central.a(btstack_memory_pool.o)
 .riscv.attributes
                0x0000000000001004       0x30 ..\..\..\libs\ble\libbtstack_central.a(patch_asm.o)
 .riscv.attributes
                0x0000000000001034       0x32 ..\..\..\libs\ble\libbtstack_central.a(platform.o)
 .riscv.attributes
                0x0000000000001066       0x32 ..\..\..\libs\ble\libbtstack_central.a(vs_proc.o)
 .riscv.attributes
                0x0000000000001098       0x32 ..\..\..\libs\ble\libbtstack_central.a(vs_fcc.o)
 .riscv.attributes
                0x00000000000010ca       0x32 ..\..\..\libs\ble\libbtstack_central.a(scan_hook.o)
 .riscv.attributes
                0x00000000000010fc       0x32 ..\..\..\libs\ble\libbtstack_central.a(hct_msg.o)
 .riscv.attributes
                0x000000000000112e       0x32 ..\..\..\libs\ble\libbtstack_central.a(mgr_test.o)
 .riscv.attributes
                0x0000000000001160       0x32 ..\..\..\libs\ble\libbtstack_central.a(mgr_proc.o)
 .riscv.attributes
                0x0000000000001192       0x32 ..\..\..\libs\ble\libbtstack_central.a(mgr_init.o)
 .riscv.attributes
                0x00000000000011c4       0x32 ..\..\..\libs\ble\libbtstack_central.a(ll_version.o)
 .riscv.attributes
                0x00000000000011f6       0x32 ..\..\..\libs\ble\libbtstack_central.a(ll_proc.o)
 .riscv.attributes
                0x0000000000001228       0x32 ..\..\..\libs\ble\libbtstack_central.a(ll_phy_upd.o)
 .riscv.attributes
                0x000000000000125a       0x32 ..\..\..\libs\ble\libbtstack_central.a(ll_length.o)
 .riscv.attributes
                0x000000000000128c       0x32 ..\..\..\libs\ble\libbtstack_central.a(ll_feature.o)
 .riscv.attributes
                0x00000000000012be       0x32 ..\..\..\libs\ble\libbtstack_central.a(ll_encrypt.o)
 .riscv.attributes
                0x00000000000012f0       0x32 ..\..\..\libs\ble\libbtstack_central.a(ll_disconnect.o)
 .riscv.attributes
                0x0000000000001322       0x32 ..\..\..\libs\ble\libbtstack_central.a(ll_con_upd.o)
 .riscv.attributes
                0x0000000000001354       0x32 ..\..\..\libs\usb\libusb.a(usb_comm.o)
 .riscv.attributes
                0x0000000000001386       0x32 ..\..\..\libs\usb\libusb.a(usb_detect.o)
 .riscv.attributes
                0x00000000000013b8       0x32 ..\..\..\libs\usb\libusb.a(usb_device_enum.o)
 .riscv.attributes
                0x00000000000013ea       0x32 ..\..\..\libs\usb\libusb.a(usb_device_ep.o)
 .riscv.attributes
                0x000000000000141c       0x32 ..\..\..\libs\usb\libusb.a(usb_device_run_loop.o)
